ARM GAS  C:\Users\GREG~1.PHI\AppData\Local\Temp\cce7Q4Hg.s 			page 1


   1              		.cpu cortex-m0
   2              		.fpu softvfp
   3              		.eabi_attribute 20, 1
   4              		.eabi_attribute 21, 1
   5              		.eabi_attribute 23, 3
   6              		.eabi_attribute 24, 1
   7              		.eabi_attribute 25, 1
   8              		.eabi_attribute 26, 1
   9              		.eabi_attribute 30, 6
  10              		.eabi_attribute 34, 0
  11              		.eabi_attribute 18, 4
  12              		.code	16
  13              		.file	"ADC_SAR_Seq_1.c"
  14              		.text
  15              	.Ltext0:
  16              		.cfi_sections	.debug_frame
  17              		.global	ADC_SAR_Seq_1_initVar
  18              		.bss
  19              		.type	ADC_SAR_Seq_1_initVar, %object
  20              		.size	ADC_SAR_Seq_1_initVar, 1
  21              	ADC_SAR_Seq_1_initVar:
  22 0000 00       		.space	1
  23              		.comm	ADC_SAR_Seq_1_offset,4,4
  24              		.comm	ADC_SAR_Seq_1_countsPer10Volt,8,4
  25              		.section	.rodata
  26              		.align	2
  27              		.type	ADC_SAR_Seq_1_channelsConfig, %object
  28              		.size	ADC_SAR_Seq_1_channelsConfig, 8
  29              	ADC_SAR_Seq_1_channelsConfig:
  30 0000 00010000 		.word	256
  31 0004 00010000 		.word	256
  32              		.section	.text.ADC_SAR_Seq_1_Start,"ax",%progbits
  33              		.align	2
  34              		.global	ADC_SAR_Seq_1_Start
  35              		.code	16
  36              		.thumb_func
  37              		.type	ADC_SAR_Seq_1_Start, %function
  38              	ADC_SAR_Seq_1_Start:
  39              	.LFB1:
  40              		.file 1 "Generated_Source\\PSoC4\\ADC_SAR_Seq_1.c"
   1:Generated_Source\PSoC4/ADC_SAR_Seq_1.c **** /*******************************************************************************
   2:Generated_Source\PSoC4/ADC_SAR_Seq_1.c **** * File Name: ADC_SAR_Seq_1.c
   3:Generated_Source\PSoC4/ADC_SAR_Seq_1.c **** * Version 2.40
   4:Generated_Source\PSoC4/ADC_SAR_Seq_1.c **** *
   5:Generated_Source\PSoC4/ADC_SAR_Seq_1.c **** * Description:
   6:Generated_Source\PSoC4/ADC_SAR_Seq_1.c **** *  This file provides the source code to the API for the Sequencing Successive
   7:Generated_Source\PSoC4/ADC_SAR_Seq_1.c **** *  Approximation ADC Component Component.
   8:Generated_Source\PSoC4/ADC_SAR_Seq_1.c **** *
   9:Generated_Source\PSoC4/ADC_SAR_Seq_1.c **** * Note:
  10:Generated_Source\PSoC4/ADC_SAR_Seq_1.c **** *
  11:Generated_Source\PSoC4/ADC_SAR_Seq_1.c **** ********************************************************************************
  12:Generated_Source\PSoC4/ADC_SAR_Seq_1.c **** * Copyright 2008-2015, Cypress Semiconductor Corporation.  All rights reserved.
  13:Generated_Source\PSoC4/ADC_SAR_Seq_1.c **** * You may use this file only in accordance with the license, terms, conditions,
  14:Generated_Source\PSoC4/ADC_SAR_Seq_1.c **** * disclaimers, and limitations in the end user license agreement accompanying
  15:Generated_Source\PSoC4/ADC_SAR_Seq_1.c **** * the software package with which this file was provided.
  16:Generated_Source\PSoC4/ADC_SAR_Seq_1.c **** *******************************************************************************/
  17:Generated_Source\PSoC4/ADC_SAR_Seq_1.c **** 
ARM GAS  C:\Users\GREG~1.PHI\AppData\Local\Temp\cce7Q4Hg.s 			page 2


  18:Generated_Source\PSoC4/ADC_SAR_Seq_1.c **** #include "ADC_SAR_Seq_1.h"
  19:Generated_Source\PSoC4/ADC_SAR_Seq_1.c **** 
  20:Generated_Source\PSoC4/ADC_SAR_Seq_1.c **** 
  21:Generated_Source\PSoC4/ADC_SAR_Seq_1.c **** /***************************************
  22:Generated_Source\PSoC4/ADC_SAR_Seq_1.c **** * Global data allocation
  23:Generated_Source\PSoC4/ADC_SAR_Seq_1.c **** ***************************************/
  24:Generated_Source\PSoC4/ADC_SAR_Seq_1.c **** uint8 ADC_SAR_Seq_1_initVar = 0u;
  25:Generated_Source\PSoC4/ADC_SAR_Seq_1.c **** volatile int16 ADC_SAR_Seq_1_offset[ADC_SAR_Seq_1_TOTAL_CHANNELS_NUM];
  26:Generated_Source\PSoC4/ADC_SAR_Seq_1.c **** volatile int32 ADC_SAR_Seq_1_countsPer10Volt[ADC_SAR_Seq_1_TOTAL_CHANNELS_NUM];   /* Gain compensat
  27:Generated_Source\PSoC4/ADC_SAR_Seq_1.c **** 
  28:Generated_Source\PSoC4/ADC_SAR_Seq_1.c **** 
  29:Generated_Source\PSoC4/ADC_SAR_Seq_1.c **** /***************************************
  30:Generated_Source\PSoC4/ADC_SAR_Seq_1.c **** * Local data allocation
  31:Generated_Source\PSoC4/ADC_SAR_Seq_1.c **** ***************************************/
  32:Generated_Source\PSoC4/ADC_SAR_Seq_1.c **** /* Channels configuration generated by customiser */
  33:Generated_Source\PSoC4/ADC_SAR_Seq_1.c **** static const uint32 CYCODE ADC_SAR_Seq_1_channelsConfig[] = { 0x00000100u, 0x00000100u };
  34:Generated_Source\PSoC4/ADC_SAR_Seq_1.c **** 
  35:Generated_Source\PSoC4/ADC_SAR_Seq_1.c **** 
  36:Generated_Source\PSoC4/ADC_SAR_Seq_1.c **** /*******************************************************************************
  37:Generated_Source\PSoC4/ADC_SAR_Seq_1.c **** * Function Name: ADC_SAR_Seq_1_Start
  38:Generated_Source\PSoC4/ADC_SAR_Seq_1.c **** ********************************************************************************
  39:Generated_Source\PSoC4/ADC_SAR_Seq_1.c **** *
  40:Generated_Source\PSoC4/ADC_SAR_Seq_1.c **** * Summary:
  41:Generated_Source\PSoC4/ADC_SAR_Seq_1.c **** *  Performs all required initialization for this component
  42:Generated_Source\PSoC4/ADC_SAR_Seq_1.c **** *  and enables the power. The power will be set to the appropriate
  43:Generated_Source\PSoC4/ADC_SAR_Seq_1.c **** *  power based on the clock frequency.
  44:Generated_Source\PSoC4/ADC_SAR_Seq_1.c **** *
  45:Generated_Source\PSoC4/ADC_SAR_Seq_1.c **** * Parameters:
  46:Generated_Source\PSoC4/ADC_SAR_Seq_1.c **** *  None.
  47:Generated_Source\PSoC4/ADC_SAR_Seq_1.c **** *
  48:Generated_Source\PSoC4/ADC_SAR_Seq_1.c **** * Return:
  49:Generated_Source\PSoC4/ADC_SAR_Seq_1.c **** *  None.
  50:Generated_Source\PSoC4/ADC_SAR_Seq_1.c **** *
  51:Generated_Source\PSoC4/ADC_SAR_Seq_1.c **** * Global variables:
  52:Generated_Source\PSoC4/ADC_SAR_Seq_1.c **** *  The ADC_SAR_Seq_1_initVar variable is used to indicate when/if initial
  53:Generated_Source\PSoC4/ADC_SAR_Seq_1.c **** *  configuration of this component has happened. The variable is initialized to
  54:Generated_Source\PSoC4/ADC_SAR_Seq_1.c **** *  zero and set to 1 the first time ADC_Start() is called. This allows for
  55:Generated_Source\PSoC4/ADC_SAR_Seq_1.c **** *  component Re-Start without re-initialization in all subsequent calls to the
  56:Generated_Source\PSoC4/ADC_SAR_Seq_1.c **** *  ADC_SAR_Seq_1_Start() routine.
  57:Generated_Source\PSoC4/ADC_SAR_Seq_1.c **** *  If re-initialization of the component is required the variable should be set
  58:Generated_Source\PSoC4/ADC_SAR_Seq_1.c **** *  to zero before call of ADC_SAR_Seq_1_Start() routine, or the user may call
  59:Generated_Source\PSoC4/ADC_SAR_Seq_1.c **** *  ADC_SAR_Seq_1_Init() and ADC_SAR_Seq_1_Enable() as done in the
  60:Generated_Source\PSoC4/ADC_SAR_Seq_1.c **** *  ADC_SAR_Seq_1_Start() routine.
  61:Generated_Source\PSoC4/ADC_SAR_Seq_1.c **** *
  62:Generated_Source\PSoC4/ADC_SAR_Seq_1.c **** *******************************************************************************/
  63:Generated_Source\PSoC4/ADC_SAR_Seq_1.c **** void ADC_SAR_Seq_1_Start(void)
  64:Generated_Source\PSoC4/ADC_SAR_Seq_1.c **** {
  41              		.loc 1 64 0
  42              		.cfi_startproc
  43 0000 80B5     		push	{r7, lr}
  44              		.cfi_def_cfa_offset 8
  45              		.cfi_offset 7, -8
  46              		.cfi_offset 14, -4
  47 0002 00AF     		add	r7, sp, #0
  48              		.cfi_def_cfa_register 7
  65:Generated_Source\PSoC4/ADC_SAR_Seq_1.c ****     /* If not Initialized then initialize all required hardware and software */
  66:Generated_Source\PSoC4/ADC_SAR_Seq_1.c ****     if(ADC_SAR_Seq_1_initVar == 0u)
ARM GAS  C:\Users\GREG~1.PHI\AppData\Local\Temp\cce7Q4Hg.s 			page 3


  49              		.loc 1 66 0
  50 0004 064B     		ldr	r3, .L3
  51 0006 1B78     		ldrb	r3, [r3]
  52 0008 002B     		cmp	r3, #0
  53 000a 04D1     		bne	.L2
  67:Generated_Source\PSoC4/ADC_SAR_Seq_1.c ****     {
  68:Generated_Source\PSoC4/ADC_SAR_Seq_1.c ****         ADC_SAR_Seq_1_Init();
  54              		.loc 1 68 0
  55 000c FFF7FEFF 		bl	ADC_SAR_Seq_1_Init
  69:Generated_Source\PSoC4/ADC_SAR_Seq_1.c ****         ADC_SAR_Seq_1_initVar = 1u;
  56              		.loc 1 69 0
  57 0010 034B     		ldr	r3, .L3
  58 0012 0122     		mov	r2, #1
  59 0014 1A70     		strb	r2, [r3]
  60              	.L2:
  70:Generated_Source\PSoC4/ADC_SAR_Seq_1.c ****     }
  71:Generated_Source\PSoC4/ADC_SAR_Seq_1.c ****     ADC_SAR_Seq_1_Enable();
  61              		.loc 1 71 0
  62 0016 FFF7FEFF 		bl	ADC_SAR_Seq_1_Enable
  72:Generated_Source\PSoC4/ADC_SAR_Seq_1.c **** }
  63              		.loc 1 72 0
  64 001a BD46     		mov	sp, r7
  65              		@ sp needed
  66 001c 80BD     		pop	{r7, pc}
  67              	.L4:
  68 001e C046     		.align	2
  69              	.L3:
  70 0020 00000000 		.word	ADC_SAR_Seq_1_initVar
  71              		.cfi_endproc
  72              	.LFE1:
  73              		.size	ADC_SAR_Seq_1_Start, .-ADC_SAR_Seq_1_Start
  74              		.section	.text.ADC_SAR_Seq_1_Init,"ax",%progbits
  75              		.align	2
  76              		.global	ADC_SAR_Seq_1_Init
  77              		.code	16
  78              		.thumb_func
  79              		.type	ADC_SAR_Seq_1_Init, %function
  80              	ADC_SAR_Seq_1_Init:
  81              	.LFB2:
  73:Generated_Source\PSoC4/ADC_SAR_Seq_1.c **** 
  74:Generated_Source\PSoC4/ADC_SAR_Seq_1.c **** 
  75:Generated_Source\PSoC4/ADC_SAR_Seq_1.c **** /*******************************************************************************
  76:Generated_Source\PSoC4/ADC_SAR_Seq_1.c **** * Function Name: ADC_SAR_Seq_1_Init
  77:Generated_Source\PSoC4/ADC_SAR_Seq_1.c **** ********************************************************************************
  78:Generated_Source\PSoC4/ADC_SAR_Seq_1.c **** *
  79:Generated_Source\PSoC4/ADC_SAR_Seq_1.c **** * Summary:
  80:Generated_Source\PSoC4/ADC_SAR_Seq_1.c **** *  Initialize component's parameters to the parameters set by user in the
  81:Generated_Source\PSoC4/ADC_SAR_Seq_1.c **** *  customizer of the component placed onto schematic. Usually called in
  82:Generated_Source\PSoC4/ADC_SAR_Seq_1.c **** *  ADC_SAR_Seq_1_Start().
  83:Generated_Source\PSoC4/ADC_SAR_Seq_1.c **** *
  84:Generated_Source\PSoC4/ADC_SAR_Seq_1.c **** * Parameters:
  85:Generated_Source\PSoC4/ADC_SAR_Seq_1.c **** *  None.
  86:Generated_Source\PSoC4/ADC_SAR_Seq_1.c **** *
  87:Generated_Source\PSoC4/ADC_SAR_Seq_1.c **** * Return:
  88:Generated_Source\PSoC4/ADC_SAR_Seq_1.c **** *  None.
  89:Generated_Source\PSoC4/ADC_SAR_Seq_1.c **** *
  90:Generated_Source\PSoC4/ADC_SAR_Seq_1.c **** * Global variables:
ARM GAS  C:\Users\GREG~1.PHI\AppData\Local\Temp\cce7Q4Hg.s 			page 4


  91:Generated_Source\PSoC4/ADC_SAR_Seq_1.c **** *  The ADC_SAR_Seq_1_offset variable is initialized.
  92:Generated_Source\PSoC4/ADC_SAR_Seq_1.c **** *
  93:Generated_Source\PSoC4/ADC_SAR_Seq_1.c **** *******************************************************************************/
  94:Generated_Source\PSoC4/ADC_SAR_Seq_1.c **** void ADC_SAR_Seq_1_Init(void)
  95:Generated_Source\PSoC4/ADC_SAR_Seq_1.c **** {
  82              		.loc 1 95 0
  83              		.cfi_startproc
  84 0000 80B5     		push	{r7, lr}
  85              		.cfi_def_cfa_offset 8
  86              		.cfi_offset 7, -8
  87              		.cfi_offset 14, -4
  88 0002 84B0     		sub	sp, sp, #16
  89              		.cfi_def_cfa_offset 24
  90 0004 00AF     		add	r7, sp, #0
  91              		.cfi_def_cfa_register 7
  96:Generated_Source\PSoC4/ADC_SAR_Seq_1.c ****     uint32 chNum;
  97:Generated_Source\PSoC4/ADC_SAR_Seq_1.c ****     uint32 tmpRegVal;
  98:Generated_Source\PSoC4/ADC_SAR_Seq_1.c ****     int32 counts;
  99:Generated_Source\PSoC4/ADC_SAR_Seq_1.c **** 
 100:Generated_Source\PSoC4/ADC_SAR_Seq_1.c ****     #if(ADC_SAR_Seq_1_TOTAL_CHANNELS_NUM > 1u)
 101:Generated_Source\PSoC4/ADC_SAR_Seq_1.c ****         static const uint8 CYCODE ADC_SAR_Seq_1_InputsPlacement[] =
 102:Generated_Source\PSoC4/ADC_SAR_Seq_1.c ****         {
 103:Generated_Source\PSoC4/ADC_SAR_Seq_1.c ****             (uint8)(ADC_SAR_Seq_1_cy_psoc4_sarmux_8__CH_0_PORT << 4u) |
 104:Generated_Source\PSoC4/ADC_SAR_Seq_1.c ****             (uint8)ADC_SAR_Seq_1_cy_psoc4_sarmux_8__CH_0_PIN
 105:Generated_Source\PSoC4/ADC_SAR_Seq_1.c ****             ,(uint8)(ADC_SAR_Seq_1_cy_psoc4_sarmux_8__CH_1_PORT << 4u) |
 106:Generated_Source\PSoC4/ADC_SAR_Seq_1.c ****              (uint8)ADC_SAR_Seq_1_cy_psoc4_sarmux_8__CH_1_PIN
 107:Generated_Source\PSoC4/ADC_SAR_Seq_1.c ****             #if(ADC_SAR_Seq_1_TOTAL_CHANNELS_NUM > 2u)
 108:Generated_Source\PSoC4/ADC_SAR_Seq_1.c ****                 ,(uint8)(ADC_SAR_Seq_1_cy_psoc4_sarmux_8__CH_2_PORT << 4u) |
 109:Generated_Source\PSoC4/ADC_SAR_Seq_1.c ****                  (uint8)ADC_SAR_Seq_1_cy_psoc4_sarmux_8__CH_2_PIN
 110:Generated_Source\PSoC4/ADC_SAR_Seq_1.c ****             #endif /* End ADC_SAR_Seq_1_TOTAL_CHANNELS_NUM > 2u */
 111:Generated_Source\PSoC4/ADC_SAR_Seq_1.c ****             #if(ADC_SAR_Seq_1_TOTAL_CHANNELS_NUM > 3u)
 112:Generated_Source\PSoC4/ADC_SAR_Seq_1.c ****                 ,(uint8)(ADC_SAR_Seq_1_cy_psoc4_sarmux_8__CH_3_PORT << 4u) |
 113:Generated_Source\PSoC4/ADC_SAR_Seq_1.c ****                  (uint8)ADC_SAR_Seq_1_cy_psoc4_sarmux_8__CH_3_PIN
 114:Generated_Source\PSoC4/ADC_SAR_Seq_1.c ****             #endif /* End ADC_SAR_Seq_1_TOTAL_CHANNELS_NUM > 3u */
 115:Generated_Source\PSoC4/ADC_SAR_Seq_1.c ****             #if(ADC_SAR_Seq_1_TOTAL_CHANNELS_NUM > 4u)
 116:Generated_Source\PSoC4/ADC_SAR_Seq_1.c ****                 ,(uint8)(ADC_SAR_Seq_1_cy_psoc4_sarmux_8__CH_4_PORT << 4u) |
 117:Generated_Source\PSoC4/ADC_SAR_Seq_1.c ****                  (uint8)ADC_SAR_Seq_1_cy_psoc4_sarmux_8__CH_4_PIN
 118:Generated_Source\PSoC4/ADC_SAR_Seq_1.c ****             #endif /* End ADC_SAR_Seq_1_TOTAL_CHANNELS_NUM > 4u */
 119:Generated_Source\PSoC4/ADC_SAR_Seq_1.c ****             #if(ADC_SAR_Seq_1_TOTAL_CHANNELS_NUM > 5u)
 120:Generated_Source\PSoC4/ADC_SAR_Seq_1.c ****                 ,(uint8)(ADC_SAR_Seq_1_cy_psoc4_sarmux_8__CH_5_PORT << 4u) |
 121:Generated_Source\PSoC4/ADC_SAR_Seq_1.c ****                  (uint8)ADC_SAR_Seq_1_cy_psoc4_sarmux_8__CH_5_PIN
 122:Generated_Source\PSoC4/ADC_SAR_Seq_1.c ****             #endif /* End ADC_SAR_Seq_1_TOTAL_CHANNELS_NUM > 5u */
 123:Generated_Source\PSoC4/ADC_SAR_Seq_1.c ****             #if(ADC_SAR_Seq_1_TOTAL_CHANNELS_NUM > 6u)
 124:Generated_Source\PSoC4/ADC_SAR_Seq_1.c ****                 ,(uint8)(ADC_SAR_Seq_1_cy_psoc4_sarmux_8__CH_6_PORT << 4u) |
 125:Generated_Source\PSoC4/ADC_SAR_Seq_1.c ****                  (uint8)ADC_SAR_Seq_1_cy_psoc4_sarmux_8__CH_6_PIN
 126:Generated_Source\PSoC4/ADC_SAR_Seq_1.c ****             #endif /* End ADC_SAR_Seq_1_TOTAL_CHANNELS_NUM > 6u */
 127:Generated_Source\PSoC4/ADC_SAR_Seq_1.c ****             #if(ADC_SAR_Seq_1_TOTAL_CHANNELS_NUM > 7u)
 128:Generated_Source\PSoC4/ADC_SAR_Seq_1.c ****                 ,(uint8)(ADC_SAR_Seq_1_cy_psoc4_sarmux_8__CH_7_PORT << 4u) |
 129:Generated_Source\PSoC4/ADC_SAR_Seq_1.c ****                  (uint8)ADC_SAR_Seq_1_cy_psoc4_sarmux_8__CH_7_PIN
 130:Generated_Source\PSoC4/ADC_SAR_Seq_1.c ****             #endif /* End ADC_SAR_Seq_1_TOTAL_CHANNELS_NUM > 7u */
 131:Generated_Source\PSoC4/ADC_SAR_Seq_1.c ****             #if(ADC_SAR_Seq_1_TOTAL_CHANNELS_NUM > 8u)
 132:Generated_Source\PSoC4/ADC_SAR_Seq_1.c ****                 ,(uint8)(ADC_SAR_Seq_1_cy_psoc4_sarmux_8__CH_8_PORT << 4u) |
 133:Generated_Source\PSoC4/ADC_SAR_Seq_1.c ****                  (uint8)ADC_SAR_Seq_1_cy_psoc4_sarmux_8__CH_8_PIN
 134:Generated_Source\PSoC4/ADC_SAR_Seq_1.c ****             #endif /* End ADC_SAR_Seq_1_TOTAL_CHANNELS_NUM > 8u */
 135:Generated_Source\PSoC4/ADC_SAR_Seq_1.c ****             #if(ADC_SAR_Seq_1_TOTAL_CHANNELS_NUM > 9u)
 136:Generated_Source\PSoC4/ADC_SAR_Seq_1.c ****                 ,(uint8)(ADC_SAR_Seq_1_cy_psoc4_sarmux_8__CH_9_PORT << 4u) |
 137:Generated_Source\PSoC4/ADC_SAR_Seq_1.c ****                  (uint8)ADC_SAR_Seq_1_cy_psoc4_sarmux_8__CH_9_PIN
ARM GAS  C:\Users\GREG~1.PHI\AppData\Local\Temp\cce7Q4Hg.s 			page 5


 138:Generated_Source\PSoC4/ADC_SAR_Seq_1.c ****             #endif /* End ADC_SAR_Seq_1_TOTAL_CHANNELS_NUM > 9u */
 139:Generated_Source\PSoC4/ADC_SAR_Seq_1.c ****             #if(ADC_SAR_Seq_1_TOTAL_CHANNELS_NUM > 10u)
 140:Generated_Source\PSoC4/ADC_SAR_Seq_1.c ****                 ,(uint8)(ADC_SAR_Seq_1_cy_psoc4_sarmux_8__CH_10_PORT << 4u) |
 141:Generated_Source\PSoC4/ADC_SAR_Seq_1.c ****                  (uint8)ADC_SAR_Seq_1_cy_psoc4_sarmux_8__CH_10_PIN
 142:Generated_Source\PSoC4/ADC_SAR_Seq_1.c ****             #endif /* End ADC_SAR_Seq_1_TOTAL_CHANNELS_NUM > 10u */
 143:Generated_Source\PSoC4/ADC_SAR_Seq_1.c ****             #if(ADC_SAR_Seq_1_TOTAL_CHANNELS_NUM > 11u)
 144:Generated_Source\PSoC4/ADC_SAR_Seq_1.c ****                 ,(uint8)(ADC_SAR_Seq_1_cy_psoc4_sarmux_8__CH_11_PORT << 4u) |
 145:Generated_Source\PSoC4/ADC_SAR_Seq_1.c ****                  (uint8)ADC_SAR_Seq_1_cy_psoc4_sarmux_8__CH_11_PIN
 146:Generated_Source\PSoC4/ADC_SAR_Seq_1.c ****             #endif /* End ADC_SAR_Seq_1_TOTAL_CHANNELS_NUM > 11u */
 147:Generated_Source\PSoC4/ADC_SAR_Seq_1.c ****             #if(ADC_SAR_Seq_1_TOTAL_CHANNELS_NUM > 12u)
 148:Generated_Source\PSoC4/ADC_SAR_Seq_1.c ****                 ,(uint8)(ADC_SAR_Seq_1_cy_psoc4_sarmux_8__CH_12_PORT << 4u) |
 149:Generated_Source\PSoC4/ADC_SAR_Seq_1.c ****                  (uint8)ADC_SAR_Seq_1_cy_psoc4_sarmux_8__CH_12_PIN
 150:Generated_Source\PSoC4/ADC_SAR_Seq_1.c ****             #endif /* End ADC_SAR_Seq_1_TOTAL_CHANNELS_NUM > 12u */
 151:Generated_Source\PSoC4/ADC_SAR_Seq_1.c ****             #if(ADC_SAR_Seq_1_TOTAL_CHANNELS_NUM > 13u)
 152:Generated_Source\PSoC4/ADC_SAR_Seq_1.c ****                 ,(uint8)(ADC_SAR_Seq_1_cy_psoc4_sarmux_8__CH_13_PORT << 4u) |
 153:Generated_Source\PSoC4/ADC_SAR_Seq_1.c ****                  (uint8)ADC_SAR_Seq_1_cy_psoc4_sarmux_8__CH_13_PIN
 154:Generated_Source\PSoC4/ADC_SAR_Seq_1.c ****             #endif /* End ADC_SAR_Seq_1_TOTAL_CHANNELS_NUM > 13u */
 155:Generated_Source\PSoC4/ADC_SAR_Seq_1.c ****             #if(ADC_SAR_Seq_1_TOTAL_CHANNELS_NUM > 14u)
 156:Generated_Source\PSoC4/ADC_SAR_Seq_1.c ****                 ,(uint8)(ADC_SAR_Seq_1_cy_psoc4_sarmux_8__CH_14_PORT << 4u) |
 157:Generated_Source\PSoC4/ADC_SAR_Seq_1.c ****                  (uint8)ADC_SAR_Seq_1_cy_psoc4_sarmux_8__CH_14_PIN
 158:Generated_Source\PSoC4/ADC_SAR_Seq_1.c ****             #endif /* End ADC_SAR_Seq_1_TOTAL_CHANNELS_NUM > 14u */
 159:Generated_Source\PSoC4/ADC_SAR_Seq_1.c ****             #if(ADC_SAR_Seq_1_TOTAL_CHANNELS_NUM > 15u)
 160:Generated_Source\PSoC4/ADC_SAR_Seq_1.c ****                 ,(uint8)(ADC_SAR_Seq_1_cy_psoc4_sarmux_8__CH_15_PORT << 4u) |
 161:Generated_Source\PSoC4/ADC_SAR_Seq_1.c ****                  (uint8)ADC_SAR_Seq_1_cy_psoc4_sarmux_8__CH_15_PIN
 162:Generated_Source\PSoC4/ADC_SAR_Seq_1.c ****             #endif /* End ADC_SAR_Seq_1_TOTAL_CHANNELS_NUM > 15u */
 163:Generated_Source\PSoC4/ADC_SAR_Seq_1.c ****             #if(ADC_SAR_Seq_1_TOTAL_CHANNELS_NUM > 16u)
 164:Generated_Source\PSoC4/ADC_SAR_Seq_1.c ****                 ,(uint8)(ADC_SAR_Seq_1_cy_psoc4_sarmux_8__CH_16_PORT << 4u) |
 165:Generated_Source\PSoC4/ADC_SAR_Seq_1.c ****                  (uint8)ADC_SAR_Seq_1_cy_psoc4_sarmux_8__CH_16_PIN
 166:Generated_Source\PSoC4/ADC_SAR_Seq_1.c ****             #endif /* End ADC_SAR_Seq_1_TOTAL_CHANNELS_NUM > 16u */
 167:Generated_Source\PSoC4/ADC_SAR_Seq_1.c ****         };
 168:Generated_Source\PSoC4/ADC_SAR_Seq_1.c ****     #endif /* End ADC_SAR_Seq_1_TOTAL_CHANNELS_NUM > 1u */
 169:Generated_Source\PSoC4/ADC_SAR_Seq_1.c **** 
 170:Generated_Source\PSoC4/ADC_SAR_Seq_1.c ****     #if(ADC_SAR_Seq_1_IRQ_REMOVE == 0u)
 171:Generated_Source\PSoC4/ADC_SAR_Seq_1.c ****         /* Start and set interrupt vector */
 172:Generated_Source\PSoC4/ADC_SAR_Seq_1.c ****         CyIntSetPriority(ADC_SAR_Seq_1_INTC_NUMBER, ADC_SAR_Seq_1_INTC_PRIOR_NUMBER);
  92              		.loc 1 172 0
  93 0006 1120     		mov	r0, #17
  94 0008 0321     		mov	r1, #3
  95 000a FFF7FEFF 		bl	CyIntSetPriority
 173:Generated_Source\PSoC4/ADC_SAR_Seq_1.c ****         (void)CyIntSetVector(ADC_SAR_Seq_1_INTC_NUMBER, &ADC_SAR_Seq_1_ISR);
  96              		.loc 1 173 0
  97 000e 634B     		ldr	r3, .L17
  98 0010 1120     		mov	r0, #17
  99 0012 191C     		mov	r1, r3
 100 0014 FFF7FEFF 		bl	CyIntSetVector
 174:Generated_Source\PSoC4/ADC_SAR_Seq_1.c ****     #endif   /* End ADC_SAR_Seq_1_IRQ_REMOVE */
 175:Generated_Source\PSoC4/ADC_SAR_Seq_1.c **** 
 176:Generated_Source\PSoC4/ADC_SAR_Seq_1.c ****     /* Init SAR and MUX registers */
 177:Generated_Source\PSoC4/ADC_SAR_Seq_1.c ****     ADC_SAR_Seq_1_SAR_CHAN_EN_REG = ADC_SAR_Seq_1_DEFAULT_EN_CHANNELS;
 101              		.loc 1 177 0
 102 0018 614B     		ldr	r3, .L17+4
 103 001a 0322     		mov	r2, #3
 104 001c 1A60     		str	r2, [r3]
 178:Generated_Source\PSoC4/ADC_SAR_Seq_1.c ****     ADC_SAR_Seq_1_SAR_CTRL_REG |= ADC_SAR_Seq_1_DEFAULT_CTRL_REG_CFG | 
 179:Generated_Source\PSoC4/ADC_SAR_Seq_1.c ****         /* Enable the SAR internal pump when global pump is enabled */
 180:Generated_Source\PSoC4/ADC_SAR_Seq_1.c ****         (((ADC_SAR_Seq_1_PUMP_CTRL_REG & ADC_SAR_Seq_1_PUMP_CTRL_ENABLED) != 0u) ? 
 105              		.loc 1 180 0
ARM GAS  C:\Users\GREG~1.PHI\AppData\Local\Temp\cce7Q4Hg.s 			page 6


 106 001e 614B     		ldr	r3, .L17+8
 107 0020 1B68     		ldr	r3, [r3]
 178:Generated_Source\PSoC4/ADC_SAR_Seq_1.c ****     ADC_SAR_Seq_1_SAR_CTRL_REG |= ADC_SAR_Seq_1_DEFAULT_CTRL_REG_CFG | 
 108              		.loc 1 178 0
 109 0022 002B     		cmp	r3, #0
 110 0024 01DA     		bge	.L6
 178:Generated_Source\PSoC4/ADC_SAR_Seq_1.c ****     ADC_SAR_Seq_1_SAR_CTRL_REG |= ADC_SAR_Seq_1_DEFAULT_CTRL_REG_CFG | 
 111              		.loc 1 178 0 is_stmt 0 discriminator 1
 112 0026 6049     		ldr	r1, .L17+12
 113 0028 00E0     		b	.L7
 114              	.L6:
 178:Generated_Source\PSoC4/ADC_SAR_Seq_1.c ****     ADC_SAR_Seq_1_SAR_CTRL_REG |= ADC_SAR_Seq_1_DEFAULT_CTRL_REG_CFG | 
 115              		.loc 1 178 0 discriminator 2
 116 002a 6049     		ldr	r1, .L17+16
 117              	.L7:
 178:Generated_Source\PSoC4/ADC_SAR_Seq_1.c ****     ADC_SAR_Seq_1_SAR_CTRL_REG |= ADC_SAR_Seq_1_DEFAULT_CTRL_REG_CFG | 
 118              		.loc 1 178 0 discriminator 4
 119 002c 604B     		ldr	r3, .L17+20
 120 002e 604A     		ldr	r2, .L17+20
 121 0030 1268     		ldr	r2, [r2]
 122 0032 0A43     		orr	r2, r1
 123 0034 1A60     		str	r2, [r3]
 181:Generated_Source\PSoC4/ADC_SAR_Seq_1.c ****         ADC_SAR_Seq_1_BOOSTPUMP_EN : 0u);
 182:Generated_Source\PSoC4/ADC_SAR_Seq_1.c ****     ADC_SAR_Seq_1_SAR_SAMPLE_CTRL_REG = ADC_SAR_Seq_1_DEFAULT_SAMPLE_CTRL_REG_CFG;
 124              		.loc 1 182 0 is_stmt 1 discriminator 4
 125 0036 5F4B     		ldr	r3, .L17+24
 126 0038 5F4A     		ldr	r2, .L17+28
 127 003a 1A60     		str	r2, [r3]
 183:Generated_Source\PSoC4/ADC_SAR_Seq_1.c ****     ADC_SAR_Seq_1_SAR_RANGE_THRES_REG = ADC_SAR_Seq_1_DEFAULT_RANGE_THRES_REG_CFG;
 128              		.loc 1 183 0 discriminator 4
 129 003c 5F4B     		ldr	r3, .L17+32
 130 003e 604A     		ldr	r2, .L17+36
 131 0040 1A60     		str	r2, [r3]
 184:Generated_Source\PSoC4/ADC_SAR_Seq_1.c ****     ADC_SAR_Seq_1_SAR_RANGE_COND_REG  = ADC_SAR_Seq_1_COMPARE_MODE;
 132              		.loc 1 184 0 discriminator 4
 133 0042 604B     		ldr	r3, .L17+40
 134 0044 0022     		mov	r2, #0
 135 0046 1A60     		str	r2, [r3]
 185:Generated_Source\PSoC4/ADC_SAR_Seq_1.c ****     ADC_SAR_Seq_1_SAR_SAMPLE_TIME01_REG = ADC_SAR_Seq_1_DEFAULT_SAMPLE_TIME01_REG_CFG;
 136              		.loc 1 185 0 discriminator 4
 137 0048 5F4B     		ldr	r3, .L17+44
 138 004a 604A     		ldr	r2, .L17+48
 139 004c 1A60     		str	r2, [r3]
 186:Generated_Source\PSoC4/ADC_SAR_Seq_1.c ****     ADC_SAR_Seq_1_SAR_SAMPLE_TIME23_REG = ADC_SAR_Seq_1_DEFAULT_SAMPLE_TIME23_REG_CFG;
 140              		.loc 1 186 0 discriminator 4
 141 004e 604B     		ldr	r3, .L17+52
 142 0050 5E4A     		ldr	r2, .L17+48
 143 0052 1A60     		str	r2, [r3]
 187:Generated_Source\PSoC4/ADC_SAR_Seq_1.c ****     
 188:Generated_Source\PSoC4/ADC_SAR_Seq_1.c ****     /* Connect Vm to VSSA when even one channel is single-ended or multiple channels configured */
 189:Generated_Source\PSoC4/ADC_SAR_Seq_1.c ****     #if(ADC_SAR_Seq_1_DEFAULT_MUX_SWITCH0 != 0u)
 190:Generated_Source\PSoC4/ADC_SAR_Seq_1.c ****         ADC_SAR_Seq_1_MUX_SWITCH0_REG |= ADC_SAR_Seq_1_DEFAULT_MUX_SWITCH0;
 144              		.loc 1 190 0 discriminator 4
 145 0054 5F4B     		ldr	r3, .L17+56
 146 0056 5F4A     		ldr	r2, .L17+56
 147 0058 1268     		ldr	r2, [r2]
 148 005a 8021     		mov	r1, #128
ARM GAS  C:\Users\GREG~1.PHI\AppData\Local\Temp\cce7Q4Hg.s 			page 7


 149 005c 4902     		lsl	r1, r1, #9
 150 005e 0A43     		orr	r2, r1
 151 0060 1A60     		str	r2, [r3]
 191:Generated_Source\PSoC4/ADC_SAR_Seq_1.c ****         /* Set MUX_HW_CTRL_VSSA in MUX_SWITCH_HW_CTRL when multiple channels enabled */
 192:Generated_Source\PSoC4/ADC_SAR_Seq_1.c ****         #if(ADC_SAR_Seq_1_TOTAL_CHANNELS_NUM > 1u)
 193:Generated_Source\PSoC4/ADC_SAR_Seq_1.c ****             ADC_SAR_Seq_1_MUX_SWITCH_HW_CTRL_REG |= ADC_SAR_Seq_1_DEFAULT_MUX_SWITCH0;
 152              		.loc 1 193 0 discriminator 4
 153 0062 5D4B     		ldr	r3, .L17+60
 154 0064 5C4A     		ldr	r2, .L17+60
 155 0066 1268     		ldr	r2, [r2]
 156 0068 8021     		mov	r1, #128
 157 006a 4902     		lsl	r1, r1, #9
 158 006c 0A43     		orr	r2, r1
 159 006e 1A60     		str	r2, [r3]
 194:Generated_Source\PSoC4/ADC_SAR_Seq_1.c ****         #endif /* ADC_SAR_Seq_1_TOTAL_CHANNELS_NUM > 1u */
 195:Generated_Source\PSoC4/ADC_SAR_Seq_1.c ****     #endif /*ADC_SAR_Seq_1_CHANNELS_MODE !=0 */
 196:Generated_Source\PSoC4/ADC_SAR_Seq_1.c **** 
 197:Generated_Source\PSoC4/ADC_SAR_Seq_1.c ****     ADC_SAR_Seq_1_SAR_SATURATE_INTR_MASK_REG = 0u;
 160              		.loc 1 197 0 discriminator 4
 161 0070 5A4B     		ldr	r3, .L17+64
 162 0072 0022     		mov	r2, #0
 163 0074 1A60     		str	r2, [r3]
 198:Generated_Source\PSoC4/ADC_SAR_Seq_1.c ****     ADC_SAR_Seq_1_SAR_RANGE_INTR_MASK_REG = 0u;
 164              		.loc 1 198 0 discriminator 4
 165 0076 5A4B     		ldr	r3, .L17+68
 166 0078 0022     		mov	r2, #0
 167 007a 1A60     		str	r2, [r3]
 199:Generated_Source\PSoC4/ADC_SAR_Seq_1.c ****     ADC_SAR_Seq_1_SAR_INTR_MASK_REG = ADC_SAR_Seq_1_SAR_INTR_MASK;
 168              		.loc 1 199 0 discriminator 4
 169 007c 594B     		ldr	r3, .L17+72
 170 007e 0122     		mov	r2, #1
 171 0080 1A60     		str	r2, [r3]
 200:Generated_Source\PSoC4/ADC_SAR_Seq_1.c **** 
 201:Generated_Source\PSoC4/ADC_SAR_Seq_1.c ****     #if(ADC_SAR_Seq_1_CY_SAR_IP_VER == ADC_SAR_Seq_1_CY_SAR_IP_VER0)
 202:Generated_Source\PSoC4/ADC_SAR_Seq_1.c ****         ADC_SAR_Seq_1_ANA_TRIM_REG = ADC_SAR_Seq_1_TRIM_COEF;
 203:Generated_Source\PSoC4/ADC_SAR_Seq_1.c ****     #endif /* (ADC_SAR_Seq_1_CY_SAR_IP_VER == ADC_SAR_Seq_1_CY_SAR_IP_VER0) */
 204:Generated_Source\PSoC4/ADC_SAR_Seq_1.c **** 
 205:Generated_Source\PSoC4/ADC_SAR_Seq_1.c ****     /* Read and modify default configuration based on characterization */
 206:Generated_Source\PSoC4/ADC_SAR_Seq_1.c ****     tmpRegVal = ADC_SAR_Seq_1_SAR_DFT_CTRL_REG;
 172              		.loc 1 206 0 discriminator 4
 173 0082 594B     		ldr	r3, .L17+76
 174 0084 1B68     		ldr	r3, [r3]
 175 0086 7B60     		str	r3, [r7, #4]
 207:Generated_Source\PSoC4/ADC_SAR_Seq_1.c ****     tmpRegVal &= (uint32)~ADC_SAR_Seq_1_DCEN;
 176              		.loc 1 207 0 discriminator 4
 177 0088 7B68     		ldr	r3, [r7, #4]
 178 008a 584A     		ldr	r2, .L17+80
 179 008c 1340     		and	r3, r2
 180 008e 7B60     		str	r3, [r7, #4]
 208:Generated_Source\PSoC4/ADC_SAR_Seq_1.c ****     
 209:Generated_Source\PSoC4/ADC_SAR_Seq_1.c ****     #if(ADC_SAR_Seq_1_CY_SAR_IP_VER == ADC_SAR_Seq_1_CY_SAR_IP_VER0)
 210:Generated_Source\PSoC4/ADC_SAR_Seq_1.c ****         #if(ADC_SAR_Seq_1_NOMINAL_CLOCK_FREQ > (ADC_SAR_Seq_1_MAX_FREQUENCY / 2))
 211:Generated_Source\PSoC4/ADC_SAR_Seq_1.c ****             tmpRegVal |= ADC_SAR_Seq_1_SEL_CSEL_DFT_CHAR;
 212:Generated_Source\PSoC4/ADC_SAR_Seq_1.c ****         #else  /* clock speed < 9 Mhz */
 213:Generated_Source\PSoC4/ADC_SAR_Seq_1.c ****             tmpRegVal |= ADC_SAR_Seq_1_DLY_INC;
 214:Generated_Source\PSoC4/ADC_SAR_Seq_1.c ****         #endif /* clock speed > 9 Mhz */
 215:Generated_Source\PSoC4/ADC_SAR_Seq_1.c ****     #else
ARM GAS  C:\Users\GREG~1.PHI\AppData\Local\Temp\cce7Q4Hg.s 			page 8


 216:Generated_Source\PSoC4/ADC_SAR_Seq_1.c ****         #if ((ADC_SAR_Seq_1_DEFAULT_VREF_SEL == ADC_SAR_Seq_1__INTERNAL1024) || \
 217:Generated_Source\PSoC4/ADC_SAR_Seq_1.c ****              (ADC_SAR_Seq_1_DEFAULT_VREF_SEL == ADC_SAR_Seq_1__INTERNALVREF))
 218:Generated_Source\PSoC4/ADC_SAR_Seq_1.c ****             tmpRegVal |= ADC_SAR_Seq_1_DLY_INC;
 219:Generated_Source\PSoC4/ADC_SAR_Seq_1.c ****         #else
 220:Generated_Source\PSoC4/ADC_SAR_Seq_1.c ****             tmpRegVal |= ADC_SAR_Seq_1_DCEN;
 181              		.loc 1 220 0 discriminator 4
 182 0090 7B68     		ldr	r3, [r7, #4]
 183 0092 8022     		mov	r2, #128
 184 0094 9205     		lsl	r2, r2, #22
 185 0096 1343     		orr	r3, r2
 186 0098 7B60     		str	r3, [r7, #4]
 221:Generated_Source\PSoC4/ADC_SAR_Seq_1.c ****             tmpRegVal &= (uint32)~ADC_SAR_Seq_1_DLY_INC;
 187              		.loc 1 221 0 discriminator 4
 188 009a 7B68     		ldr	r3, [r7, #4]
 189 009c 0122     		mov	r2, #1
 190 009e 9343     		bic	r3, r2
 191 00a0 7B60     		str	r3, [r7, #4]
 222:Generated_Source\PSoC4/ADC_SAR_Seq_1.c ****         #endif /* ((ADC_SAR_Seq_1_DEFAULT_VREF_SEL == ADC_SAR_Seq_1__INTERNAL1024) || \
 223:Generated_Source\PSoC4/ADC_SAR_Seq_1.c ****                    (ADC_SAR_Seq_1_DEFAULT_VREF_SEL == ADC_SAR_Seq_1__INTERNALVREF)) */
 224:Generated_Source\PSoC4/ADC_SAR_Seq_1.c ****     #endif /* (ADC_SAR_Seq_1_CY_SAR_IP_VER == ADC_SAR_Seq_1_CY_SAR_IP_VER0) */
 225:Generated_Source\PSoC4/ADC_SAR_Seq_1.c ****     
 226:Generated_Source\PSoC4/ADC_SAR_Seq_1.c ****     ADC_SAR_Seq_1_SAR_DFT_CTRL_REG = tmpRegVal;
 192              		.loc 1 226 0 discriminator 4
 193 00a2 514B     		ldr	r3, .L17+76
 194 00a4 7A68     		ldr	r2, [r7, #4]
 195 00a6 1A60     		str	r2, [r3]
 227:Generated_Source\PSoC4/ADC_SAR_Seq_1.c **** 
 228:Generated_Source\PSoC4/ADC_SAR_Seq_1.c ****     #if(ADC_SAR_Seq_1_MAX_RESOLUTION != ADC_SAR_Seq_1_RESOLUTION_12)
 229:Generated_Source\PSoC4/ADC_SAR_Seq_1.c ****         ADC_SAR_Seq_1_WOUNDING_REG = ADC_SAR_Seq_1_ALT_WOUNDING;
 230:Generated_Source\PSoC4/ADC_SAR_Seq_1.c ****     #endif /* ADC_SAR_Seq_1_MAX_RESOLUTION != ADC_SAR_Seq_1_RESOLUTION_12 */
 231:Generated_Source\PSoC4/ADC_SAR_Seq_1.c **** 
 232:Generated_Source\PSoC4/ADC_SAR_Seq_1.c ****     for(chNum = 0u; chNum < ADC_SAR_Seq_1_TOTAL_CHANNELS_NUM; chNum++)
 196              		.loc 1 232 0 discriminator 4
 197 00a8 0023     		mov	r3, #0
 198 00aa FB60     		str	r3, [r7, #12]
 199 00ac 70E0     		b	.L8
 200              	.L16:
 233:Generated_Source\PSoC4/ADC_SAR_Seq_1.c ****     {
 234:Generated_Source\PSoC4/ADC_SAR_Seq_1.c ****         tmpRegVal = (ADC_SAR_Seq_1_channelsConfig[chNum] & ADC_SAR_Seq_1_CHANNEL_CONFIG_MASK);
 201              		.loc 1 234 0
 202 00ae 504B     		ldr	r3, .L17+84
 203 00b0 FA68     		ldr	r2, [r7, #12]
 204 00b2 9200     		lsl	r2, r2, #2
 205 00b4 D258     		ldr	r2, [r2, r3]
 206 00b6 DC23     		mov	r3, #220
 207 00b8 9B01     		lsl	r3, r3, #6
 208 00ba 1340     		and	r3, r2
 209 00bc 7B60     		str	r3, [r7, #4]
 235:Generated_Source\PSoC4/ADC_SAR_Seq_1.c ****         #if(ADC_SAR_Seq_1_TOTAL_CHANNELS_NUM > 1u)
 236:Generated_Source\PSoC4/ADC_SAR_Seq_1.c ****             tmpRegVal |= ADC_SAR_Seq_1_InputsPlacement[chNum];
 210              		.loc 1 236 0
 211 00be 4D4A     		ldr	r2, .L17+88
 212 00c0 FB68     		ldr	r3, [r7, #12]
 213 00c2 D318     		add	r3, r2, r3
 214 00c4 1B78     		ldrb	r3, [r3]
 215 00c6 1A1C     		mov	r2, r3
 216 00c8 7B68     		ldr	r3, [r7, #4]
ARM GAS  C:\Users\GREG~1.PHI\AppData\Local\Temp\cce7Q4Hg.s 			page 9


 217 00ca 1343     		orr	r3, r2
 218 00cc 7B60     		str	r3, [r7, #4]
 237:Generated_Source\PSoC4/ADC_SAR_Seq_1.c ****         #endif /* End ADC_SAR_Seq_1_TOTAL_CHANNELS_NUM > 1u */
 238:Generated_Source\PSoC4/ADC_SAR_Seq_1.c ****         
 239:Generated_Source\PSoC4/ADC_SAR_Seq_1.c ****         
 240:Generated_Source\PSoC4/ADC_SAR_Seq_1.c ****         /* When the part is limited to 10-bit then the SUB_RESOLUTION bit
 241:Generated_Source\PSoC4/ADC_SAR_Seq_1.c ****         *  will be ignored and the RESOLUTION bit selects between 10-bit
 242:Generated_Source\PSoC4/ADC_SAR_Seq_1.c ****         *  (0) and 8-bit (1) resolution.
 243:Generated_Source\PSoC4/ADC_SAR_Seq_1.c ****         */
 244:Generated_Source\PSoC4/ADC_SAR_Seq_1.c ****         #if((ADC_SAR_Seq_1_MAX_RESOLUTION != ADC_SAR_Seq_1_RESOLUTION_12) && \
 245:Generated_Source\PSoC4/ADC_SAR_Seq_1.c ****             (ADC_SAR_Seq_1_ALT_WOUNDING == ADC_SAR_Seq_1_WOUNDING_10BIT))
 246:Generated_Source\PSoC4/ADC_SAR_Seq_1.c ****             tmpRegVal &= (uint32)(~ADC_SAR_Seq_1_ALT_RESOLUTION_ON);
 247:Generated_Source\PSoC4/ADC_SAR_Seq_1.c ****         #endif /* ADC_SAR_Seq_1_MAX_RESOLUTION != ADC_SAR_Seq_1_RESOLUTION_12 */
 248:Generated_Source\PSoC4/ADC_SAR_Seq_1.c **** 
 249:Generated_Source\PSoC4/ADC_SAR_Seq_1.c ****         #if(ADC_SAR_Seq_1_INJ_CHANNEL_ENABLED)
 250:Generated_Source\PSoC4/ADC_SAR_Seq_1.c ****         if(chNum < ADC_SAR_Seq_1_SEQUENCED_CHANNELS_NUM)
 251:Generated_Source\PSoC4/ADC_SAR_Seq_1.c ****         #endif /* ADC_SAR_Seq_1_INJ_CHANNEL_ENABLED */
 252:Generated_Source\PSoC4/ADC_SAR_Seq_1.c ****         {
 253:Generated_Source\PSoC4/ADC_SAR_Seq_1.c ****             CY_SET_REG32((reg32 *)(ADC_SAR_Seq_1_SAR_CHAN_CONFIG_IND + (uint32)(chNum << 2)), tmpRe
 219              		.loc 1 253 0
 220 00ce FB68     		ldr	r3, [r7, #12]
 221 00d0 9B00     		lsl	r3, r3, #2
 222 00d2 494A     		ldr	r2, .L17+92
 223 00d4 9446     		mov	ip, r2
 224 00d6 6344     		add	r3, r3, ip
 225 00d8 7A68     		ldr	r2, [r7, #4]
 226 00da 1A60     		str	r2, [r3]
 254:Generated_Source\PSoC4/ADC_SAR_Seq_1.c **** 
 255:Generated_Source\PSoC4/ADC_SAR_Seq_1.c ****             if((ADC_SAR_Seq_1_channelsConfig[chNum] & ADC_SAR_Seq_1_IS_SATURATE_EN_MASK) != 0u)
 227              		.loc 1 255 0
 228 00dc 444B     		ldr	r3, .L17+84
 229 00de FA68     		ldr	r2, [r7, #12]
 230 00e0 9200     		lsl	r2, r2, #2
 231 00e2 D358     		ldr	r3, [r2, r3]
 232 00e4 0122     		mov	r2, #1
 233 00e6 1340     		and	r3, r2
 234 00e8 09D0     		beq	.L9
 256:Generated_Source\PSoC4/ADC_SAR_Seq_1.c ****             {
 257:Generated_Source\PSoC4/ADC_SAR_Seq_1.c ****                 ADC_SAR_Seq_1_SAR_SATURATE_INTR_MASK_REG |= (uint16)((uint16)1 << chNum);
 235              		.loc 1 257 0
 236 00ea 3C4B     		ldr	r3, .L17+64
 237 00ec 3B4A     		ldr	r2, .L17+64
 238 00ee 1268     		ldr	r2, [r2]
 239 00f0 F968     		ldr	r1, [r7, #12]
 240 00f2 0120     		mov	r0, #1
 241 00f4 8840     		lsl	r0, r0, r1
 242 00f6 011C     		mov	r1, r0
 243 00f8 89B2     		uxth	r1, r1
 244 00fa 0A43     		orr	r2, r1
 245 00fc 1A60     		str	r2, [r3]
 246              	.L9:
 258:Generated_Source\PSoC4/ADC_SAR_Seq_1.c ****             }
 259:Generated_Source\PSoC4/ADC_SAR_Seq_1.c **** 
 260:Generated_Source\PSoC4/ADC_SAR_Seq_1.c ****             if((ADC_SAR_Seq_1_channelsConfig[chNum] & ADC_SAR_Seq_1_IS_RANGE_CTRL_EN_MASK) != 0u)
 247              		.loc 1 260 0
 248 00fe 3C4B     		ldr	r3, .L17+84
 249 0100 FA68     		ldr	r2, [r7, #12]
ARM GAS  C:\Users\GREG~1.PHI\AppData\Local\Temp\cce7Q4Hg.s 			page 10


 250 0102 9200     		lsl	r2, r2, #2
 251 0104 D358     		ldr	r3, [r2, r3]
 252 0106 0222     		mov	r2, #2
 253 0108 1340     		and	r3, r2
 254 010a 09D0     		beq	.L10
 261:Generated_Source\PSoC4/ADC_SAR_Seq_1.c ****             {
 262:Generated_Source\PSoC4/ADC_SAR_Seq_1.c ****                 ADC_SAR_Seq_1_SAR_RANGE_INTR_MASK_REG |= (uint16)((uint16)1 << chNum);
 255              		.loc 1 262 0
 256 010c 344B     		ldr	r3, .L17+68
 257 010e 344A     		ldr	r2, .L17+68
 258 0110 1268     		ldr	r2, [r2]
 259 0112 F968     		ldr	r1, [r7, #12]
 260 0114 0120     		mov	r0, #1
 261 0116 8840     		lsl	r0, r0, r1
 262 0118 011C     		mov	r1, r0
 263 011a 89B2     		uxth	r1, r1
 264 011c 0A43     		orr	r2, r1
 265 011e 1A60     		str	r2, [r3]
 266              	.L10:
 263:Generated_Source\PSoC4/ADC_SAR_Seq_1.c ****             }
 264:Generated_Source\PSoC4/ADC_SAR_Seq_1.c ****         }
 265:Generated_Source\PSoC4/ADC_SAR_Seq_1.c ****         #if(ADC_SAR_Seq_1_INJ_CHANNEL_ENABLED)
 266:Generated_Source\PSoC4/ADC_SAR_Seq_1.c ****             else
 267:Generated_Source\PSoC4/ADC_SAR_Seq_1.c ****             {
 268:Generated_Source\PSoC4/ADC_SAR_Seq_1.c ****                 CY_SET_REG32(ADC_SAR_Seq_1_SAR_INJ_CHAN_CONFIG_PTR, tmpRegVal | ADC_SAR_Seq_1_INJ_T
 269:Generated_Source\PSoC4/ADC_SAR_Seq_1.c **** 
 270:Generated_Source\PSoC4/ADC_SAR_Seq_1.c ****                 if((ADC_SAR_Seq_1_channelsConfig[chNum] & ADC_SAR_Seq_1_IS_SATURATE_EN_MASK) != 0u)
 271:Generated_Source\PSoC4/ADC_SAR_Seq_1.c ****                 {
 272:Generated_Source\PSoC4/ADC_SAR_Seq_1.c ****                     ADC_SAR_Seq_1_SAR_INTR_MASK_REG |= ADC_SAR_Seq_1_INJ_SATURATE_MASK;
 273:Generated_Source\PSoC4/ADC_SAR_Seq_1.c ****                 }
 274:Generated_Source\PSoC4/ADC_SAR_Seq_1.c **** 
 275:Generated_Source\PSoC4/ADC_SAR_Seq_1.c ****                 if((ADC_SAR_Seq_1_channelsConfig[chNum] & ADC_SAR_Seq_1_IS_RANGE_CTRL_EN_MASK) != 0
 276:Generated_Source\PSoC4/ADC_SAR_Seq_1.c ****                 {
 277:Generated_Source\PSoC4/ADC_SAR_Seq_1.c ****                     ADC_SAR_Seq_1_SAR_INTR_MASK_REG |= ADC_SAR_Seq_1_INJ_RANGE_MASK;
 278:Generated_Source\PSoC4/ADC_SAR_Seq_1.c ****                 }
 279:Generated_Source\PSoC4/ADC_SAR_Seq_1.c ****             }
 280:Generated_Source\PSoC4/ADC_SAR_Seq_1.c ****         #endif /* ADC_SAR_Seq_1_INJ_CHANNEL_ENABLED */
 281:Generated_Source\PSoC4/ADC_SAR_Seq_1.c **** 
 282:Generated_Source\PSoC4/ADC_SAR_Seq_1.c ****         if((ADC_SAR_Seq_1_channelsConfig[chNum] & ADC_SAR_Seq_1_ALT_RESOLUTION_ON) != 0u)
 267              		.loc 1 282 0
 268 0120 334B     		ldr	r3, .L17+84
 269 0122 FA68     		ldr	r2, [r7, #12]
 270 0124 9200     		lsl	r2, r2, #2
 271 0126 D258     		ldr	r2, [r2, r3]
 272 0128 8023     		mov	r3, #128
 273 012a 9B00     		lsl	r3, r3, #2
 274 012c 1340     		and	r3, r2
 275 012e 03D0     		beq	.L11
 283:Generated_Source\PSoC4/ADC_SAR_Seq_1.c ****         {
 284:Generated_Source\PSoC4/ADC_SAR_Seq_1.c ****                counts = (int32)ADC_SAR_Seq_1_DEFAULT_MAX_WRK_ALT;
 276              		.loc 1 284 0
 277 0130 8023     		mov	r3, #128
 278 0132 5B00     		lsl	r3, r3, #1
 279 0134 BB60     		str	r3, [r7, #8]
 280 0136 02E0     		b	.L12
 281              	.L11:
 285:Generated_Source\PSoC4/ADC_SAR_Seq_1.c ****         }
ARM GAS  C:\Users\GREG~1.PHI\AppData\Local\Temp\cce7Q4Hg.s 			page 11


 286:Generated_Source\PSoC4/ADC_SAR_Seq_1.c ****         else
 287:Generated_Source\PSoC4/ADC_SAR_Seq_1.c ****         {
 288:Generated_Source\PSoC4/ADC_SAR_Seq_1.c ****                counts = (int32)ADC_SAR_Seq_1_SAR_WRK_MAX_12BIT;
 282              		.loc 1 288 0
 283 0138 8023     		mov	r3, #128
 284 013a 5B01     		lsl	r3, r3, #5
 285 013c BB60     		str	r3, [r7, #8]
 286              	.L12:
 289:Generated_Source\PSoC4/ADC_SAR_Seq_1.c ****         }
 290:Generated_Source\PSoC4/ADC_SAR_Seq_1.c **** 
 291:Generated_Source\PSoC4/ADC_SAR_Seq_1.c ****         if((ADC_SAR_Seq_1_channelsConfig[chNum] & ADC_SAR_Seq_1_DIFFERENTIAL_EN) == 0u)
 287              		.loc 1 291 0
 288 013e 2C4B     		ldr	r3, .L17+84
 289 0140 FA68     		ldr	r2, [r7, #12]
 290 0142 9200     		lsl	r2, r2, #2
 291 0144 D258     		ldr	r2, [r2, r3]
 292 0146 8023     		mov	r3, #128
 293 0148 5B00     		lsl	r3, r3, #1
 294 014a 1340     		and	r3, r2
 295 014c 05D1     		bne	.L13
 292:Generated_Source\PSoC4/ADC_SAR_Seq_1.c ****         {
 293:Generated_Source\PSoC4/ADC_SAR_Seq_1.c ****             #if((ADC_SAR_Seq_1_DEFAULT_SE_RESULT_FORMAT_SEL == ADC_SAR_Seq_1__FSIGNED) && \
 294:Generated_Source\PSoC4/ADC_SAR_Seq_1.c ****                 (ADC_SAR_Seq_1_DEFAULT_NEG_INPUT_SEL == ADC_SAR_Seq_1__VREF))
 295:Generated_Source\PSoC4/ADC_SAR_Seq_1.c ****                 /* Set offset to the minus half scale to convert results to unsigned format */
 296:Generated_Source\PSoC4/ADC_SAR_Seq_1.c ****                 ADC_SAR_Seq_1_offset[chNum] = (int16)(counts / -2);
 297:Generated_Source\PSoC4/ADC_SAR_Seq_1.c ****             #else
 298:Generated_Source\PSoC4/ADC_SAR_Seq_1.c ****                 ADC_SAR_Seq_1_offset[chNum] = 0;
 296              		.loc 1 298 0
 297 014e 2B4B     		ldr	r3, .L17+96
 298 0150 FA68     		ldr	r2, [r7, #12]
 299 0152 5200     		lsl	r2, r2, #1
 300 0154 0021     		mov	r1, #0
 301 0156 D152     		strh	r1, [r2, r3]
 302 0158 04E0     		b	.L14
 303              	.L13:
 299:Generated_Source\PSoC4/ADC_SAR_Seq_1.c ****             #endif /* end DEFAULT_SE_RESULT_FORMAT_SEL == ADC_SAR_Seq_1__FSIGNED */
 300:Generated_Source\PSoC4/ADC_SAR_Seq_1.c ****         }
 301:Generated_Source\PSoC4/ADC_SAR_Seq_1.c ****         else    /* Differential channel */
 302:Generated_Source\PSoC4/ADC_SAR_Seq_1.c ****         {
 303:Generated_Source\PSoC4/ADC_SAR_Seq_1.c ****             #if(ADC_SAR_Seq_1_DEFAULT_DIFF_RESULT_FORMAT_SEL == ADC_SAR_Seq_1__FUNSIGNED)
 304:Generated_Source\PSoC4/ADC_SAR_Seq_1.c ****                 /* Set offset to the half scale to convert results to signed format */
 305:Generated_Source\PSoC4/ADC_SAR_Seq_1.c ****                 ADC_SAR_Seq_1_offset[chNum] = (int16)(counts / 2);
 306:Generated_Source\PSoC4/ADC_SAR_Seq_1.c ****             #else
 307:Generated_Source\PSoC4/ADC_SAR_Seq_1.c ****                 ADC_SAR_Seq_1_offset[chNum] = 0;
 304              		.loc 1 307 0
 305 015a 284B     		ldr	r3, .L17+96
 306 015c FA68     		ldr	r2, [r7, #12]
 307 015e 5200     		lsl	r2, r2, #1
 308 0160 0021     		mov	r1, #0
 309 0162 D152     		strh	r1, [r2, r3]
 310              	.L14:
 308:Generated_Source\PSoC4/ADC_SAR_Seq_1.c ****             #endif /* end ADC_SAR_Seq_1_DEFAULT_DIFF_RESULT_FORMAT_SEL == ADC_SAR_Seq_1__FUNSIGNED 
 309:Generated_Source\PSoC4/ADC_SAR_Seq_1.c ****         }
 310:Generated_Source\PSoC4/ADC_SAR_Seq_1.c ****         /* Calculate gain in counts per 10 volts with rounding */
 311:Generated_Source\PSoC4/ADC_SAR_Seq_1.c ****         ADC_SAR_Seq_1_countsPer10Volt[chNum] = (int16)(((counts * ADC_SAR_Seq_1_10MV_COUNTS) +
 311              		.loc 1 311 0 discriminator 2
 312 0164 BB68     		ldr	r3, [r7, #8]
ARM GAS  C:\Users\GREG~1.PHI\AppData\Local\Temp\cce7Q4Hg.s 			page 12


 313 0166 264A     		ldr	r2, .L17+100
 314 0168 5343     		mul	r3, r2
 315 016a 8022     		mov	r2, #128
 316 016c D200     		lsl	r2, r2, #3
 317 016e 9446     		mov	ip, r2
 318 0170 6344     		add	r3, r3, ip
 312:Generated_Source\PSoC4/ADC_SAR_Seq_1.c ****                             ADC_SAR_Seq_1_DEFAULT_VREF_MV_VALUE) / (ADC_SAR_Seq_1_DEFAULT_VREF_MV_V
 319              		.loc 1 312 0 discriminator 2
 320 0172 002B     		cmp	r3, #0
 321 0174 02DA     		bge	.L15
 322 0176 234A     		ldr	r2, .L17+104
 323 0178 9446     		mov	ip, r2
 324 017a 6344     		add	r3, r3, ip
 325              	.L15:
 326 017c DB12     		asr	r3, r3, #11
 311:Generated_Source\PSoC4/ADC_SAR_Seq_1.c ****                             ADC_SAR_Seq_1_DEFAULT_VREF_MV_VALUE) / (ADC_SAR_Seq_1_DEFAULT_VREF_MV_V
 327              		.loc 1 311 0 discriminator 2
 328 017e 9BB2     		uxth	r3, r3
 329 0180 19B2     		sxth	r1, r3
 330 0182 214B     		ldr	r3, .L17+108
 331 0184 FA68     		ldr	r2, [r7, #12]
 332 0186 9200     		lsl	r2, r2, #2
 333 0188 D150     		str	r1, [r2, r3]
 232:Generated_Source\PSoC4/ADC_SAR_Seq_1.c ****     {
 334              		.loc 1 232 0 discriminator 2
 335 018a FB68     		ldr	r3, [r7, #12]
 336 018c 0133     		add	r3, r3, #1
 337 018e FB60     		str	r3, [r7, #12]
 338              	.L8:
 232:Generated_Source\PSoC4/ADC_SAR_Seq_1.c ****     {
 339              		.loc 1 232 0 is_stmt 0 discriminator 1
 340 0190 FB68     		ldr	r3, [r7, #12]
 341 0192 012B     		cmp	r3, #1
 342 0194 8BD9     		bls	.L16
 313:Generated_Source\PSoC4/ADC_SAR_Seq_1.c ****     }
 314:Generated_Source\PSoC4/ADC_SAR_Seq_1.c **** }
 343              		.loc 1 314 0 is_stmt 1
 344 0196 BD46     		mov	sp, r7
 345 0198 04B0     		add	sp, sp, #16
 346              		@ sp needed
 347 019a 80BD     		pop	{r7, pc}
 348              	.L18:
 349              		.align	2
 350              	.L17:
 351 019c 00000000 		.word	ADC_SAR_Seq_1_ISR
 352 01a0 20003A40 		.word	1077542944
 353 01a4 80033A40 		.word	1077543808
 354 01a8 C0201010 		.word	269492416
 355 01ac C0200010 		.word	268443840
 356 01b0 00003A40 		.word	1077542912
 357 01b4 04003A40 		.word	1077542916
 358 01b8 8C000080 		.word	-2147483508
 359 01bc 18003A40 		.word	1077542936
 360 01c0 0000FF07 		.word	134152192
 361 01c4 1C003A40 		.word	1077542940
 362 01c8 10003A40 		.word	1077542928
 363 01cc 04000400 		.word	262148
ARM GAS  C:\Users\GREG~1.PHI\AppData\Local\Temp\cce7Q4Hg.s 			page 13


 364 01d0 14003A40 		.word	1077542932
 365 01d4 00033A40 		.word	1077543680
 366 01d8 40033A40 		.word	1077543744
 367 01dc 28023A40 		.word	1077543464
 368 01e0 38023A40 		.word	1077543480
 369 01e4 18023A40 		.word	1077543448
 370 01e8 30003A40 		.word	1077542960
 371 01ec FFFFFFDF 		.word	-536870913
 372 01f0 00000000 		.word	ADC_SAR_Seq_1_channelsConfig
 373 01f4 08000000 		.word	ADC_SAR_Seq_1_InputsPlacement.4852
 374 01f8 80003A40 		.word	1077543040
 375 01fc 00000000 		.word	ADC_SAR_Seq_1_offset
 376 0200 10270000 		.word	10000
 377 0204 FF070000 		.word	2047
 378 0208 00000000 		.word	ADC_SAR_Seq_1_countsPer10Volt
 379              		.cfi_endproc
 380              	.LFE2:
 381              		.size	ADC_SAR_Seq_1_Init, .-ADC_SAR_Seq_1_Init
 382              		.section	.text.ADC_SAR_Seq_1_Enable,"ax",%progbits
 383              		.align	2
 384              		.global	ADC_SAR_Seq_1_Enable
 385              		.code	16
 386              		.thumb_func
 387              		.type	ADC_SAR_Seq_1_Enable, %function
 388              	ADC_SAR_Seq_1_Enable:
 389              	.LFB3:
 315:Generated_Source\PSoC4/ADC_SAR_Seq_1.c **** 
 316:Generated_Source\PSoC4/ADC_SAR_Seq_1.c **** /*******************************************************************************
 317:Generated_Source\PSoC4/ADC_SAR_Seq_1.c **** * Function Name: ADC_SAR_1_Enable
 318:Generated_Source\PSoC4/ADC_SAR_Seq_1.c **** ********************************************************************************
 319:Generated_Source\PSoC4/ADC_SAR_Seq_1.c **** *
 320:Generated_Source\PSoC4/ADC_SAR_Seq_1.c **** * Summary:
 321:Generated_Source\PSoC4/ADC_SAR_Seq_1.c **** *  Enables the clock and analog power for SAR ADC.
 322:Generated_Source\PSoC4/ADC_SAR_Seq_1.c **** *
 323:Generated_Source\PSoC4/ADC_SAR_Seq_1.c **** * Parameters:
 324:Generated_Source\PSoC4/ADC_SAR_Seq_1.c **** *  None.
 325:Generated_Source\PSoC4/ADC_SAR_Seq_1.c **** *
 326:Generated_Source\PSoC4/ADC_SAR_Seq_1.c **** * Return:
 327:Generated_Source\PSoC4/ADC_SAR_Seq_1.c **** *  None.
 328:Generated_Source\PSoC4/ADC_SAR_Seq_1.c **** *
 329:Generated_Source\PSoC4/ADC_SAR_Seq_1.c **** *******************************************************************************/
 330:Generated_Source\PSoC4/ADC_SAR_Seq_1.c **** void ADC_SAR_Seq_1_Enable(void)
 331:Generated_Source\PSoC4/ADC_SAR_Seq_1.c **** {
 390              		.loc 1 331 0
 391              		.cfi_startproc
 392 0000 80B5     		push	{r7, lr}
 393              		.cfi_def_cfa_offset 8
 394              		.cfi_offset 7, -8
 395              		.cfi_offset 14, -4
 396 0002 00AF     		add	r7, sp, #0
 397              		.cfi_def_cfa_register 7
 332:Generated_Source\PSoC4/ADC_SAR_Seq_1.c ****     if (0u == (ADC_SAR_Seq_1_SAR_CTRL_REG & ADC_SAR_Seq_1_ENABLE))
 398              		.loc 1 332 0
 399 0004 0A4B     		ldr	r3, .L22
 400 0006 1B68     		ldr	r3, [r3]
 401 0008 002B     		cmp	r3, #0
 402 000a 0EDB     		blt	.L19
ARM GAS  C:\Users\GREG~1.PHI\AppData\Local\Temp\cce7Q4Hg.s 			page 14


 333:Generated_Source\PSoC4/ADC_SAR_Seq_1.c ****     {
 334:Generated_Source\PSoC4/ADC_SAR_Seq_1.c ****         #if(ADC_SAR_Seq_1_CY_SAR_IP_VER != ADC_SAR_Seq_1_CY_SAR_IP_VER0)
 335:Generated_Source\PSoC4/ADC_SAR_Seq_1.c **** 
 336:Generated_Source\PSoC4/ADC_SAR_Seq_1.c ****             while (0u != (ADC_SAR_Seq_1_SAR_STATUS_REG & ADC_SAR_Seq_1_STATUS_BUSY))
 403              		.loc 1 336 0
 404 000c C046     		mov	r8, r8
 405              	.L21:
 406              		.loc 1 336 0 is_stmt 0 discriminator 1
 407 000e 094B     		ldr	r3, .L22+4
 408 0010 1B68     		ldr	r3, [r3]
 409 0012 002B     		cmp	r3, #0
 410 0014 FBDB     		blt	.L21
 337:Generated_Source\PSoC4/ADC_SAR_Seq_1.c ****             {
 338:Generated_Source\PSoC4/ADC_SAR_Seq_1.c ****                 /* wait for SAR to go idle to avoid deadlock */
 339:Generated_Source\PSoC4/ADC_SAR_Seq_1.c ****             }
 340:Generated_Source\PSoC4/ADC_SAR_Seq_1.c ****         #endif /* (ADC_SAR_Seq_1_CY_SAR_IP_VER != ADC_SAR_Seq_1_CY_SAR_IP_VER0) */
 341:Generated_Source\PSoC4/ADC_SAR_Seq_1.c ****         
 342:Generated_Source\PSoC4/ADC_SAR_Seq_1.c ****         ADC_SAR_Seq_1_SAR_CTRL_REG |= ADC_SAR_Seq_1_ENABLE;
 411              		.loc 1 342 0 is_stmt 1
 412 0016 064B     		ldr	r3, .L22
 413 0018 054A     		ldr	r2, .L22
 414 001a 1268     		ldr	r2, [r2]
 415 001c 8021     		mov	r1, #128
 416 001e 0906     		lsl	r1, r1, #24
 417 0020 0A43     		orr	r2, r1
 418 0022 1A60     		str	r2, [r3]
 343:Generated_Source\PSoC4/ADC_SAR_Seq_1.c ****         
 344:Generated_Source\PSoC4/ADC_SAR_Seq_1.c ****         /* The block is ready to use 10 us after the enable signal is set high. */
 345:Generated_Source\PSoC4/ADC_SAR_Seq_1.c ****         CyDelayUs(ADC_SAR_Seq_1_10US_DELAY);         
 419              		.loc 1 345 0
 420 0024 0A20     		mov	r0, #10
 421 0026 FFF7FEFF 		bl	CyDelayUs
 422              	.L19:
 346:Generated_Source\PSoC4/ADC_SAR_Seq_1.c ****     }
 347:Generated_Source\PSoC4/ADC_SAR_Seq_1.c **** }
 423              		.loc 1 347 0
 424 002a BD46     		mov	sp, r7
 425              		@ sp needed
 426 002c 80BD     		pop	{r7, pc}
 427              	.L23:
 428 002e C046     		.align	2
 429              	.L22:
 430 0030 00003A40 		.word	1077542912
 431 0034 08023A40 		.word	1077543432
 432              		.cfi_endproc
 433              	.LFE3:
 434              		.size	ADC_SAR_Seq_1_Enable, .-ADC_SAR_Seq_1_Enable
 435              		.section	.text.ADC_SAR_Seq_1_Stop,"ax",%progbits
 436              		.align	2
 437              		.global	ADC_SAR_Seq_1_Stop
 438              		.code	16
 439              		.thumb_func
 440              		.type	ADC_SAR_Seq_1_Stop, %function
 441              	ADC_SAR_Seq_1_Stop:
 442              	.LFB4:
 348:Generated_Source\PSoC4/ADC_SAR_Seq_1.c **** 
 349:Generated_Source\PSoC4/ADC_SAR_Seq_1.c **** 
ARM GAS  C:\Users\GREG~1.PHI\AppData\Local\Temp\cce7Q4Hg.s 			page 15


 350:Generated_Source\PSoC4/ADC_SAR_Seq_1.c **** /*******************************************************************************
 351:Generated_Source\PSoC4/ADC_SAR_Seq_1.c **** * Function Name: ADC_SAR_Seq_1_Stop
 352:Generated_Source\PSoC4/ADC_SAR_Seq_1.c **** ********************************************************************************
 353:Generated_Source\PSoC4/ADC_SAR_Seq_1.c **** *
 354:Generated_Source\PSoC4/ADC_SAR_Seq_1.c **** * Summary:
 355:Generated_Source\PSoC4/ADC_SAR_Seq_1.c **** *  This function stops ADC conversions and puts the ADC into its lowest power
 356:Generated_Source\PSoC4/ADC_SAR_Seq_1.c **** *  mode.
 357:Generated_Source\PSoC4/ADC_SAR_Seq_1.c **** *
 358:Generated_Source\PSoC4/ADC_SAR_Seq_1.c **** * Parameters:
 359:Generated_Source\PSoC4/ADC_SAR_Seq_1.c **** *  None.
 360:Generated_Source\PSoC4/ADC_SAR_Seq_1.c **** *
 361:Generated_Source\PSoC4/ADC_SAR_Seq_1.c **** * Return:
 362:Generated_Source\PSoC4/ADC_SAR_Seq_1.c **** *  None.
 363:Generated_Source\PSoC4/ADC_SAR_Seq_1.c **** *
 364:Generated_Source\PSoC4/ADC_SAR_Seq_1.c **** *******************************************************************************/
 365:Generated_Source\PSoC4/ADC_SAR_Seq_1.c **** void ADC_SAR_Seq_1_Stop(void)
 366:Generated_Source\PSoC4/ADC_SAR_Seq_1.c **** {
 443              		.loc 1 366 0
 444              		.cfi_startproc
 445 0000 80B5     		push	{r7, lr}
 446              		.cfi_def_cfa_offset 8
 447              		.cfi_offset 7, -8
 448              		.cfi_offset 14, -4
 449 0002 00AF     		add	r7, sp, #0
 450              		.cfi_def_cfa_register 7
 367:Generated_Source\PSoC4/ADC_SAR_Seq_1.c ****     ADC_SAR_Seq_1_SAR_CTRL_REG &= (uint32)~ADC_SAR_Seq_1_ENABLE;
 451              		.loc 1 367 0
 452 0004 034B     		ldr	r3, .L25
 453 0006 034A     		ldr	r2, .L25
 454 0008 1268     		ldr	r2, [r2]
 455 000a 5200     		lsl	r2, r2, #1
 456 000c 5208     		lsr	r2, r2, #1
 457 000e 1A60     		str	r2, [r3]
 368:Generated_Source\PSoC4/ADC_SAR_Seq_1.c **** }
 458              		.loc 1 368 0
 459 0010 BD46     		mov	sp, r7
 460              		@ sp needed
 461 0012 80BD     		pop	{r7, pc}
 462              	.L26:
 463              		.align	2
 464              	.L25:
 465 0014 00003A40 		.word	1077542912
 466              		.cfi_endproc
 467              	.LFE4:
 468              		.size	ADC_SAR_Seq_1_Stop, .-ADC_SAR_Seq_1_Stop
 469              		.section	.text.ADC_SAR_Seq_1_StartConvert,"ax",%progbits
 470              		.align	2
 471              		.global	ADC_SAR_Seq_1_StartConvert
 472              		.code	16
 473              		.thumb_func
 474              		.type	ADC_SAR_Seq_1_StartConvert, %function
 475              	ADC_SAR_Seq_1_StartConvert:
 476              	.LFB5:
 369:Generated_Source\PSoC4/ADC_SAR_Seq_1.c **** 
 370:Generated_Source\PSoC4/ADC_SAR_Seq_1.c **** 
 371:Generated_Source\PSoC4/ADC_SAR_Seq_1.c **** /*******************************************************************************
 372:Generated_Source\PSoC4/ADC_SAR_Seq_1.c **** * Function Name: ADC_SAR_Seq_1_StartConvert
ARM GAS  C:\Users\GREG~1.PHI\AppData\Local\Temp\cce7Q4Hg.s 			page 16


 373:Generated_Source\PSoC4/ADC_SAR_Seq_1.c **** ********************************************************************************
 374:Generated_Source\PSoC4/ADC_SAR_Seq_1.c **** *
 375:Generated_Source\PSoC4/ADC_SAR_Seq_1.c **** * Summary:
 376:Generated_Source\PSoC4/ADC_SAR_Seq_1.c **** *  Description:
 377:Generated_Source\PSoC4/ADC_SAR_Seq_1.c **** *  For free running mode, this API starts the conversion process and it
 378:Generated_Source\PSoC4/ADC_SAR_Seq_1.c **** *  runs continuously.
 379:Generated_Source\PSoC4/ADC_SAR_Seq_1.c **** *
 380:Generated_Source\PSoC4/ADC_SAR_Seq_1.c **** *  In a triggered mode, this routine triggers every conversion by
 381:Generated_Source\PSoC4/ADC_SAR_Seq_1.c **** *  writing into the FW_TRIGGER bit in SAR_START_CTRL reg. In triggered mode,
 382:Generated_Source\PSoC4/ADC_SAR_Seq_1.c **** *  every conversion has to start by this API.
 383:Generated_Source\PSoC4/ADC_SAR_Seq_1.c **** *
 384:Generated_Source\PSoC4/ADC_SAR_Seq_1.c **** * Parameters:
 385:Generated_Source\PSoC4/ADC_SAR_Seq_1.c **** *  None.
 386:Generated_Source\PSoC4/ADC_SAR_Seq_1.c **** *
 387:Generated_Source\PSoC4/ADC_SAR_Seq_1.c **** * Return:
 388:Generated_Source\PSoC4/ADC_SAR_Seq_1.c **** *  None.
 389:Generated_Source\PSoC4/ADC_SAR_Seq_1.c **** *
 390:Generated_Source\PSoC4/ADC_SAR_Seq_1.c **** *******************************************************************************/
 391:Generated_Source\PSoC4/ADC_SAR_Seq_1.c **** void ADC_SAR_Seq_1_StartConvert(void)
 392:Generated_Source\PSoC4/ADC_SAR_Seq_1.c **** {
 477              		.loc 1 392 0
 478              		.cfi_startproc
 479 0000 80B5     		push	{r7, lr}
 480              		.cfi_def_cfa_offset 8
 481              		.cfi_offset 7, -8
 482              		.cfi_offset 14, -4
 483 0002 00AF     		add	r7, sp, #0
 484              		.cfi_def_cfa_register 7
 393:Generated_Source\PSoC4/ADC_SAR_Seq_1.c ****     #if(ADC_SAR_Seq_1_DEFAULT_SAMPLE_MODE_SEL == ADC_SAR_Seq_1__FREERUNNING)
 394:Generated_Source\PSoC4/ADC_SAR_Seq_1.c ****         ADC_SAR_Seq_1_SAR_SAMPLE_CTRL_REG |= ADC_SAR_Seq_1_CONTINUOUS_EN;
 485              		.loc 1 394 0
 486 0004 044B     		ldr	r3, .L28
 487 0006 044A     		ldr	r2, .L28
 488 0008 1268     		ldr	r2, [r2]
 489 000a 8021     		mov	r1, #128
 490 000c 4902     		lsl	r1, r1, #9
 491 000e 0A43     		orr	r2, r1
 492 0010 1A60     		str	r2, [r3]
 395:Generated_Source\PSoC4/ADC_SAR_Seq_1.c ****     #else /* Firmware trigger */
 396:Generated_Source\PSoC4/ADC_SAR_Seq_1.c ****         ADC_SAR_Seq_1_SAR_START_CTRL_REG = ADC_SAR_Seq_1_FW_TRIGGER;
 397:Generated_Source\PSoC4/ADC_SAR_Seq_1.c ****     #endif /* End ADC_SAR_Seq_1_DEFAULT_SAMPLE_MODE == ADC_SAR_Seq_1__FREERUNNING */
 398:Generated_Source\PSoC4/ADC_SAR_Seq_1.c **** 
 399:Generated_Source\PSoC4/ADC_SAR_Seq_1.c **** }
 493              		.loc 1 399 0
 494 0012 BD46     		mov	sp, r7
 495              		@ sp needed
 496 0014 80BD     		pop	{r7, pc}
 497              	.L29:
 498 0016 C046     		.align	2
 499              	.L28:
 500 0018 04003A40 		.word	1077542916
 501              		.cfi_endproc
 502              	.LFE5:
 503              		.size	ADC_SAR_Seq_1_StartConvert, .-ADC_SAR_Seq_1_StartConvert
 504              		.section	.text.ADC_SAR_Seq_1_StopConvert,"ax",%progbits
 505              		.align	2
 506              		.global	ADC_SAR_Seq_1_StopConvert
ARM GAS  C:\Users\GREG~1.PHI\AppData\Local\Temp\cce7Q4Hg.s 			page 17


 507              		.code	16
 508              		.thumb_func
 509              		.type	ADC_SAR_Seq_1_StopConvert, %function
 510              	ADC_SAR_Seq_1_StopConvert:
 511              	.LFB6:
 400:Generated_Source\PSoC4/ADC_SAR_Seq_1.c **** 
 401:Generated_Source\PSoC4/ADC_SAR_Seq_1.c **** 
 402:Generated_Source\PSoC4/ADC_SAR_Seq_1.c **** /*******************************************************************************
 403:Generated_Source\PSoC4/ADC_SAR_Seq_1.c **** * Function Name: ADC_SAR_Seq_1_StopConvert
 404:Generated_Source\PSoC4/ADC_SAR_Seq_1.c **** ********************************************************************************
 405:Generated_Source\PSoC4/ADC_SAR_Seq_1.c **** *
 406:Generated_Source\PSoC4/ADC_SAR_Seq_1.c **** * Summary:
 407:Generated_Source\PSoC4/ADC_SAR_Seq_1.c **** *  Forces the ADC to stop all conversions.
 408:Generated_Source\PSoC4/ADC_SAR_Seq_1.c **** *
 409:Generated_Source\PSoC4/ADC_SAR_Seq_1.c **** * Parameters:
 410:Generated_Source\PSoC4/ADC_SAR_Seq_1.c **** *  None.
 411:Generated_Source\PSoC4/ADC_SAR_Seq_1.c **** *
 412:Generated_Source\PSoC4/ADC_SAR_Seq_1.c **** * Return:
 413:Generated_Source\PSoC4/ADC_SAR_Seq_1.c **** *  None.
 414:Generated_Source\PSoC4/ADC_SAR_Seq_1.c **** *
 415:Generated_Source\PSoC4/ADC_SAR_Seq_1.c **** *******************************************************************************/
 416:Generated_Source\PSoC4/ADC_SAR_Seq_1.c **** void ADC_SAR_Seq_1_StopConvert(void)
 417:Generated_Source\PSoC4/ADC_SAR_Seq_1.c **** {
 512              		.loc 1 417 0
 513              		.cfi_startproc
 514 0000 80B5     		push	{r7, lr}
 515              		.cfi_def_cfa_offset 8
 516              		.cfi_offset 7, -8
 517              		.cfi_offset 14, -4
 518 0002 00AF     		add	r7, sp, #0
 519              		.cfi_def_cfa_register 7
 418:Generated_Source\PSoC4/ADC_SAR_Seq_1.c ****     #if(ADC_SAR_Seq_1_DEFAULT_SAMPLE_MODE_SEL == ADC_SAR_Seq_1__FREERUNNING)
 419:Generated_Source\PSoC4/ADC_SAR_Seq_1.c ****         ADC_SAR_Seq_1_SAR_SAMPLE_CTRL_REG &= (uint32)(~ADC_SAR_Seq_1_CONTINUOUS_EN);
 520              		.loc 1 419 0
 521 0004 034B     		ldr	r3, .L31
 522 0006 034A     		ldr	r2, .L31
 523 0008 1268     		ldr	r2, [r2]
 524 000a 0349     		ldr	r1, .L31+4
 525 000c 0A40     		and	r2, r1
 526 000e 1A60     		str	r2, [r3]
 420:Generated_Source\PSoC4/ADC_SAR_Seq_1.c ****     #endif /* ADC_SAR_Seq_1_DEFAULT_SAMPLE_MODE == ADC_SAR_Seq_1__FREERUNNING */
 421:Generated_Source\PSoC4/ADC_SAR_Seq_1.c **** }
 527              		.loc 1 421 0
 528 0010 BD46     		mov	sp, r7
 529              		@ sp needed
 530 0012 80BD     		pop	{r7, pc}
 531              	.L32:
 532              		.align	2
 533              	.L31:
 534 0014 04003A40 		.word	1077542916
 535 0018 FFFFFEFF 		.word	-65537
 536              		.cfi_endproc
 537              	.LFE6:
 538              		.size	ADC_SAR_Seq_1_StopConvert, .-ADC_SAR_Seq_1_StopConvert
 539              		.section	.text.ADC_SAR_Seq_1_IsEndConversion,"ax",%progbits
 540              		.align	2
 541              		.global	ADC_SAR_Seq_1_IsEndConversion
ARM GAS  C:\Users\GREG~1.PHI\AppData\Local\Temp\cce7Q4Hg.s 			page 18


 542              		.code	16
 543              		.thumb_func
 544              		.type	ADC_SAR_Seq_1_IsEndConversion, %function
 545              	ADC_SAR_Seq_1_IsEndConversion:
 546              	.LFB7:
 422:Generated_Source\PSoC4/ADC_SAR_Seq_1.c **** 
 423:Generated_Source\PSoC4/ADC_SAR_Seq_1.c **** 
 424:Generated_Source\PSoC4/ADC_SAR_Seq_1.c **** /*******************************************************************************
 425:Generated_Source\PSoC4/ADC_SAR_Seq_1.c **** * Function Name: ADC_SAR_Seq_1_IsEndConversion
 426:Generated_Source\PSoC4/ADC_SAR_Seq_1.c **** ********************************************************************************
 427:Generated_Source\PSoC4/ADC_SAR_Seq_1.c **** *
 428:Generated_Source\PSoC4/ADC_SAR_Seq_1.c **** * Summary:
 429:Generated_Source\PSoC4/ADC_SAR_Seq_1.c **** *  Description: Checks for ADC end of conversion for the case one
 430:Generated_Source\PSoC4/ADC_SAR_Seq_1.c **** *  channel and end of scan for the case of multiple channels. It acts
 431:Generated_Source\PSoC4/ADC_SAR_Seq_1.c **** *  as a software version of the EOC. This function provides the
 432:Generated_Source\PSoC4/ADC_SAR_Seq_1.c **** *  programmer with two options. In one mode this function
 433:Generated_Source\PSoC4/ADC_SAR_Seq_1.c **** *  immediately returns with the conversion status. In the other mode,
 434:Generated_Source\PSoC4/ADC_SAR_Seq_1.c **** *  the function does not return (blocking) until the conversion has
 435:Generated_Source\PSoC4/ADC_SAR_Seq_1.c **** *  completed.
 436:Generated_Source\PSoC4/ADC_SAR_Seq_1.c **** *
 437:Generated_Source\PSoC4/ADC_SAR_Seq_1.c **** * Parameters:
 438:Generated_Source\PSoC4/ADC_SAR_Seq_1.c **** *  ADC_RETURN_STATUS        -> Immediately returns conversion result status
 439:Generated_Source\PSoC4/ADC_SAR_Seq_1.c **** *  ADC_WAIT_FOR_RESULT      -> Does not return until ADC complete
 440:Generated_Source\PSoC4/ADC_SAR_Seq_1.c **** *  ADC_RETURN_STATUS_INJ    -> Immediately returns conversion result status
 441:Generated_Source\PSoC4/ADC_SAR_Seq_1.c **** *                              for injection channel
 442:Generated_Source\PSoC4/ADC_SAR_Seq_1.c **** *  ADC_WAIT_FOR_RESULT_INJ  -> Does not return until ADC completes injection
 443:Generated_Source\PSoC4/ADC_SAR_Seq_1.c **** *                              channel conversion
 444:Generated_Source\PSoC4/ADC_SAR_Seq_1.c **** *
 445:Generated_Source\PSoC4/ADC_SAR_Seq_1.c **** * Return:
 446:Generated_Source\PSoC4/ADC_SAR_Seq_1.c **** *  If a non-zero value is returned, the last conversion or scan has completed.
 447:Generated_Source\PSoC4/ADC_SAR_Seq_1.c **** *  If the returned value is zero, the ADC is still in the process of a scan.
 448:Generated_Source\PSoC4/ADC_SAR_Seq_1.c **** *
 449:Generated_Source\PSoC4/ADC_SAR_Seq_1.c **** *******************************************************************************/
 450:Generated_Source\PSoC4/ADC_SAR_Seq_1.c **** uint32 ADC_SAR_Seq_1_IsEndConversion(uint32 retMode)
 451:Generated_Source\PSoC4/ADC_SAR_Seq_1.c **** {
 547              		.loc 1 451 0
 548              		.cfi_startproc
 549 0000 80B5     		push	{r7, lr}
 550              		.cfi_def_cfa_offset 8
 551              		.cfi_offset 7, -8
 552              		.cfi_offset 14, -4
 553 0002 84B0     		sub	sp, sp, #16
 554              		.cfi_def_cfa_offset 24
 555 0004 00AF     		add	r7, sp, #0
 556              		.cfi_def_cfa_register 7
 557 0006 7860     		str	r0, [r7, #4]
 452:Generated_Source\PSoC4/ADC_SAR_Seq_1.c ****     uint32 status = 0u;
 558              		.loc 1 452 0
 559 0008 0023     		mov	r3, #0
 560 000a FB60     		str	r3, [r7, #12]
 453:Generated_Source\PSoC4/ADC_SAR_Seq_1.c **** 
 454:Generated_Source\PSoC4/ADC_SAR_Seq_1.c ****     if((retMode & (ADC_SAR_Seq_1_RETURN_STATUS | ADC_SAR_Seq_1_WAIT_FOR_RESULT)) != 0u)
 561              		.loc 1 454 0
 562 000c 7B68     		ldr	r3, [r7, #4]
 563 000e 0322     		mov	r2, #3
 564 0010 1340     		and	r3, r2
 565 0012 11D0     		beq	.L34
ARM GAS  C:\Users\GREG~1.PHI\AppData\Local\Temp\cce7Q4Hg.s 			page 19


 566              	.L36:
 455:Generated_Source\PSoC4/ADC_SAR_Seq_1.c ****     {
 456:Generated_Source\PSoC4/ADC_SAR_Seq_1.c ****         do
 457:Generated_Source\PSoC4/ADC_SAR_Seq_1.c ****         {
 458:Generated_Source\PSoC4/ADC_SAR_Seq_1.c ****             status = ADC_SAR_Seq_1_SAR_INTR_REG & ADC_SAR_Seq_1_EOS_MASK;
 567              		.loc 1 458 0 discriminator 2
 568 0014 0B4B     		ldr	r3, .L38
 569 0016 1B68     		ldr	r3, [r3]
 570 0018 0122     		mov	r2, #1
 571 001a 1340     		and	r3, r2
 572 001c FB60     		str	r3, [r7, #12]
 459:Generated_Source\PSoC4/ADC_SAR_Seq_1.c ****         }while((status == 0u) && ((retMode & ADC_SAR_Seq_1_WAIT_FOR_RESULT) != 0u));
 573              		.loc 1 459 0 discriminator 2
 574 001e FB68     		ldr	r3, [r7, #12]
 575 0020 002B     		cmp	r3, #0
 576 0022 03D1     		bne	.L35
 577              		.loc 1 459 0 is_stmt 0 discriminator 1
 578 0024 7B68     		ldr	r3, [r7, #4]
 579 0026 0222     		mov	r2, #2
 580 0028 1340     		and	r3, r2
 581 002a F3D1     		bne	.L36
 582              	.L35:
 460:Generated_Source\PSoC4/ADC_SAR_Seq_1.c **** 
 461:Generated_Source\PSoC4/ADC_SAR_Seq_1.c ****         if(status != 0u)
 583              		.loc 1 461 0 is_stmt 1
 584 002c FB68     		ldr	r3, [r7, #12]
 585 002e 002B     		cmp	r3, #0
 586 0030 02D0     		beq	.L34
 462:Generated_Source\PSoC4/ADC_SAR_Seq_1.c ****         {
 463:Generated_Source\PSoC4/ADC_SAR_Seq_1.c ****             /* Clear EOS bit */
 464:Generated_Source\PSoC4/ADC_SAR_Seq_1.c ****             ADC_SAR_Seq_1_SAR_INTR_REG = ADC_SAR_Seq_1_EOS_MASK;
 587              		.loc 1 464 0
 588 0032 044B     		ldr	r3, .L38
 589 0034 0122     		mov	r2, #1
 590 0036 1A60     		str	r2, [r3]
 591              	.L34:
 465:Generated_Source\PSoC4/ADC_SAR_Seq_1.c ****         }
 466:Generated_Source\PSoC4/ADC_SAR_Seq_1.c ****     }
 467:Generated_Source\PSoC4/ADC_SAR_Seq_1.c **** 
 468:Generated_Source\PSoC4/ADC_SAR_Seq_1.c ****     #if(ADC_SAR_Seq_1_INJ_CHANNEL_ENABLED)
 469:Generated_Source\PSoC4/ADC_SAR_Seq_1.c ****         if((retMode & (ADC_SAR_Seq_1_RETURN_STATUS_INJ | ADC_SAR_Seq_1_WAIT_FOR_RESULT_INJ)) != 0u)
 470:Generated_Source\PSoC4/ADC_SAR_Seq_1.c ****         {
 471:Generated_Source\PSoC4/ADC_SAR_Seq_1.c ****             do
 472:Generated_Source\PSoC4/ADC_SAR_Seq_1.c ****             {
 473:Generated_Source\PSoC4/ADC_SAR_Seq_1.c ****                 status |= ADC_SAR_Seq_1_SAR_INTR_REG & ADC_SAR_Seq_1_INJ_EOC_MASK;
 474:Generated_Source\PSoC4/ADC_SAR_Seq_1.c ****             }while(((status & ADC_SAR_Seq_1_INJ_EOC_MASK) == 0u) &&
 475:Generated_Source\PSoC4/ADC_SAR_Seq_1.c ****                    ((retMode & ADC_SAR_Seq_1_WAIT_FOR_RESULT_INJ) != 0u));
 476:Generated_Source\PSoC4/ADC_SAR_Seq_1.c **** 
 477:Generated_Source\PSoC4/ADC_SAR_Seq_1.c ****             if((status & ADC_SAR_Seq_1_INJ_EOC_MASK) != 0u)
 478:Generated_Source\PSoC4/ADC_SAR_Seq_1.c ****             {
 479:Generated_Source\PSoC4/ADC_SAR_Seq_1.c ****                 /* Clear Injection EOS bit */
 480:Generated_Source\PSoC4/ADC_SAR_Seq_1.c ****                 ADC_SAR_Seq_1_SAR_INTR_REG = ADC_SAR_Seq_1_INJ_EOC_MASK;
 481:Generated_Source\PSoC4/ADC_SAR_Seq_1.c ****             }
 482:Generated_Source\PSoC4/ADC_SAR_Seq_1.c ****         }
 483:Generated_Source\PSoC4/ADC_SAR_Seq_1.c ****     #endif /* ADC_SAR_Seq_1_INJ_CHANNEL_ENABLED */
 484:Generated_Source\PSoC4/ADC_SAR_Seq_1.c **** 
 485:Generated_Source\PSoC4/ADC_SAR_Seq_1.c ****     return (status);
ARM GAS  C:\Users\GREG~1.PHI\AppData\Local\Temp\cce7Q4Hg.s 			page 20


 592              		.loc 1 485 0
 593 0038 FB68     		ldr	r3, [r7, #12]
 486:Generated_Source\PSoC4/ADC_SAR_Seq_1.c **** }
 594              		.loc 1 486 0
 595 003a 181C     		mov	r0, r3
 596 003c BD46     		mov	sp, r7
 597 003e 04B0     		add	sp, sp, #16
 598              		@ sp needed
 599 0040 80BD     		pop	{r7, pc}
 600              	.L39:
 601 0042 C046     		.align	2
 602              	.L38:
 603 0044 10023A40 		.word	1077543440
 604              		.cfi_endproc
 605              	.LFE7:
 606              		.size	ADC_SAR_Seq_1_IsEndConversion, .-ADC_SAR_Seq_1_IsEndConversion
 607              		.section	.text.ADC_SAR_Seq_1_GetResult16,"ax",%progbits
 608              		.align	2
 609              		.global	ADC_SAR_Seq_1_GetResult16
 610              		.code	16
 611              		.thumb_func
 612              		.type	ADC_SAR_Seq_1_GetResult16, %function
 613              	ADC_SAR_Seq_1_GetResult16:
 614              	.LFB8:
 487:Generated_Source\PSoC4/ADC_SAR_Seq_1.c **** 
 488:Generated_Source\PSoC4/ADC_SAR_Seq_1.c **** 
 489:Generated_Source\PSoC4/ADC_SAR_Seq_1.c **** /*******************************************************************************
 490:Generated_Source\PSoC4/ADC_SAR_Seq_1.c **** * Function Name: ADC_SAR_Seq_1_GetResult16
 491:Generated_Source\PSoC4/ADC_SAR_Seq_1.c **** ********************************************************************************
 492:Generated_Source\PSoC4/ADC_SAR_Seq_1.c **** *
 493:Generated_Source\PSoC4/ADC_SAR_Seq_1.c **** * Summary:
 494:Generated_Source\PSoC4/ADC_SAR_Seq_1.c **** *  Gets the data available in the SAR DATA register.
 495:Generated_Source\PSoC4/ADC_SAR_Seq_1.c **** *
 496:Generated_Source\PSoC4/ADC_SAR_Seq_1.c **** * Parameters:
 497:Generated_Source\PSoC4/ADC_SAR_Seq_1.c **** *  chan: The ADC channel in which to return the result. The first channel
 498:Generated_Source\PSoC4/ADC_SAR_Seq_1.c **** *  is 0 and the injection channel if enabled is the number of valid channels.
 499:Generated_Source\PSoC4/ADC_SAR_Seq_1.c **** *
 500:Generated_Source\PSoC4/ADC_SAR_Seq_1.c **** * Return:
 501:Generated_Source\PSoC4/ADC_SAR_Seq_1.c **** *  Returns converted data as a signed 16-bit integer
 502:Generated_Source\PSoC4/ADC_SAR_Seq_1.c **** *
 503:Generated_Source\PSoC4/ADC_SAR_Seq_1.c **** *******************************************************************************/
 504:Generated_Source\PSoC4/ADC_SAR_Seq_1.c **** int16 ADC_SAR_Seq_1_GetResult16(uint32 chan)
 505:Generated_Source\PSoC4/ADC_SAR_Seq_1.c **** {
 615              		.loc 1 505 0
 616              		.cfi_startproc
 617 0000 80B5     		push	{r7, lr}
 618              		.cfi_def_cfa_offset 8
 619              		.cfi_offset 7, -8
 620              		.cfi_offset 14, -4
 621 0002 84B0     		sub	sp, sp, #16
 622              		.cfi_def_cfa_offset 24
 623 0004 00AF     		add	r7, sp, #0
 624              		.cfi_def_cfa_register 7
 625 0006 7860     		str	r0, [r7, #4]
 506:Generated_Source\PSoC4/ADC_SAR_Seq_1.c ****     uint32 result;
 507:Generated_Source\PSoC4/ADC_SAR_Seq_1.c **** 
 508:Generated_Source\PSoC4/ADC_SAR_Seq_1.c ****     /* Halt CPU in debug mode if channel is out of valid range */
ARM GAS  C:\Users\GREG~1.PHI\AppData\Local\Temp\cce7Q4Hg.s 			page 21


 509:Generated_Source\PSoC4/ADC_SAR_Seq_1.c ****     CYASSERT(chan < ADC_SAR_Seq_1_TOTAL_CHANNELS_NUM);
 626              		.loc 1 509 0
 627 0008 7B68     		ldr	r3, [r7, #4]
 628 000a 012B     		cmp	r3, #1
 629 000c 02D9     		bls	.L41
 630              		.loc 1 509 0 is_stmt 0 discriminator 1
 631 000e 0020     		mov	r0, #0
 632 0010 FFF7FEFF 		bl	CyHalt
 633              	.L41:
 510:Generated_Source\PSoC4/ADC_SAR_Seq_1.c **** 
 511:Generated_Source\PSoC4/ADC_SAR_Seq_1.c ****     if(chan < ADC_SAR_Seq_1_SEQUENCED_CHANNELS_NUM)
 634              		.loc 1 511 0 is_stmt 1
 635 0014 7B68     		ldr	r3, [r7, #4]
 636 0016 012B     		cmp	r3, #1
 637 0018 09D8     		bhi	.L42
 512:Generated_Source\PSoC4/ADC_SAR_Seq_1.c ****     {
 513:Generated_Source\PSoC4/ADC_SAR_Seq_1.c ****         result = CY_GET_REG32((reg32 *)(ADC_SAR_Seq_1_SAR_CHAN_RESULT_IND + (uint32)(chan << 2u))) 
 638              		.loc 1 513 0
 639 001a 7B68     		ldr	r3, [r7, #4]
 640 001c 9B00     		lsl	r3, r3, #2
 641 001e 084A     		ldr	r2, .L45
 642 0020 9446     		mov	ip, r2
 643 0022 6344     		add	r3, r3, ip
 644 0024 1B68     		ldr	r3, [r3]
 645 0026 1B04     		lsl	r3, r3, #16
 646 0028 1B0C     		lsr	r3, r3, #16
 647 002a FB60     		str	r3, [r7, #12]
 648 002c 01E0     		b	.L43
 649              	.L42:
 514:Generated_Source\PSoC4/ADC_SAR_Seq_1.c ****                 ADC_SAR_Seq_1_RESULT_MASK;
 515:Generated_Source\PSoC4/ADC_SAR_Seq_1.c ****     }
 516:Generated_Source\PSoC4/ADC_SAR_Seq_1.c ****     else
 517:Generated_Source\PSoC4/ADC_SAR_Seq_1.c ****     {
 518:Generated_Source\PSoC4/ADC_SAR_Seq_1.c ****         #if(ADC_SAR_Seq_1_INJ_CHANNEL_ENABLED)
 519:Generated_Source\PSoC4/ADC_SAR_Seq_1.c ****             result = ADC_SAR_Seq_1_SAR_INJ_RESULT_REG & ADC_SAR_Seq_1_RESULT_MASK;
 520:Generated_Source\PSoC4/ADC_SAR_Seq_1.c ****         #else
 521:Generated_Source\PSoC4/ADC_SAR_Seq_1.c ****             result = 0u;
 650              		.loc 1 521 0
 651 002e 0023     		mov	r3, #0
 652 0030 FB60     		str	r3, [r7, #12]
 653              	.L43:
 522:Generated_Source\PSoC4/ADC_SAR_Seq_1.c ****         #endif /* ADC_SAR_Seq_1_INJ_CHANNEL_ENABLED */
 523:Generated_Source\PSoC4/ADC_SAR_Seq_1.c ****     }
 524:Generated_Source\PSoC4/ADC_SAR_Seq_1.c **** 
 525:Generated_Source\PSoC4/ADC_SAR_Seq_1.c ****     return ( (int16)result );
 654              		.loc 1 525 0
 655 0032 FB68     		ldr	r3, [r7, #12]
 656 0034 9BB2     		uxth	r3, r3
 657 0036 1BB2     		sxth	r3, r3
 526:Generated_Source\PSoC4/ADC_SAR_Seq_1.c **** }
 658              		.loc 1 526 0
 659 0038 181C     		mov	r0, r3
 660 003a BD46     		mov	sp, r7
 661 003c 04B0     		add	sp, sp, #16
 662              		@ sp needed
 663 003e 80BD     		pop	{r7, pc}
 664              	.L46:
ARM GAS  C:\Users\GREG~1.PHI\AppData\Local\Temp\cce7Q4Hg.s 			page 22


 665              		.align	2
 666              	.L45:
 667 0040 80013A40 		.word	1077543296
 668              		.cfi_endproc
 669              	.LFE8:
 670              		.size	ADC_SAR_Seq_1_GetResult16, .-ADC_SAR_Seq_1_GetResult16
 671              		.section	.text.ADC_SAR_Seq_1_SetChanMask,"ax",%progbits
 672              		.align	2
 673              		.global	ADC_SAR_Seq_1_SetChanMask
 674              		.code	16
 675              		.thumb_func
 676              		.type	ADC_SAR_Seq_1_SetChanMask, %function
 677              	ADC_SAR_Seq_1_SetChanMask:
 678              	.LFB9:
 527:Generated_Source\PSoC4/ADC_SAR_Seq_1.c **** 
 528:Generated_Source\PSoC4/ADC_SAR_Seq_1.c **** 
 529:Generated_Source\PSoC4/ADC_SAR_Seq_1.c **** /*******************************************************************************
 530:Generated_Source\PSoC4/ADC_SAR_Seq_1.c **** * Function Name: ADC_SAR_Seq_1_SetChanMask
 531:Generated_Source\PSoC4/ADC_SAR_Seq_1.c **** ********************************************************************************
 532:Generated_Source\PSoC4/ADC_SAR_Seq_1.c **** *
 533:Generated_Source\PSoC4/ADC_SAR_Seq_1.c **** * Summary:
 534:Generated_Source\PSoC4/ADC_SAR_Seq_1.c **** *  Sets the channel enable mask.
 535:Generated_Source\PSoC4/ADC_SAR_Seq_1.c **** *
 536:Generated_Source\PSoC4/ADC_SAR_Seq_1.c **** * Parameters:
 537:Generated_Source\PSoC4/ADC_SAR_Seq_1.c **** *  mask: Sets which channels that will be
 538:Generated_Source\PSoC4/ADC_SAR_Seq_1.c **** *  scanned. Setting bits for channels that do not exist will have no
 539:Generated_Source\PSoC4/ADC_SAR_Seq_1.c **** *  effect. For example, if only 6 channels were enabled, setting a
 540:Generated_Source\PSoC4/ADC_SAR_Seq_1.c **** *  mask of 0x0103 would only enable the last two channels (0 and 1).
 541:Generated_Source\PSoC4/ADC_SAR_Seq_1.c **** *  This API will not enable the injection channel.
 542:Generated_Source\PSoC4/ADC_SAR_Seq_1.c **** *  Examples: If the component is setup to sequence through 8
 543:Generated_Source\PSoC4/ADC_SAR_Seq_1.c **** *  channels, a mask of 0x000F would enable channels 0, 1, 2, and 3.
 544:Generated_Source\PSoC4/ADC_SAR_Seq_1.c **** *
 545:Generated_Source\PSoC4/ADC_SAR_Seq_1.c **** * Return:
 546:Generated_Source\PSoC4/ADC_SAR_Seq_1.c **** *  None.
 547:Generated_Source\PSoC4/ADC_SAR_Seq_1.c **** *
 548:Generated_Source\PSoC4/ADC_SAR_Seq_1.c **** *******************************************************************************/
 549:Generated_Source\PSoC4/ADC_SAR_Seq_1.c **** void ADC_SAR_Seq_1_SetChanMask(uint32 mask)
 550:Generated_Source\PSoC4/ADC_SAR_Seq_1.c **** {
 679              		.loc 1 550 0
 680              		.cfi_startproc
 681 0000 80B5     		push	{r7, lr}
 682              		.cfi_def_cfa_offset 8
 683              		.cfi_offset 7, -8
 684              		.cfi_offset 14, -4
 685 0002 82B0     		sub	sp, sp, #8
 686              		.cfi_def_cfa_offset 16
 687 0004 00AF     		add	r7, sp, #0
 688              		.cfi_def_cfa_register 7
 689 0006 7860     		str	r0, [r7, #4]
 551:Generated_Source\PSoC4/ADC_SAR_Seq_1.c ****     ADC_SAR_Seq_1_SAR_CHAN_EN_REG = mask & ADC_SAR_Seq_1_MAX_CHANNELS_EN_MASK;
 690              		.loc 1 551 0
 691 0008 034B     		ldr	r3, .L48
 692 000a 7A68     		ldr	r2, [r7, #4]
 693 000c 0321     		mov	r1, #3
 694 000e 0A40     		and	r2, r1
 695 0010 1A60     		str	r2, [r3]
 552:Generated_Source\PSoC4/ADC_SAR_Seq_1.c **** }
ARM GAS  C:\Users\GREG~1.PHI\AppData\Local\Temp\cce7Q4Hg.s 			page 23


 696              		.loc 1 552 0
 697 0012 BD46     		mov	sp, r7
 698 0014 02B0     		add	sp, sp, #8
 699              		@ sp needed
 700 0016 80BD     		pop	{r7, pc}
 701              	.L49:
 702              		.align	2
 703              	.L48:
 704 0018 20003A40 		.word	1077542944
 705              		.cfi_endproc
 706              	.LFE9:
 707              		.size	ADC_SAR_Seq_1_SetChanMask, .-ADC_SAR_Seq_1_SetChanMask
 708              		.section	.text.ADC_SAR_Seq_1_SetLowLimit,"ax",%progbits
 709              		.align	2
 710              		.global	ADC_SAR_Seq_1_SetLowLimit
 711              		.code	16
 712              		.thumb_func
 713              		.type	ADC_SAR_Seq_1_SetLowLimit, %function
 714              	ADC_SAR_Seq_1_SetLowLimit:
 715              	.LFB10:
 553:Generated_Source\PSoC4/ADC_SAR_Seq_1.c **** 
 554:Generated_Source\PSoC4/ADC_SAR_Seq_1.c **** #if(ADC_SAR_Seq_1_INJ_CHANNEL_ENABLED)
 555:Generated_Source\PSoC4/ADC_SAR_Seq_1.c **** 
 556:Generated_Source\PSoC4/ADC_SAR_Seq_1.c **** 
 557:Generated_Source\PSoC4/ADC_SAR_Seq_1.c ****     /*******************************************************************************
 558:Generated_Source\PSoC4/ADC_SAR_Seq_1.c ****     * Function Name: ADC_SAR_Seq_1_EnableInjection
 559:Generated_Source\PSoC4/ADC_SAR_Seq_1.c ****     ********************************************************************************
 560:Generated_Source\PSoC4/ADC_SAR_Seq_1.c ****     *
 561:Generated_Source\PSoC4/ADC_SAR_Seq_1.c ****     * Summary:
 562:Generated_Source\PSoC4/ADC_SAR_Seq_1.c ****     *  Enables the injection channel for the next scan only.
 563:Generated_Source\PSoC4/ADC_SAR_Seq_1.c ****     *
 564:Generated_Source\PSoC4/ADC_SAR_Seq_1.c ****     * Parameters:
 565:Generated_Source\PSoC4/ADC_SAR_Seq_1.c ****     *  None.
 566:Generated_Source\PSoC4/ADC_SAR_Seq_1.c ****     *
 567:Generated_Source\PSoC4/ADC_SAR_Seq_1.c ****     * Return:
 568:Generated_Source\PSoC4/ADC_SAR_Seq_1.c ****     *  None.
 569:Generated_Source\PSoC4/ADC_SAR_Seq_1.c ****     *
 570:Generated_Source\PSoC4/ADC_SAR_Seq_1.c ****     *******************************************************************************/
 571:Generated_Source\PSoC4/ADC_SAR_Seq_1.c ****     void ADC_SAR_Seq_1_EnableInjection(void)
 572:Generated_Source\PSoC4/ADC_SAR_Seq_1.c ****     {
 573:Generated_Source\PSoC4/ADC_SAR_Seq_1.c ****         ADC_SAR_Seq_1_SAR_INJ_CHAN_CONFIG_REG |= ADC_SAR_Seq_1_INJ_CHAN_EN;
 574:Generated_Source\PSoC4/ADC_SAR_Seq_1.c ****     }
 575:Generated_Source\PSoC4/ADC_SAR_Seq_1.c **** 
 576:Generated_Source\PSoC4/ADC_SAR_Seq_1.c **** #endif /* ADC_SAR_Seq_1_INJ_CHANNEL_ENABLED */
 577:Generated_Source\PSoC4/ADC_SAR_Seq_1.c **** 
 578:Generated_Source\PSoC4/ADC_SAR_Seq_1.c **** 
 579:Generated_Source\PSoC4/ADC_SAR_Seq_1.c **** /*******************************************************************************
 580:Generated_Source\PSoC4/ADC_SAR_Seq_1.c **** * Function Name: ADC_SAR_Seq_1_SetLowLimit
 581:Generated_Source\PSoC4/ADC_SAR_Seq_1.c **** ********************************************************************************
 582:Generated_Source\PSoC4/ADC_SAR_Seq_1.c **** *
 583:Generated_Source\PSoC4/ADC_SAR_Seq_1.c **** * Summary:
 584:Generated_Source\PSoC4/ADC_SAR_Seq_1.c **** *  Sets the low limit parameter for a limit condition.
 585:Generated_Source\PSoC4/ADC_SAR_Seq_1.c **** *
 586:Generated_Source\PSoC4/ADC_SAR_Seq_1.c **** * Parameters:
 587:Generated_Source\PSoC4/ADC_SAR_Seq_1.c **** *  lowLimit: The low limit for a limit condition.
 588:Generated_Source\PSoC4/ADC_SAR_Seq_1.c **** *
 589:Generated_Source\PSoC4/ADC_SAR_Seq_1.c **** * Return:
ARM GAS  C:\Users\GREG~1.PHI\AppData\Local\Temp\cce7Q4Hg.s 			page 24


 590:Generated_Source\PSoC4/ADC_SAR_Seq_1.c **** *  None.
 591:Generated_Source\PSoC4/ADC_SAR_Seq_1.c **** *
 592:Generated_Source\PSoC4/ADC_SAR_Seq_1.c **** *******************************************************************************/
 593:Generated_Source\PSoC4/ADC_SAR_Seq_1.c **** void ADC_SAR_Seq_1_SetLowLimit(uint32 lowLimit)
 594:Generated_Source\PSoC4/ADC_SAR_Seq_1.c **** {
 716              		.loc 1 594 0
 717              		.cfi_startproc
 718 0000 80B5     		push	{r7, lr}
 719              		.cfi_def_cfa_offset 8
 720              		.cfi_offset 7, -8
 721              		.cfi_offset 14, -4
 722 0002 82B0     		sub	sp, sp, #8
 723              		.cfi_def_cfa_offset 16
 724 0004 00AF     		add	r7, sp, #0
 725              		.cfi_def_cfa_register 7
 726 0006 7860     		str	r0, [r7, #4]
 595:Generated_Source\PSoC4/ADC_SAR_Seq_1.c ****     ADC_SAR_Seq_1_SAR_RANGE_THRES_REG &= (uint32)(~ADC_SAR_Seq_1_RANGE_LOW_MASK);
 727              		.loc 1 595 0
 728 0008 084B     		ldr	r3, .L51
 729 000a 084A     		ldr	r2, .L51
 730 000c 1268     		ldr	r2, [r2]
 731 000e 120C     		lsr	r2, r2, #16
 732 0010 1204     		lsl	r2, r2, #16
 733 0012 1A60     		str	r2, [r3]
 596:Generated_Source\PSoC4/ADC_SAR_Seq_1.c ****     ADC_SAR_Seq_1_SAR_RANGE_THRES_REG |= lowLimit & ADC_SAR_Seq_1_RANGE_LOW_MASK;
 734              		.loc 1 596 0
 735 0014 054B     		ldr	r3, .L51
 736 0016 054A     		ldr	r2, .L51
 737 0018 1168     		ldr	r1, [r2]
 738 001a 7A68     		ldr	r2, [r7, #4]
 739 001c 1204     		lsl	r2, r2, #16
 740 001e 120C     		lsr	r2, r2, #16
 741 0020 0A43     		orr	r2, r1
 742 0022 1A60     		str	r2, [r3]
 597:Generated_Source\PSoC4/ADC_SAR_Seq_1.c **** }
 743              		.loc 1 597 0
 744 0024 BD46     		mov	sp, r7
 745 0026 02B0     		add	sp, sp, #8
 746              		@ sp needed
 747 0028 80BD     		pop	{r7, pc}
 748              	.L52:
 749 002a C046     		.align	2
 750              	.L51:
 751 002c 18003A40 		.word	1077542936
 752              		.cfi_endproc
 753              	.LFE10:
 754              		.size	ADC_SAR_Seq_1_SetLowLimit, .-ADC_SAR_Seq_1_SetLowLimit
 755              		.section	.text.ADC_SAR_Seq_1_SetHighLimit,"ax",%progbits
 756              		.align	2
 757              		.global	ADC_SAR_Seq_1_SetHighLimit
 758              		.code	16
 759              		.thumb_func
 760              		.type	ADC_SAR_Seq_1_SetHighLimit, %function
 761              	ADC_SAR_Seq_1_SetHighLimit:
 762              	.LFB11:
 598:Generated_Source\PSoC4/ADC_SAR_Seq_1.c **** 
 599:Generated_Source\PSoC4/ADC_SAR_Seq_1.c **** 
ARM GAS  C:\Users\GREG~1.PHI\AppData\Local\Temp\cce7Q4Hg.s 			page 25


 600:Generated_Source\PSoC4/ADC_SAR_Seq_1.c **** /*******************************************************************************
 601:Generated_Source\PSoC4/ADC_SAR_Seq_1.c **** * Function Name: ADC_SAR_Seq_1_SetHighLimit
 602:Generated_Source\PSoC4/ADC_SAR_Seq_1.c **** ********************************************************************************
 603:Generated_Source\PSoC4/ADC_SAR_Seq_1.c **** *
 604:Generated_Source\PSoC4/ADC_SAR_Seq_1.c **** * Summary:
 605:Generated_Source\PSoC4/ADC_SAR_Seq_1.c **** *  Sets the low limit parameter for a limit condition.
 606:Generated_Source\PSoC4/ADC_SAR_Seq_1.c **** *
 607:Generated_Source\PSoC4/ADC_SAR_Seq_1.c **** * Parameters:
 608:Generated_Source\PSoC4/ADC_SAR_Seq_1.c **** *  highLimit: The high limit for a limit condition.
 609:Generated_Source\PSoC4/ADC_SAR_Seq_1.c **** *
 610:Generated_Source\PSoC4/ADC_SAR_Seq_1.c **** * Return:
 611:Generated_Source\PSoC4/ADC_SAR_Seq_1.c **** *  None.
 612:Generated_Source\PSoC4/ADC_SAR_Seq_1.c **** *
 613:Generated_Source\PSoC4/ADC_SAR_Seq_1.c **** *******************************************************************************/
 614:Generated_Source\PSoC4/ADC_SAR_Seq_1.c **** void ADC_SAR_Seq_1_SetHighLimit(uint32 highLimit)
 615:Generated_Source\PSoC4/ADC_SAR_Seq_1.c **** {
 763              		.loc 1 615 0
 764              		.cfi_startproc
 765 0000 80B5     		push	{r7, lr}
 766              		.cfi_def_cfa_offset 8
 767              		.cfi_offset 7, -8
 768              		.cfi_offset 14, -4
 769 0002 82B0     		sub	sp, sp, #8
 770              		.cfi_def_cfa_offset 16
 771 0004 00AF     		add	r7, sp, #0
 772              		.cfi_def_cfa_register 7
 773 0006 7860     		str	r0, [r7, #4]
 616:Generated_Source\PSoC4/ADC_SAR_Seq_1.c ****     ADC_SAR_Seq_1_SAR_RANGE_THRES_REG &= (uint32)(~ADC_SAR_Seq_1_RANGE_HIGH_MASK);
 774              		.loc 1 616 0
 775 0008 074B     		ldr	r3, .L54
 776 000a 074A     		ldr	r2, .L54
 777 000c 1268     		ldr	r2, [r2]
 778 000e 1204     		lsl	r2, r2, #16
 779 0010 120C     		lsr	r2, r2, #16
 780 0012 1A60     		str	r2, [r3]
 617:Generated_Source\PSoC4/ADC_SAR_Seq_1.c ****     ADC_SAR_Seq_1_SAR_RANGE_THRES_REG |= (uint32)(highLimit << ADC_SAR_Seq_1_RANGE_HIGH_OFFSET);
 781              		.loc 1 617 0
 782 0014 044B     		ldr	r3, .L54
 783 0016 044A     		ldr	r2, .L54
 784 0018 1168     		ldr	r1, [r2]
 785 001a 7A68     		ldr	r2, [r7, #4]
 786 001c 1204     		lsl	r2, r2, #16
 787 001e 0A43     		orr	r2, r1
 788 0020 1A60     		str	r2, [r3]
 618:Generated_Source\PSoC4/ADC_SAR_Seq_1.c **** }
 789              		.loc 1 618 0
 790 0022 BD46     		mov	sp, r7
 791 0024 02B0     		add	sp, sp, #8
 792              		@ sp needed
 793 0026 80BD     		pop	{r7, pc}
 794              	.L55:
 795              		.align	2
 796              	.L54:
 797 0028 18003A40 		.word	1077542936
 798              		.cfi_endproc
 799              	.LFE11:
 800              		.size	ADC_SAR_Seq_1_SetHighLimit, .-ADC_SAR_Seq_1_SetHighLimit
ARM GAS  C:\Users\GREG~1.PHI\AppData\Local\Temp\cce7Q4Hg.s 			page 26


 801              		.section	.text.ADC_SAR_Seq_1_SetLimitMask,"ax",%progbits
 802              		.align	2
 803              		.global	ADC_SAR_Seq_1_SetLimitMask
 804              		.code	16
 805              		.thumb_func
 806              		.type	ADC_SAR_Seq_1_SetLimitMask, %function
 807              	ADC_SAR_Seq_1_SetLimitMask:
 808              	.LFB12:
 619:Generated_Source\PSoC4/ADC_SAR_Seq_1.c **** 
 620:Generated_Source\PSoC4/ADC_SAR_Seq_1.c **** 
 621:Generated_Source\PSoC4/ADC_SAR_Seq_1.c **** /*******************************************************************************
 622:Generated_Source\PSoC4/ADC_SAR_Seq_1.c **** * Function Name: ADC_SAR_Seq_1_SetLimitMask
 623:Generated_Source\PSoC4/ADC_SAR_Seq_1.c **** ********************************************************************************
 624:Generated_Source\PSoC4/ADC_SAR_Seq_1.c **** *
 625:Generated_Source\PSoC4/ADC_SAR_Seq_1.c **** * Summary:
 626:Generated_Source\PSoC4/ADC_SAR_Seq_1.c **** *  Sets the channel limit condition mask.
 627:Generated_Source\PSoC4/ADC_SAR_Seq_1.c **** *
 628:Generated_Source\PSoC4/ADC_SAR_Seq_1.c **** * Parameters:
 629:Generated_Source\PSoC4/ADC_SAR_Seq_1.c **** *  mask: Sets which channels that may cause a
 630:Generated_Source\PSoC4/ADC_SAR_Seq_1.c **** *  limit condition interrupt. Setting bits for channels that do not exist
 631:Generated_Source\PSoC4/ADC_SAR_Seq_1.c **** *  will have no effect. For example, if only 6 channels were enabled,
 632:Generated_Source\PSoC4/ADC_SAR_Seq_1.c **** *  setting a mask of 0x0103 would only enable the last two channels (0 and 1).
 633:Generated_Source\PSoC4/ADC_SAR_Seq_1.c **** *
 634:Generated_Source\PSoC4/ADC_SAR_Seq_1.c **** * Return:
 635:Generated_Source\PSoC4/ADC_SAR_Seq_1.c **** *  None.
 636:Generated_Source\PSoC4/ADC_SAR_Seq_1.c **** *
 637:Generated_Source\PSoC4/ADC_SAR_Seq_1.c **** *******************************************************************************/
 638:Generated_Source\PSoC4/ADC_SAR_Seq_1.c **** void ADC_SAR_Seq_1_SetLimitMask(uint32 mask)
 639:Generated_Source\PSoC4/ADC_SAR_Seq_1.c **** {
 809              		.loc 1 639 0
 810              		.cfi_startproc
 811 0000 80B5     		push	{r7, lr}
 812              		.cfi_def_cfa_offset 8
 813              		.cfi_offset 7, -8
 814              		.cfi_offset 14, -4
 815 0002 82B0     		sub	sp, sp, #8
 816              		.cfi_def_cfa_offset 16
 817 0004 00AF     		add	r7, sp, #0
 818              		.cfi_def_cfa_register 7
 819 0006 7860     		str	r0, [r7, #4]
 640:Generated_Source\PSoC4/ADC_SAR_Seq_1.c ****     ADC_SAR_Seq_1_SAR_RANGE_INTR_MASK_REG = mask & ADC_SAR_Seq_1_MAX_CHANNELS_EN_MASK;
 820              		.loc 1 640 0
 821 0008 034B     		ldr	r3, .L57
 822 000a 7A68     		ldr	r2, [r7, #4]
 823 000c 0321     		mov	r1, #3
 824 000e 0A40     		and	r2, r1
 825 0010 1A60     		str	r2, [r3]
 641:Generated_Source\PSoC4/ADC_SAR_Seq_1.c **** }
 826              		.loc 1 641 0
 827 0012 BD46     		mov	sp, r7
 828 0014 02B0     		add	sp, sp, #8
 829              		@ sp needed
 830 0016 80BD     		pop	{r7, pc}
 831              	.L58:
 832              		.align	2
 833              	.L57:
 834 0018 38023A40 		.word	1077543480
ARM GAS  C:\Users\GREG~1.PHI\AppData\Local\Temp\cce7Q4Hg.s 			page 27


 835              		.cfi_endproc
 836              	.LFE12:
 837              		.size	ADC_SAR_Seq_1_SetLimitMask, .-ADC_SAR_Seq_1_SetLimitMask
 838              		.section	.text.ADC_SAR_Seq_1_SetSatMask,"ax",%progbits
 839              		.align	2
 840              		.global	ADC_SAR_Seq_1_SetSatMask
 841              		.code	16
 842              		.thumb_func
 843              		.type	ADC_SAR_Seq_1_SetSatMask, %function
 844              	ADC_SAR_Seq_1_SetSatMask:
 845              	.LFB13:
 642:Generated_Source\PSoC4/ADC_SAR_Seq_1.c **** 
 643:Generated_Source\PSoC4/ADC_SAR_Seq_1.c **** 
 644:Generated_Source\PSoC4/ADC_SAR_Seq_1.c **** /*******************************************************************************
 645:Generated_Source\PSoC4/ADC_SAR_Seq_1.c **** * Function Name: ADC_SAR_Seq_1_SetSatMask
 646:Generated_Source\PSoC4/ADC_SAR_Seq_1.c **** ********************************************************************************
 647:Generated_Source\PSoC4/ADC_SAR_Seq_1.c **** *
 648:Generated_Source\PSoC4/ADC_SAR_Seq_1.c **** * Summary:
 649:Generated_Source\PSoC4/ADC_SAR_Seq_1.c **** *  Sets the channel saturation event mask.
 650:Generated_Source\PSoC4/ADC_SAR_Seq_1.c **** *
 651:Generated_Source\PSoC4/ADC_SAR_Seq_1.c **** * Parameters:
 652:Generated_Source\PSoC4/ADC_SAR_Seq_1.c **** *  mask: Sets which channels that may cause a
 653:Generated_Source\PSoC4/ADC_SAR_Seq_1.c **** *  saturation event interrupt. Setting bits for channels that do not exist
 654:Generated_Source\PSoC4/ADC_SAR_Seq_1.c **** *  will have no effect. For example, if only 8 channels were enabled,
 655:Generated_Source\PSoC4/ADC_SAR_Seq_1.c **** *  setting a mask of 0x01C0 would only enable two channels (6 and 7).
 656:Generated_Source\PSoC4/ADC_SAR_Seq_1.c **** *
 657:Generated_Source\PSoC4/ADC_SAR_Seq_1.c **** * Return:
 658:Generated_Source\PSoC4/ADC_SAR_Seq_1.c **** *  None.
 659:Generated_Source\PSoC4/ADC_SAR_Seq_1.c **** *
 660:Generated_Source\PSoC4/ADC_SAR_Seq_1.c **** *******************************************************************************/
 661:Generated_Source\PSoC4/ADC_SAR_Seq_1.c **** void ADC_SAR_Seq_1_SetSatMask(uint32 mask)
 662:Generated_Source\PSoC4/ADC_SAR_Seq_1.c **** {
 846              		.loc 1 662 0
 847              		.cfi_startproc
 848 0000 80B5     		push	{r7, lr}
 849              		.cfi_def_cfa_offset 8
 850              		.cfi_offset 7, -8
 851              		.cfi_offset 14, -4
 852 0002 82B0     		sub	sp, sp, #8
 853              		.cfi_def_cfa_offset 16
 854 0004 00AF     		add	r7, sp, #0
 855              		.cfi_def_cfa_register 7
 856 0006 7860     		str	r0, [r7, #4]
 663:Generated_Source\PSoC4/ADC_SAR_Seq_1.c ****     ADC_SAR_Seq_1_SAR_SATURATE_INTR_MASK_REG = mask & ADC_SAR_Seq_1_MAX_CHANNELS_EN_MASK;
 857              		.loc 1 663 0
 858 0008 034B     		ldr	r3, .L60
 859 000a 7A68     		ldr	r2, [r7, #4]
 860 000c 0321     		mov	r1, #3
 861 000e 0A40     		and	r2, r1
 862 0010 1A60     		str	r2, [r3]
 664:Generated_Source\PSoC4/ADC_SAR_Seq_1.c **** }
 863              		.loc 1 664 0
 864 0012 BD46     		mov	sp, r7
 865 0014 02B0     		add	sp, sp, #8
 866              		@ sp needed
 867 0016 80BD     		pop	{r7, pc}
 868              	.L61:
ARM GAS  C:\Users\GREG~1.PHI\AppData\Local\Temp\cce7Q4Hg.s 			page 28


 869              		.align	2
 870              	.L60:
 871 0018 28023A40 		.word	1077543464
 872              		.cfi_endproc
 873              	.LFE13:
 874              		.size	ADC_SAR_Seq_1_SetSatMask, .-ADC_SAR_Seq_1_SetSatMask
 875              		.section	.text.ADC_SAR_Seq_1_SetOffset,"ax",%progbits
 876              		.align	2
 877              		.global	ADC_SAR_Seq_1_SetOffset
 878              		.code	16
 879              		.thumb_func
 880              		.type	ADC_SAR_Seq_1_SetOffset, %function
 881              	ADC_SAR_Seq_1_SetOffset:
 882              	.LFB14:
 665:Generated_Source\PSoC4/ADC_SAR_Seq_1.c **** 
 666:Generated_Source\PSoC4/ADC_SAR_Seq_1.c **** 
 667:Generated_Source\PSoC4/ADC_SAR_Seq_1.c **** /*******************************************************************************
 668:Generated_Source\PSoC4/ADC_SAR_Seq_1.c **** * Function Name: ADC_SAR_Seq_1_SetOffset
 669:Generated_Source\PSoC4/ADC_SAR_Seq_1.c **** ********************************************************************************
 670:Generated_Source\PSoC4/ADC_SAR_Seq_1.c **** *
 671:Generated_Source\PSoC4/ADC_SAR_Seq_1.c **** * Summary:
 672:Generated_Source\PSoC4/ADC_SAR_Seq_1.c **** *   Description: Sets the ADC offset which is used by the functions
 673:Generated_Source\PSoC4/ADC_SAR_Seq_1.c **** *   ADC_CountsTo_uVolts, ADC_CountsTo_mVolts and ADC_CountsTo_Volts
 674:Generated_Source\PSoC4/ADC_SAR_Seq_1.c **** *   to substract the offset from the given reading
 675:Generated_Source\PSoC4/ADC_SAR_Seq_1.c **** *   before calculating the voltage conversion.
 676:Generated_Source\PSoC4/ADC_SAR_Seq_1.c **** *
 677:Generated_Source\PSoC4/ADC_SAR_Seq_1.c **** * Parameters:
 678:Generated_Source\PSoC4/ADC_SAR_Seq_1.c **** *  chan: ADC channel number.
 679:Generated_Source\PSoC4/ADC_SAR_Seq_1.c **** *  offset: This value is a measured value when the
 680:Generated_Source\PSoC4/ADC_SAR_Seq_1.c **** *          inputs are shorted or connected to the same input voltage.
 681:Generated_Source\PSoC4/ADC_SAR_Seq_1.c **** *
 682:Generated_Source\PSoC4/ADC_SAR_Seq_1.c **** * Return:
 683:Generated_Source\PSoC4/ADC_SAR_Seq_1.c **** *  None.
 684:Generated_Source\PSoC4/ADC_SAR_Seq_1.c **** *
 685:Generated_Source\PSoC4/ADC_SAR_Seq_1.c **** * Global variables:
 686:Generated_Source\PSoC4/ADC_SAR_Seq_1.c **** *  ADC_SAR_Seq_1_Offset:  Modified to set the user provided offset.
 687:Generated_Source\PSoC4/ADC_SAR_Seq_1.c **** *
 688:Generated_Source\PSoC4/ADC_SAR_Seq_1.c **** *******************************************************************************/
 689:Generated_Source\PSoC4/ADC_SAR_Seq_1.c **** void ADC_SAR_Seq_1_SetOffset(uint32 chan, int16 offset)
 690:Generated_Source\PSoC4/ADC_SAR_Seq_1.c **** {
 883              		.loc 1 690 0
 884              		.cfi_startproc
 885 0000 80B5     		push	{r7, lr}
 886              		.cfi_def_cfa_offset 8
 887              		.cfi_offset 7, -8
 888              		.cfi_offset 14, -4
 889 0002 82B0     		sub	sp, sp, #8
 890              		.cfi_def_cfa_offset 16
 891 0004 00AF     		add	r7, sp, #0
 892              		.cfi_def_cfa_register 7
 893 0006 7860     		str	r0, [r7, #4]
 894 0008 0A1C     		mov	r2, r1
 895 000a BB1C     		add	r3, r7, #2
 896 000c 1A80     		strh	r2, [r3]
 691:Generated_Source\PSoC4/ADC_SAR_Seq_1.c ****     /* Halt CPU in debug mode if channel is out of valid range */
 692:Generated_Source\PSoC4/ADC_SAR_Seq_1.c ****     CYASSERT(chan < ADC_SAR_Seq_1_TOTAL_CHANNELS_NUM);
 897              		.loc 1 692 0
ARM GAS  C:\Users\GREG~1.PHI\AppData\Local\Temp\cce7Q4Hg.s 			page 29


 898 000e 7B68     		ldr	r3, [r7, #4]
 899 0010 012B     		cmp	r3, #1
 900 0012 02D9     		bls	.L63
 901              		.loc 1 692 0 is_stmt 0 discriminator 1
 902 0014 0020     		mov	r0, #0
 903 0016 FFF7FEFF 		bl	CyHalt
 904              	.L63:
 693:Generated_Source\PSoC4/ADC_SAR_Seq_1.c **** 
 694:Generated_Source\PSoC4/ADC_SAR_Seq_1.c ****     ADC_SAR_Seq_1_offset[chan] = offset;
 905              		.loc 1 694 0 is_stmt 1
 906 001a 044B     		ldr	r3, .L64
 907 001c 7A68     		ldr	r2, [r7, #4]
 908 001e 5200     		lsl	r2, r2, #1
 909 0020 B91C     		add	r1, r7, #2
 910 0022 0988     		ldrh	r1, [r1]
 911 0024 D152     		strh	r1, [r2, r3]
 695:Generated_Source\PSoC4/ADC_SAR_Seq_1.c **** }
 912              		.loc 1 695 0
 913 0026 BD46     		mov	sp, r7
 914 0028 02B0     		add	sp, sp, #8
 915              		@ sp needed
 916 002a 80BD     		pop	{r7, pc}
 917              	.L65:
 918              		.align	2
 919              	.L64:
 920 002c 00000000 		.word	ADC_SAR_Seq_1_offset
 921              		.cfi_endproc
 922              	.LFE14:
 923              		.size	ADC_SAR_Seq_1_SetOffset, .-ADC_SAR_Seq_1_SetOffset
 924              		.section	.text.ADC_SAR_Seq_1_SetGain,"ax",%progbits
 925              		.align	2
 926              		.global	ADC_SAR_Seq_1_SetGain
 927              		.code	16
 928              		.thumb_func
 929              		.type	ADC_SAR_Seq_1_SetGain, %function
 930              	ADC_SAR_Seq_1_SetGain:
 931              	.LFB15:
 696:Generated_Source\PSoC4/ADC_SAR_Seq_1.c **** 
 697:Generated_Source\PSoC4/ADC_SAR_Seq_1.c **** 
 698:Generated_Source\PSoC4/ADC_SAR_Seq_1.c **** /*******************************************************************************
 699:Generated_Source\PSoC4/ADC_SAR_Seq_1.c **** * Function Name: ADC_SAR_Seq_1_SetGain
 700:Generated_Source\PSoC4/ADC_SAR_Seq_1.c **** ********************************************************************************
 701:Generated_Source\PSoC4/ADC_SAR_Seq_1.c **** *
 702:Generated_Source\PSoC4/ADC_SAR_Seq_1.c **** * Summary:
 703:Generated_Source\PSoC4/ADC_SAR_Seq_1.c **** *  Description: Sets the ADC gain in counts per 10 volt for the voltage
 704:Generated_Source\PSoC4/ADC_SAR_Seq_1.c **** *  conversion functions below. This value is set by default by the
 705:Generated_Source\PSoC4/ADC_SAR_Seq_1.c **** *  reference and input range settings. It should only be used to further
 706:Generated_Source\PSoC4/ADC_SAR_Seq_1.c **** *  calibrate the ADC with a known input or if an external reference is
 707:Generated_Source\PSoC4/ADC_SAR_Seq_1.c **** *  used. Affects the ADC_CountsTo_uVolts, ADC_CountsTo_mVolts
 708:Generated_Source\PSoC4/ADC_SAR_Seq_1.c **** *  and ADC_CountsTo_Volts functions by supplying the correct
 709:Generated_Source\PSoC4/ADC_SAR_Seq_1.c **** *  conversion between ADC counts and voltage.
 710:Generated_Source\PSoC4/ADC_SAR_Seq_1.c **** *
 711:Generated_Source\PSoC4/ADC_SAR_Seq_1.c **** * Parameters:
 712:Generated_Source\PSoC4/ADC_SAR_Seq_1.c **** *  chan: ADC channel number.
 713:Generated_Source\PSoC4/ADC_SAR_Seq_1.c **** *  adcGain: ADC gain in counts per 10 volts.
 714:Generated_Source\PSoC4/ADC_SAR_Seq_1.c **** *
 715:Generated_Source\PSoC4/ADC_SAR_Seq_1.c **** * Return:
ARM GAS  C:\Users\GREG~1.PHI\AppData\Local\Temp\cce7Q4Hg.s 			page 30


 716:Generated_Source\PSoC4/ADC_SAR_Seq_1.c **** *  None.
 717:Generated_Source\PSoC4/ADC_SAR_Seq_1.c **** *
 718:Generated_Source\PSoC4/ADC_SAR_Seq_1.c **** * Global variables:
 719:Generated_Source\PSoC4/ADC_SAR_Seq_1.c **** *  ADC_SAR_Seq_1_CountsPer10Volt:  modified to set the ADC gain in counts
 720:Generated_Source\PSoC4/ADC_SAR_Seq_1.c **** *   per 10 volt.
 721:Generated_Source\PSoC4/ADC_SAR_Seq_1.c **** *
 722:Generated_Source\PSoC4/ADC_SAR_Seq_1.c **** *******************************************************************************/
 723:Generated_Source\PSoC4/ADC_SAR_Seq_1.c **** void ADC_SAR_Seq_1_SetGain(uint32 chan, int32 adcGain)
 724:Generated_Source\PSoC4/ADC_SAR_Seq_1.c **** {
 932              		.loc 1 724 0
 933              		.cfi_startproc
 934 0000 80B5     		push	{r7, lr}
 935              		.cfi_def_cfa_offset 8
 936              		.cfi_offset 7, -8
 937              		.cfi_offset 14, -4
 938 0002 82B0     		sub	sp, sp, #8
 939              		.cfi_def_cfa_offset 16
 940 0004 00AF     		add	r7, sp, #0
 941              		.cfi_def_cfa_register 7
 942 0006 7860     		str	r0, [r7, #4]
 943 0008 3960     		str	r1, [r7]
 725:Generated_Source\PSoC4/ADC_SAR_Seq_1.c ****     /* Halt CPU in debug mode if channel is out of valid range */
 726:Generated_Source\PSoC4/ADC_SAR_Seq_1.c ****     CYASSERT(chan < ADC_SAR_Seq_1_TOTAL_CHANNELS_NUM);
 944              		.loc 1 726 0
 945 000a 7B68     		ldr	r3, [r7, #4]
 946 000c 012B     		cmp	r3, #1
 947 000e 02D9     		bls	.L67
 948              		.loc 1 726 0 is_stmt 0 discriminator 1
 949 0010 0020     		mov	r0, #0
 950 0012 FFF7FEFF 		bl	CyHalt
 951              	.L67:
 727:Generated_Source\PSoC4/ADC_SAR_Seq_1.c **** 
 728:Generated_Source\PSoC4/ADC_SAR_Seq_1.c ****     ADC_SAR_Seq_1_countsPer10Volt[chan] = adcGain;
 952              		.loc 1 728 0 is_stmt 1
 953 0016 044B     		ldr	r3, .L68
 954 0018 7A68     		ldr	r2, [r7, #4]
 955 001a 9200     		lsl	r2, r2, #2
 956 001c 3968     		ldr	r1, [r7]
 957 001e D150     		str	r1, [r2, r3]
 729:Generated_Source\PSoC4/ADC_SAR_Seq_1.c **** }
 958              		.loc 1 729 0
 959 0020 BD46     		mov	sp, r7
 960 0022 02B0     		add	sp, sp, #8
 961              		@ sp needed
 962 0024 80BD     		pop	{r7, pc}
 963              	.L69:
 964 0026 C046     		.align	2
 965              	.L68:
 966 0028 00000000 		.word	ADC_SAR_Seq_1_countsPer10Volt
 967              		.cfi_endproc
 968              	.LFE15:
 969              		.size	ADC_SAR_Seq_1_SetGain, .-ADC_SAR_Seq_1_SetGain
 970              		.global	__aeabi_idiv
 971              		.section	.text.ADC_SAR_Seq_1_CountsTo_mVolts,"ax",%progbits
 972              		.align	2
 973              		.global	ADC_SAR_Seq_1_CountsTo_mVolts
 974              		.code	16
ARM GAS  C:\Users\GREG~1.PHI\AppData\Local\Temp\cce7Q4Hg.s 			page 31


 975              		.thumb_func
 976              		.type	ADC_SAR_Seq_1_CountsTo_mVolts, %function
 977              	ADC_SAR_Seq_1_CountsTo_mVolts:
 978              	.LFB16:
 730:Generated_Source\PSoC4/ADC_SAR_Seq_1.c **** 
 731:Generated_Source\PSoC4/ADC_SAR_Seq_1.c **** 
 732:Generated_Source\PSoC4/ADC_SAR_Seq_1.c **** #if(ADC_SAR_Seq_1_DEFAULT_JUSTIFICATION_SEL == ADC_SAR_Seq_1__RIGHT)
 733:Generated_Source\PSoC4/ADC_SAR_Seq_1.c **** 
 734:Generated_Source\PSoC4/ADC_SAR_Seq_1.c **** 
 735:Generated_Source\PSoC4/ADC_SAR_Seq_1.c ****     /*******************************************************************************
 736:Generated_Source\PSoC4/ADC_SAR_Seq_1.c ****     * Function Name: ADC_SAR_Seq_1_CountsTo_mVolts
 737:Generated_Source\PSoC4/ADC_SAR_Seq_1.c ****     ********************************************************************************
 738:Generated_Source\PSoC4/ADC_SAR_Seq_1.c ****     *
 739:Generated_Source\PSoC4/ADC_SAR_Seq_1.c ****     * Summary:
 740:Generated_Source\PSoC4/ADC_SAR_Seq_1.c ****     *  This function converts ADC counts to mVolts
 741:Generated_Source\PSoC4/ADC_SAR_Seq_1.c ****     *  This function is not available when left data format justification selected.
 742:Generated_Source\PSoC4/ADC_SAR_Seq_1.c ****     *
 743:Generated_Source\PSoC4/ADC_SAR_Seq_1.c ****     * Parameters:
 744:Generated_Source\PSoC4/ADC_SAR_Seq_1.c ****     *  chan: The ADC channel number.
 745:Generated_Source\PSoC4/ADC_SAR_Seq_1.c ****     *  adcCounts: Result from the ADC conversion
 746:Generated_Source\PSoC4/ADC_SAR_Seq_1.c ****     *
 747:Generated_Source\PSoC4/ADC_SAR_Seq_1.c ****     * Return:
 748:Generated_Source\PSoC4/ADC_SAR_Seq_1.c ****     *  Results in mVolts
 749:Generated_Source\PSoC4/ADC_SAR_Seq_1.c ****     *
 750:Generated_Source\PSoC4/ADC_SAR_Seq_1.c ****     * Global variables:
 751:Generated_Source\PSoC4/ADC_SAR_Seq_1.c ****     *  ADC_SAR_Seq_1_countsPer10Volt:  used to convert ADC counts to mVolts.
 752:Generated_Source\PSoC4/ADC_SAR_Seq_1.c ****     *  ADC_SAR_Seq_1_Offset:  Used as the offset while converting ADC counts
 753:Generated_Source\PSoC4/ADC_SAR_Seq_1.c ****     *   to mVolts.
 754:Generated_Source\PSoC4/ADC_SAR_Seq_1.c ****     *
 755:Generated_Source\PSoC4/ADC_SAR_Seq_1.c ****     *******************************************************************************/
 756:Generated_Source\PSoC4/ADC_SAR_Seq_1.c ****     int16 ADC_SAR_Seq_1_CountsTo_mVolts(uint32 chan, int16 adcCounts)
 757:Generated_Source\PSoC4/ADC_SAR_Seq_1.c ****     {
 979              		.loc 1 757 0
 980              		.cfi_startproc
 981 0000 80B5     		push	{r7, lr}
 982              		.cfi_def_cfa_offset 8
 983              		.cfi_offset 7, -8
 984              		.cfi_offset 14, -4
 985 0002 84B0     		sub	sp, sp, #16
 986              		.cfi_def_cfa_offset 24
 987 0004 00AF     		add	r7, sp, #0
 988              		.cfi_def_cfa_register 7
 989 0006 7860     		str	r0, [r7, #4]
 990 0008 0A1C     		mov	r2, r1
 991 000a BB1C     		add	r3, r7, #2
 992 000c 1A80     		strh	r2, [r3]
 758:Generated_Source\PSoC4/ADC_SAR_Seq_1.c ****         int16 mVolts;
 759:Generated_Source\PSoC4/ADC_SAR_Seq_1.c **** 
 760:Generated_Source\PSoC4/ADC_SAR_Seq_1.c ****         /* Halt CPU in debug mode if channel is out of valid range */
 761:Generated_Source\PSoC4/ADC_SAR_Seq_1.c ****         CYASSERT(chan < ADC_SAR_Seq_1_TOTAL_CHANNELS_NUM);
 993              		.loc 1 761 0
 994 000e 7B68     		ldr	r3, [r7, #4]
 995 0010 012B     		cmp	r3, #1
 996 0012 02D9     		bls	.L71
 997              		.loc 1 761 0 is_stmt 0 discriminator 1
 998 0014 0020     		mov	r0, #0
 999 0016 FFF7FEFF 		bl	CyHalt
ARM GAS  C:\Users\GREG~1.PHI\AppData\Local\Temp\cce7Q4Hg.s 			page 32


 1000              	.L71:
 762:Generated_Source\PSoC4/ADC_SAR_Seq_1.c **** 
 763:Generated_Source\PSoC4/ADC_SAR_Seq_1.c ****         /* Divide the adcCount when accumulate averaging mode selected */
 764:Generated_Source\PSoC4/ADC_SAR_Seq_1.c ****         #if(ADC_SAR_Seq_1_DEFAULT_AVG_MODE == ADC_SAR_Seq_1__ACCUMULATE)
 765:Generated_Source\PSoC4/ADC_SAR_Seq_1.c ****             if((ADC_SAR_Seq_1_channelsConfig[chan] & ADC_SAR_Seq_1_AVERAGING_EN) != 0u)
 766:Generated_Source\PSoC4/ADC_SAR_Seq_1.c ****             {
 767:Generated_Source\PSoC4/ADC_SAR_Seq_1.c ****                 adcCounts /= ADC_SAR_Seq_1_DEFAULT_AVG_SAMPLES_DIV;
 768:Generated_Source\PSoC4/ADC_SAR_Seq_1.c ****             }
 769:Generated_Source\PSoC4/ADC_SAR_Seq_1.c ****         #endif /* ADC_SAR_Seq_1_DEFAULT_AVG_MODE == ADC_SAR_Seq_1__ACCUMULATE */
 770:Generated_Source\PSoC4/ADC_SAR_Seq_1.c **** 
 771:Generated_Source\PSoC4/ADC_SAR_Seq_1.c ****         /* Subtract ADC offset */
 772:Generated_Source\PSoC4/ADC_SAR_Seq_1.c ****         adcCounts -= ADC_SAR_Seq_1_offset[chan];
 1001              		.loc 1 772 0 is_stmt 1
 1002 001a 1F4B     		ldr	r3, .L77
 1003 001c 7A68     		ldr	r2, [r7, #4]
 1004 001e 5200     		lsl	r2, r2, #1
 1005 0020 D35A     		ldrh	r3, [r2, r3]
 1006 0022 99B2     		uxth	r1, r3
 1007 0024 BB1C     		add	r3, r7, #2
 1008 0026 1A88     		ldrh	r2, [r3]
 1009 0028 8BB2     		uxth	r3, r1
 1010 002a D31A     		sub	r3, r2, r3
 1011 002c 9AB2     		uxth	r2, r3
 1012 002e BB1C     		add	r3, r7, #2
 1013 0030 1A80     		strh	r2, [r3]
 773:Generated_Source\PSoC4/ADC_SAR_Seq_1.c **** 
 774:Generated_Source\PSoC4/ADC_SAR_Seq_1.c ****         mVolts = (int16)((((int32)adcCounts * ADC_SAR_Seq_1_10MV_COUNTS) + ( (adcCounts > 0) ?
 1014              		.loc 1 774 0
 1015 0032 BB1C     		add	r3, r7, #2
 1016 0034 0022     		mov	r2, #0
 1017 0036 9B5E     		ldrsh	r3, [r3, r2]
 1018 0038 184A     		ldr	r2, .L77+4
 1019 003a 5A43     		mul	r2, r3
 775:Generated_Source\PSoC4/ADC_SAR_Seq_1.c ****                  (ADC_SAR_Seq_1_countsPer10Volt[chan] / 2) : (-(ADC_SAR_Seq_1_countsPer10Volt[chan]
 1020              		.loc 1 775 0
 1021 003c BB1C     		add	r3, r7, #2
 1022 003e 0021     		mov	r1, #0
 1023 0040 5B5E     		ldrsh	r3, [r3, r1]
 1024 0042 002B     		cmp	r3, #0
 1025 0044 08DD     		ble	.L72
 1026              		.loc 1 775 0 is_stmt 0 discriminator 1
 1027 0046 164B     		ldr	r3, .L77+8
 1028 0048 7968     		ldr	r1, [r7, #4]
 1029 004a 8900     		lsl	r1, r1, #2
 1030 004c CB58     		ldr	r3, [r1, r3]
 1031 004e 002B     		cmp	r3, #0
 1032 0050 00DA     		bge	.L73
 1033 0052 0133     		add	r3, r3, #1
 1034              	.L73:
 1035 0054 5B10     		asr	r3, r3, #1
 1036 0056 08E0     		b	.L74
 1037              	.L72:
 1038              		.loc 1 775 0 discriminator 2
 1039 0058 114B     		ldr	r3, .L77+8
 1040 005a 7968     		ldr	r1, [r7, #4]
 1041 005c 8900     		lsl	r1, r1, #2
 1042 005e CB58     		ldr	r3, [r1, r3]
ARM GAS  C:\Users\GREG~1.PHI\AppData\Local\Temp\cce7Q4Hg.s 			page 33


 1043 0060 002B     		cmp	r3, #0
 1044 0062 00DA     		bge	.L75
 1045 0064 0133     		add	r3, r3, #1
 1046              	.L75:
 1047 0066 5B10     		asr	r3, r3, #1
 1048 0068 5B42     		neg	r3, r3
 1049              	.L74:
 774:Generated_Source\PSoC4/ADC_SAR_Seq_1.c ****                  (ADC_SAR_Seq_1_countsPer10Volt[chan] / 2) : (-(ADC_SAR_Seq_1_countsPer10Volt[chan]
 1050              		.loc 1 774 0 is_stmt 1
 1051 006a D118     		add	r1, r2, r3
 776:Generated_Source\PSoC4/ADC_SAR_Seq_1.c ****                  / ADC_SAR_Seq_1_countsPer10Volt[chan]);
 1052              		.loc 1 776 0
 1053 006c 0C4B     		ldr	r3, .L77+8
 1054 006e 7A68     		ldr	r2, [r7, #4]
 1055 0070 9200     		lsl	r2, r2, #2
 1056 0072 D358     		ldr	r3, [r2, r3]
 1057 0074 081C     		mov	r0, r1
 1058 0076 191C     		mov	r1, r3
 1059 0078 FFF7FEFF 		bl	__aeabi_idiv
 1060 007c 031C     		mov	r3, r0
 1061 007e 1A1C     		mov	r2, r3
 774:Generated_Source\PSoC4/ADC_SAR_Seq_1.c ****                  (ADC_SAR_Seq_1_countsPer10Volt[chan] / 2) : (-(ADC_SAR_Seq_1_countsPer10Volt[chan]
 1062              		.loc 1 774 0
 1063 0080 0E23     		mov	r3, #14
 1064 0082 FB18     		add	r3, r7, r3
 1065 0084 1A80     		strh	r2, [r3]
 777:Generated_Source\PSoC4/ADC_SAR_Seq_1.c **** 
 778:Generated_Source\PSoC4/ADC_SAR_Seq_1.c ****         return( mVolts );
 1066              		.loc 1 778 0
 1067 0086 0E23     		mov	r3, #14
 1068 0088 FB18     		add	r3, r7, r3
 1069 008a 1B88     		ldrh	r3, [r3]
 1070 008c 1BB2     		sxth	r3, r3
 779:Generated_Source\PSoC4/ADC_SAR_Seq_1.c ****     }
 1071              		.loc 1 779 0
 1072 008e 181C     		mov	r0, r3
 1073 0090 BD46     		mov	sp, r7
 1074 0092 04B0     		add	sp, sp, #16
 1075              		@ sp needed
 1076 0094 80BD     		pop	{r7, pc}
 1077              	.L78:
 1078 0096 C046     		.align	2
 1079              	.L77:
 1080 0098 00000000 		.word	ADC_SAR_Seq_1_offset
 1081 009c 10270000 		.word	10000
 1082 00a0 00000000 		.word	ADC_SAR_Seq_1_countsPer10Volt
 1083              		.cfi_endproc
 1084              	.LFE16:
 1085              		.size	ADC_SAR_Seq_1_CountsTo_mVolts, .-ADC_SAR_Seq_1_CountsTo_mVolts
 1086              		.global	__aeabi_lmul
 1087              		.global	__aeabi_ldivmod
 1088              		.section	.text.ADC_SAR_Seq_1_CountsTo_uVolts,"ax",%progbits
 1089              		.align	2
 1090              		.global	ADC_SAR_Seq_1_CountsTo_uVolts
 1091              		.code	16
 1092              		.thumb_func
 1093              		.type	ADC_SAR_Seq_1_CountsTo_uVolts, %function
ARM GAS  C:\Users\GREG~1.PHI\AppData\Local\Temp\cce7Q4Hg.s 			page 34


 1094              	ADC_SAR_Seq_1_CountsTo_uVolts:
 1095              	.LFB17:
 780:Generated_Source\PSoC4/ADC_SAR_Seq_1.c **** 
 781:Generated_Source\PSoC4/ADC_SAR_Seq_1.c **** 
 782:Generated_Source\PSoC4/ADC_SAR_Seq_1.c ****     /*******************************************************************************
 783:Generated_Source\PSoC4/ADC_SAR_Seq_1.c ****     * Function Name: ADC_SAR_Seq_1_CountsTo_uVolts
 784:Generated_Source\PSoC4/ADC_SAR_Seq_1.c ****     ********************************************************************************
 785:Generated_Source\PSoC4/ADC_SAR_Seq_1.c ****     *
 786:Generated_Source\PSoC4/ADC_SAR_Seq_1.c ****     * Summary:
 787:Generated_Source\PSoC4/ADC_SAR_Seq_1.c ****     *  This function converts ADC counts to micro Volts
 788:Generated_Source\PSoC4/ADC_SAR_Seq_1.c ****     *  This function is not available when left data format justification selected.
 789:Generated_Source\PSoC4/ADC_SAR_Seq_1.c ****     *
 790:Generated_Source\PSoC4/ADC_SAR_Seq_1.c ****     * Parameters:
 791:Generated_Source\PSoC4/ADC_SAR_Seq_1.c ****     *  chan: The ADC channel number.
 792:Generated_Source\PSoC4/ADC_SAR_Seq_1.c ****     *  adcCounts: Result from the ADC conversion
 793:Generated_Source\PSoC4/ADC_SAR_Seq_1.c ****     *
 794:Generated_Source\PSoC4/ADC_SAR_Seq_1.c ****     * Return:
 795:Generated_Source\PSoC4/ADC_SAR_Seq_1.c ****     *  Results in uVolts
 796:Generated_Source\PSoC4/ADC_SAR_Seq_1.c ****     *
 797:Generated_Source\PSoC4/ADC_SAR_Seq_1.c ****     * Global variables:
 798:Generated_Source\PSoC4/ADC_SAR_Seq_1.c ****     *  ADC_SAR_Seq_1_countsPer10Volt:  used to convert ADC counts to uVolts.
 799:Generated_Source\PSoC4/ADC_SAR_Seq_1.c ****     *  ADC_SAR_Seq_1_Offset:  Used as the offset while converting ADC counts
 800:Generated_Source\PSoC4/ADC_SAR_Seq_1.c ****     *   to mVolts.
 801:Generated_Source\PSoC4/ADC_SAR_Seq_1.c ****     *
 802:Generated_Source\PSoC4/ADC_SAR_Seq_1.c ****     * Theory:
 803:Generated_Source\PSoC4/ADC_SAR_Seq_1.c ****     *  Care must be taken to not exceed the maximum value for a 31 bit signed
 804:Generated_Source\PSoC4/ADC_SAR_Seq_1.c ****     *  number in the conversion to uVolts and at the same time not loose
 805:Generated_Source\PSoC4/ADC_SAR_Seq_1.c ****     *  resolution.
 806:Generated_Source\PSoC4/ADC_SAR_Seq_1.c ****     *  To convert adcCounts to microVolts it is required to be multiplied
 807:Generated_Source\PSoC4/ADC_SAR_Seq_1.c ****     *  on 10 million and later divide on gain in counts per 10V.
 808:Generated_Source\PSoC4/ADC_SAR_Seq_1.c ****     *
 809:Generated_Source\PSoC4/ADC_SAR_Seq_1.c ****     *******************************************************************************/
 810:Generated_Source\PSoC4/ADC_SAR_Seq_1.c ****     int32 ADC_SAR_Seq_1_CountsTo_uVolts(uint32 chan, int16 adcCounts)
 811:Generated_Source\PSoC4/ADC_SAR_Seq_1.c ****     {
 1096              		.loc 1 811 0
 1097              		.cfi_startproc
 1098 0000 B0B5     		push	{r4, r5, r7, lr}
 1099              		.cfi_def_cfa_offset 16
 1100              		.cfi_offset 4, -16
 1101              		.cfi_offset 5, -12
 1102              		.cfi_offset 7, -8
 1103              		.cfi_offset 14, -4
 1104 0002 86B0     		sub	sp, sp, #24
 1105              		.cfi_def_cfa_offset 40
 1106 0004 00AF     		add	r7, sp, #0
 1107              		.cfi_def_cfa_register 7
 1108 0006 F860     		str	r0, [r7, #12]
 1109 0008 0A1C     		mov	r2, r1
 1110 000a 0A23     		mov	r3, #10
 1111 000c FB18     		add	r3, r7, r3
 1112 000e 1A80     		strh	r2, [r3]
 812:Generated_Source\PSoC4/ADC_SAR_Seq_1.c ****         int64 uVolts;
 813:Generated_Source\PSoC4/ADC_SAR_Seq_1.c **** 
 814:Generated_Source\PSoC4/ADC_SAR_Seq_1.c ****         /* Halt CPU in debug mode if channel is out of valid range */
 815:Generated_Source\PSoC4/ADC_SAR_Seq_1.c ****         CYASSERT(chan < ADC_SAR_Seq_1_TOTAL_CHANNELS_NUM);
 1113              		.loc 1 815 0
 1114 0010 FB68     		ldr	r3, [r7, #12]
ARM GAS  C:\Users\GREG~1.PHI\AppData\Local\Temp\cce7Q4Hg.s 			page 35


 1115 0012 012B     		cmp	r3, #1
 1116 0014 02D9     		bls	.L80
 1117              		.loc 1 815 0 is_stmt 0 discriminator 1
 1118 0016 0020     		mov	r0, #0
 1119 0018 FFF7FEFF 		bl	CyHalt
 1120              	.L80:
 816:Generated_Source\PSoC4/ADC_SAR_Seq_1.c **** 
 817:Generated_Source\PSoC4/ADC_SAR_Seq_1.c ****         /* Divide the adcCount when accumulate averaging mode selected */
 818:Generated_Source\PSoC4/ADC_SAR_Seq_1.c ****         #if(ADC_SAR_Seq_1_DEFAULT_AVG_MODE == ADC_SAR_Seq_1__ACCUMULATE)
 819:Generated_Source\PSoC4/ADC_SAR_Seq_1.c ****             if((ADC_SAR_Seq_1_channelsConfig[chan] & ADC_SAR_Seq_1_AVERAGING_EN) != 0u)
 820:Generated_Source\PSoC4/ADC_SAR_Seq_1.c ****             {
 821:Generated_Source\PSoC4/ADC_SAR_Seq_1.c ****                 adcCounts /= ADC_SAR_Seq_1_DEFAULT_AVG_SAMPLES_DIV;
 822:Generated_Source\PSoC4/ADC_SAR_Seq_1.c ****             }
 823:Generated_Source\PSoC4/ADC_SAR_Seq_1.c ****         #endif /* ADC_SAR_Seq_1_DEFAULT_AVG_MODE == ADC_SAR_Seq_1__ACCUMULATE */
 824:Generated_Source\PSoC4/ADC_SAR_Seq_1.c **** 
 825:Generated_Source\PSoC4/ADC_SAR_Seq_1.c ****         /* Subtract ADC offset */
 826:Generated_Source\PSoC4/ADC_SAR_Seq_1.c ****         adcCounts -= ADC_SAR_Seq_1_offset[chan];
 1121              		.loc 1 826 0 is_stmt 1
 1122 001c 194B     		ldr	r3, .L82
 1123 001e FA68     		ldr	r2, [r7, #12]
 1124 0020 5200     		lsl	r2, r2, #1
 1125 0022 D35A     		ldrh	r3, [r2, r3]
 1126 0024 99B2     		uxth	r1, r3
 1127 0026 0A23     		mov	r3, #10
 1128 0028 FB18     		add	r3, r7, r3
 1129 002a 1A88     		ldrh	r2, [r3]
 1130 002c 8BB2     		uxth	r3, r1
 1131 002e D31A     		sub	r3, r2, r3
 1132 0030 9AB2     		uxth	r2, r3
 1133 0032 0A23     		mov	r3, #10
 1134 0034 FB18     		add	r3, r7, r3
 1135 0036 1A80     		strh	r2, [r3]
 827:Generated_Source\PSoC4/ADC_SAR_Seq_1.c **** 
 828:Generated_Source\PSoC4/ADC_SAR_Seq_1.c ****         uVolts = ((int64)adcCounts * ADC_SAR_Seq_1_10UV_COUNTS) / ADC_SAR_Seq_1_countsPer10Volt[cha
 1136              		.loc 1 828 0
 1137 0038 0A23     		mov	r3, #10
 1138 003a FB18     		add	r3, r7, r3
 1139 003c 1B88     		ldrh	r3, [r3]
 1140 003e 1BB2     		sxth	r3, r3
 1141 0040 3B60     		str	r3, [r7]
 1142 0042 DB17     		asr	r3, r3, #31
 1143 0044 7B60     		str	r3, [r7, #4]
 1144 0046 3868     		ldr	r0, [r7]
 1145 0048 7968     		ldr	r1, [r7, #4]
 1146 004a 0F4A     		ldr	r2, .L82+4
 1147 004c 0023     		mov	r3, #0
 1148 004e FFF7FEFF 		bl	__aeabi_lmul
 1149 0052 021C     		mov	r2, r0
 1150 0054 0B1C     		mov	r3, r1
 1151 0056 101C     		mov	r0, r2
 1152 0058 191C     		mov	r1, r3
 1153 005a 0C4B     		ldr	r3, .L82+8
 1154 005c FA68     		ldr	r2, [r7, #12]
 1155 005e 9200     		lsl	r2, r2, #2
 1156 0060 D358     		ldr	r3, [r2, r3]
 1157 0062 1C1C     		mov	r4, r3
 1158 0064 DB17     		asr	r3, r3, #31
ARM GAS  C:\Users\GREG~1.PHI\AppData\Local\Temp\cce7Q4Hg.s 			page 36


 1159 0066 1D1C     		mov	r5, r3
 1160 0068 221C     		mov	r2, r4
 1161 006a 2B1C     		mov	r3, r5
 1162 006c FFF7FEFF 		bl	__aeabi_ldivmod
 1163 0070 031C     		mov	r3, r0
 1164 0072 0C1C     		mov	r4, r1
 1165 0074 3B61     		str	r3, [r7, #16]
 1166 0076 7C61     		str	r4, [r7, #20]
 829:Generated_Source\PSoC4/ADC_SAR_Seq_1.c **** 
 830:Generated_Source\PSoC4/ADC_SAR_Seq_1.c ****         return( (int32)uVolts );
 1167              		.loc 1 830 0
 1168 0078 3B69     		ldr	r3, [r7, #16]
 831:Generated_Source\PSoC4/ADC_SAR_Seq_1.c ****     }
 1169              		.loc 1 831 0
 1170 007a 181C     		mov	r0, r3
 1171 007c BD46     		mov	sp, r7
 1172 007e 06B0     		add	sp, sp, #24
 1173              		@ sp needed
 1174 0080 B0BD     		pop	{r4, r5, r7, pc}
 1175              	.L83:
 1176 0082 C046     		.align	2
 1177              	.L82:
 1178 0084 00000000 		.word	ADC_SAR_Seq_1_offset
 1179 0088 80969800 		.word	10000000
 1180 008c 00000000 		.word	ADC_SAR_Seq_1_countsPer10Volt
 1181              		.cfi_endproc
 1182              	.LFE17:
 1183              		.size	ADC_SAR_Seq_1_CountsTo_uVolts, .-ADC_SAR_Seq_1_CountsTo_uVolts
 1184              		.global	__aeabi_i2f
 1185              		.global	__aeabi_fmul
 1186              		.global	__aeabi_fdiv
 1187              		.section	.text.ADC_SAR_Seq_1_CountsTo_Volts,"ax",%progbits
 1188              		.align	2
 1189              		.global	ADC_SAR_Seq_1_CountsTo_Volts
 1190              		.code	16
 1191              		.thumb_func
 1192              		.type	ADC_SAR_Seq_1_CountsTo_Volts, %function
 1193              	ADC_SAR_Seq_1_CountsTo_Volts:
 1194              	.LFB18:
 832:Generated_Source\PSoC4/ADC_SAR_Seq_1.c **** 
 833:Generated_Source\PSoC4/ADC_SAR_Seq_1.c **** 
 834:Generated_Source\PSoC4/ADC_SAR_Seq_1.c ****     /*******************************************************************************
 835:Generated_Source\PSoC4/ADC_SAR_Seq_1.c ****     * Function Name: ADC_SAR_Seq_1_CountsTo_Volts
 836:Generated_Source\PSoC4/ADC_SAR_Seq_1.c ****     ********************************************************************************
 837:Generated_Source\PSoC4/ADC_SAR_Seq_1.c ****     *
 838:Generated_Source\PSoC4/ADC_SAR_Seq_1.c ****     * Summary:
 839:Generated_Source\PSoC4/ADC_SAR_Seq_1.c ****     *  Converts the ADC output to Volts as a floating point number.
 840:Generated_Source\PSoC4/ADC_SAR_Seq_1.c ****     *  This function is not available when left data format justification selected.
 841:Generated_Source\PSoC4/ADC_SAR_Seq_1.c ****     *
 842:Generated_Source\PSoC4/ADC_SAR_Seq_1.c ****     * Parameters:
 843:Generated_Source\PSoC4/ADC_SAR_Seq_1.c ****     *  chan: The ADC channel number.
 844:Generated_Source\PSoC4/ADC_SAR_Seq_1.c ****     *  Result from the ADC conversion
 845:Generated_Source\PSoC4/ADC_SAR_Seq_1.c ****     *
 846:Generated_Source\PSoC4/ADC_SAR_Seq_1.c ****     * Return:
 847:Generated_Source\PSoC4/ADC_SAR_Seq_1.c ****     *  Results in Volts
 848:Generated_Source\PSoC4/ADC_SAR_Seq_1.c ****     *
 849:Generated_Source\PSoC4/ADC_SAR_Seq_1.c ****     * Global variables:
ARM GAS  C:\Users\GREG~1.PHI\AppData\Local\Temp\cce7Q4Hg.s 			page 37


 850:Generated_Source\PSoC4/ADC_SAR_Seq_1.c ****     *  ADC_SAR_Seq_1_countsPer10Volt:  used to convert ADC counts to Volts.
 851:Generated_Source\PSoC4/ADC_SAR_Seq_1.c ****     *  ADC_SAR_Seq_1_Offset:  Used as the offset while converting ADC counts
 852:Generated_Source\PSoC4/ADC_SAR_Seq_1.c ****     *   to mVolts.
 853:Generated_Source\PSoC4/ADC_SAR_Seq_1.c ****     *
 854:Generated_Source\PSoC4/ADC_SAR_Seq_1.c ****     *******************************************************************************/
 855:Generated_Source\PSoC4/ADC_SAR_Seq_1.c ****     float32 ADC_SAR_Seq_1_CountsTo_Volts(uint32 chan, int16 adcCounts)
 856:Generated_Source\PSoC4/ADC_SAR_Seq_1.c ****     {
 1195              		.loc 1 856 0
 1196              		.cfi_startproc
 1197 0000 90B5     		push	{r4, r7, lr}
 1198              		.cfi_def_cfa_offset 12
 1199              		.cfi_offset 4, -12
 1200              		.cfi_offset 7, -8
 1201              		.cfi_offset 14, -4
 1202 0002 85B0     		sub	sp, sp, #20
 1203              		.cfi_def_cfa_offset 32
 1204 0004 00AF     		add	r7, sp, #0
 1205              		.cfi_def_cfa_register 7
 1206 0006 7860     		str	r0, [r7, #4]
 1207 0008 0A1C     		mov	r2, r1
 1208 000a BB1C     		add	r3, r7, #2
 1209 000c 1A80     		strh	r2, [r3]
 857:Generated_Source\PSoC4/ADC_SAR_Seq_1.c ****         float32 volts;
 858:Generated_Source\PSoC4/ADC_SAR_Seq_1.c **** 
 859:Generated_Source\PSoC4/ADC_SAR_Seq_1.c ****         /* Halt CPU in debug mode if channel is out of valid range */
 860:Generated_Source\PSoC4/ADC_SAR_Seq_1.c ****         CYASSERT(chan < ADC_SAR_Seq_1_TOTAL_CHANNELS_NUM);
 1210              		.loc 1 860 0
 1211 000e 7B68     		ldr	r3, [r7, #4]
 1212 0010 012B     		cmp	r3, #1
 1213 0012 02D9     		bls	.L85
 1214              		.loc 1 860 0 is_stmt 0 discriminator 1
 1215 0014 0020     		mov	r0, #0
 1216 0016 FFF7FEFF 		bl	CyHalt
 1217              	.L85:
 861:Generated_Source\PSoC4/ADC_SAR_Seq_1.c **** 
 862:Generated_Source\PSoC4/ADC_SAR_Seq_1.c ****         /* Divide the adcCount when accumulate averaging mode selected */
 863:Generated_Source\PSoC4/ADC_SAR_Seq_1.c ****         #if(ADC_SAR_Seq_1_DEFAULT_AVG_MODE == ADC_SAR_Seq_1__ACCUMULATE)
 864:Generated_Source\PSoC4/ADC_SAR_Seq_1.c ****             if((ADC_SAR_Seq_1_channelsConfig[chan] & ADC_SAR_Seq_1_AVERAGING_EN) != 0u)
 865:Generated_Source\PSoC4/ADC_SAR_Seq_1.c ****             {
 866:Generated_Source\PSoC4/ADC_SAR_Seq_1.c ****                 adcCounts /= ADC_SAR_Seq_1_DEFAULT_AVG_SAMPLES_DIV;
 867:Generated_Source\PSoC4/ADC_SAR_Seq_1.c ****             }
 868:Generated_Source\PSoC4/ADC_SAR_Seq_1.c ****         #endif /* ADC_SAR_Seq_1_DEFAULT_AVG_MODE == ADC_SAR_Seq_1__ACCUMULATE */
 869:Generated_Source\PSoC4/ADC_SAR_Seq_1.c **** 
 870:Generated_Source\PSoC4/ADC_SAR_Seq_1.c ****         /* Subtract ADC offset */
 871:Generated_Source\PSoC4/ADC_SAR_Seq_1.c ****         adcCounts -= ADC_SAR_Seq_1_offset[chan];
 1218              		.loc 1 871 0 is_stmt 1
 1219 001a 164B     		ldr	r3, .L87
 1220 001c 7A68     		ldr	r2, [r7, #4]
 1221 001e 5200     		lsl	r2, r2, #1
 1222 0020 D35A     		ldrh	r3, [r2, r3]
 1223 0022 99B2     		uxth	r1, r3
 1224 0024 BB1C     		add	r3, r7, #2
 1225 0026 1A88     		ldrh	r2, [r3]
 1226 0028 8BB2     		uxth	r3, r1
 1227 002a D31A     		sub	r3, r2, r3
 1228 002c 9AB2     		uxth	r2, r3
 1229 002e BB1C     		add	r3, r7, #2
ARM GAS  C:\Users\GREG~1.PHI\AppData\Local\Temp\cce7Q4Hg.s 			page 38


 1230 0030 1A80     		strh	r2, [r3]
 872:Generated_Source\PSoC4/ADC_SAR_Seq_1.c **** 
 873:Generated_Source\PSoC4/ADC_SAR_Seq_1.c ****         volts = ((float32)adcCounts * ADC_SAR_Seq_1_10V_COUNTS) / (float32)ADC_SAR_Seq_1_countsPer1
 1231              		.loc 1 873 0
 1232 0032 BB1C     		add	r3, r7, #2
 1233 0034 0022     		mov	r2, #0
 1234 0036 9B5E     		ldrsh	r3, [r3, r2]
 1235 0038 181C     		mov	r0, r3
 1236 003a FFF7FEFF 		bl	__aeabi_i2f
 1237 003e 031C     		add	r3, r0, #0
 1238 0040 181C     		add	r0, r3, #0
 1239 0042 0D49     		ldr	r1, .L87+4
 1240 0044 FFF7FEFF 		bl	__aeabi_fmul
 1241 0048 031C     		add	r3, r0, #0
 1242 004a 1C1C     		add	r4, r3, #0
 1243 004c 0B4B     		ldr	r3, .L87+8
 1244 004e 7A68     		ldr	r2, [r7, #4]
 1245 0050 9200     		lsl	r2, r2, #2
 1246 0052 D358     		ldr	r3, [r2, r3]
 1247 0054 181C     		mov	r0, r3
 1248 0056 FFF7FEFF 		bl	__aeabi_i2f
 1249 005a 031C     		add	r3, r0, #0
 1250 005c 201C     		add	r0, r4, #0
 1251 005e 191C     		add	r1, r3, #0
 1252 0060 FFF7FEFF 		bl	__aeabi_fdiv
 1253 0064 031C     		add	r3, r0, #0
 1254 0066 FB60     		str	r3, [r7, #12]
 874:Generated_Source\PSoC4/ADC_SAR_Seq_1.c **** 
 875:Generated_Source\PSoC4/ADC_SAR_Seq_1.c ****         return( volts );
 1255              		.loc 1 875 0
 1256 0068 FB68     		ldr	r3, [r7, #12]
 876:Generated_Source\PSoC4/ADC_SAR_Seq_1.c ****     }
 1257              		.loc 1 876 0
 1258 006a 181C     		add	r0, r3, #0
 1259 006c BD46     		mov	sp, r7
 1260 006e 05B0     		add	sp, sp, #20
 1261              		@ sp needed
 1262 0070 90BD     		pop	{r4, r7, pc}
 1263              	.L88:
 1264 0072 C046     		.align	2
 1265              	.L87:
 1266 0074 00000000 		.word	ADC_SAR_Seq_1_offset
 1267 0078 00002041 		.word	1092616192
 1268 007c 00000000 		.word	ADC_SAR_Seq_1_countsPer10Volt
 1269              		.cfi_endproc
 1270              	.LFE18:
 1271              		.size	ADC_SAR_Seq_1_CountsTo_Volts, .-ADC_SAR_Seq_1_CountsTo_Volts
 1272              		.section	.rodata
 1273              		.align	2
 1274              		.type	ADC_SAR_Seq_1_InputsPlacement.4852, %object
 1275              		.size	ADC_SAR_Seq_1_InputsPlacement.4852, 2
 1276              	ADC_SAR_Seq_1_InputsPlacement.4852:
 1277 0008 04       		.byte	4
 1278 0009 06       		.byte	6
 1279 000a 0000     		.text
 1280              	.Letext0:
 1281              		.file 2 "Generated_Source\\PSoC4\\cytypes.h"
ARM GAS  C:\Users\GREG~1.PHI\AppData\Local\Temp\cce7Q4Hg.s 			page 39

