ARM GAS  C:\Users\GREG~1.PHI\AppData\Local\Temp\ccwVfIN7.s 			page 1


   1              		.cpu cortex-m0
   2              		.fpu softvfp
   3              		.eabi_attribute 20, 1
   4              		.eabi_attribute 21, 1
   5              		.eabi_attribute 23, 3
   6              		.eabi_attribute 24, 1
   7              		.eabi_attribute 25, 1
   8              		.eabi_attribute 26, 1
   9              		.eabi_attribute 30, 6
  10              		.eabi_attribute 34, 0
  11              		.eabi_attribute 18, 4
  12              		.code	16
  13              		.file	"controls.c"
  14              		.text
  15              	.Ltext0:
  16              		.cfi_sections	.debug_frame
  17              		.section	.text.init_controls,"ax",%progbits
  18              		.align	2
  19              		.global	init_controls
  20              		.code	16
  21              		.thumb_func
  22              		.type	init_controls, %function
  23              	init_controls:
  24              	.LFB36:
  25              		.file 1 "controls.c"
   1:controls.c    **** /*
   2:controls.c    ****  * Copyright 2017, Sierra Telecom. All Rights Reserved.
   3:controls.c    ****  *
   4:controls.c    ****  * This software, associated documentation and materials ("Software"),
   5:controls.c    ****  * is owned by Sierra Telecom ("Sierra") and is protected by and subject to
   6:controls.c    ****  * worldwide patent protection (United States and foreign),
   7:controls.c    ****  * United States copyright laws and international treaty provisions.
   8:controls.c    ****  * Therefore, you may use this Software only as provided in the license
   9:controls.c    ****  * agreement accompanying the software package from which you
  10:controls.c    ****  * obtained this Software ("EULA").
  11:controls.c    ****  * If no EULA applies, Sierra hereby grants you a personal, non-exclusive,
  12:controls.c    ****  * non-transferable license to copy, modify, and compile the Software
  13:controls.c    ****  * source code solely for use in connection with Sierra's
  14:controls.c    ****  * integrated circuit products. Any reproduction, modification, translation,
  15:controls.c    ****  * compilation, or representation of this Software except as specified
  16:controls.c    ****  * above is prohibited without the express written permission of Sierra.
  17:controls.c    ****  *
  18:controls.c    ****  * Disclaimer: THIS SOFTWARE IS PROVIDED AS-IS, WITH NO WARRANTY OF ANY KIND,
  19:controls.c    ****  * EXPRESS OR IMPLIED, INCLUDING, BUT NOT LIMITED TO, NONINFRINGEMENT, IMPLIED
  20:controls.c    ****  * WARRANTIES OF MERCHANTABILITY AND FITNESS FOR A PARTICULAR PURPOSE. Sierra
  21:controls.c    ****  * reserves the right to make changes to the Software without notice. Sierra
  22:controls.c    ****  * does not assume any liability arising out of the application or use of the
  23:controls.c    ****  * Software or any product or circuit described in the Software. Sierra does
  24:controls.c    ****  * not authorize its products for use in any products where a malfunction or
  25:controls.c    ****  * failure of the Sierra product may reasonably be expected to result in
  26:controls.c    ****  * significant property damage, injury or death ("High Risk Product"). By
  27:controls.c    ****  * including Sierra's product in a High Risk Product, the manufacturer
  28:controls.c    ****  * of such system or application assumes all risk of such use and in doing
  29:controls.c    ****  * so agrees to indemnify Sierra against all liability.
  30:controls.c    ****  */
  31:controls.c    **** /** @file cypress_slave_spi.c
  32:controls.c    ****  *
ARM GAS  C:\Users\GREG~1.PHI\AppData\Local\Temp\ccwVfIN7.s 			page 2


  33:controls.c    ****  *  Created on: April 26, 2017
  34:controls.c    ****  *      Author: greg.phillips
  35:controls.c    ****  */
  36:controls.c    **** 
  37:controls.c    **** 
  38:controls.c    **** 
  39:controls.c    **** #include <project.h>
  40:controls.c    **** #include <stdint.h>
  41:controls.c    **** #include <stdbool.h>
  42:controls.c    **** #include <stdlib.h>
  43:controls.c    **** 
  44:controls.c    **** #include "leds.h"
  45:controls.c    **** #include "arduino.h"
  46:controls.c    **** #include "cypress_arduino.h"
  47:controls.c    **** /******************************************************
  48:controls.c    ****  *                      Macros
  49:controls.c    ****  ******************************************************/
  50:controls.c    **** 
  51:controls.c    **** /******************************************************
  52:controls.c    ****  *                    Constants
  53:controls.c    ****  ******************************************************/
  54:controls.c    **** 
  55:controls.c    **** /******************************************************
  56:controls.c    ****  *                   Enumerations
  57:controls.c    ****  ******************************************************/
  58:controls.c    **** 
  59:controls.c    **** /******************************************************
  60:controls.c    ****  *                 Type Definitions
  61:controls.c    ****  ******************************************************/
  62:controls.c    **** 
  63:controls.c    **** /******************************************************
  64:controls.c    ****  *                    Structures
  65:controls.c    ****  ******************************************************/
  66:controls.c    **** 
  67:controls.c    **** /******************************************************
  68:controls.c    ****  *               Function Declarations
  69:controls.c    ****  ******************************************************/
  70:controls.c    **** 
  71:controls.c    **** /******************************************************
  72:controls.c    ****  *               Variable Definitions
  73:controls.c    ****  ******************************************************/
  74:controls.c    **** 
  75:controls.c    **** /******************************************************
  76:controls.c    ****  *               Function Definitions
  77:controls.c    ****  ******************************************************/
  78:controls.c    **** 
  79:controls.c    **** void init_controls(void)
  80:controls.c    **** {
  26              		.loc 1 80 0
  27              		.cfi_startproc
  28 0000 80B5     		push	{r7, lr}
  29              		.cfi_def_cfa_offset 8
  30              		.cfi_offset 7, -8
  31              		.cfi_offset 14, -4
  32 0002 00AF     		add	r7, sp, #0
  33              		.cfi_def_cfa_register 7
  81:controls.c    ****     /*
ARM GAS  C:\Users\GREG~1.PHI\AppData\Local\Temp\ccwVfIN7.s 			page 3


  82:controls.c    ****      * Initialize the RGB LED to OFF
  83:controls.c    ****      */ 
  84:controls.c    ****     RGB_LED_OFF;
  34              		.loc 1 84 0
  35 0004 0120     		mov	r0, #1
  36 0006 FFF7FEFF 		bl	LED_RED_Write
  37 000a 0120     		mov	r0, #1
  38 000c FFF7FEFF 		bl	LED_GREEN_Write
  39 0010 0120     		mov	r0, #1
  40 0012 FFF7FEFF 		bl	LED_BLUE_Write
  85:controls.c    **** }
  41              		.loc 1 85 0
  42 0016 BD46     		mov	sp, r7
  43              		@ sp needed
  44 0018 80BD     		pop	{r7, pc}
  45              		.cfi_endproc
  46              	.LFE36:
  47              		.size	init_controls, .-init_controls
  48 001a C046     		.section	.text.process_controls,"ax",%progbits
  49              		.align	2
  50              		.global	process_controls
  51              		.code	16
  52              		.thumb_func
  53              		.type	process_controls, %function
  54              	process_controls:
  55              	.LFB37:
  86:controls.c    **** 
  87:controls.c    **** /**
  88:controls.c    ****   * @brief any controls events
  89:controls.c    ****   * @param  None
  90:controls.c    ****   * @retval : None
  91:controls.c    ****   */
  92:controls.c    **** 
  93:controls.c    **** 
  94:controls.c    **** void process_controls(void)
  95:controls.c    **** {
  56              		.loc 1 95 0
  57              		.cfi_startproc
  58 0000 80B5     		push	{r7, lr}
  59              		.cfi_def_cfa_offset 8
  60              		.cfi_offset 7, -8
  61              		.cfi_offset 14, -4
  62 0002 00AF     		add	r7, sp, #0
  63              		.cfi_def_cfa_register 7
  96:controls.c    **** 
  97:controls.c    **** }
  64              		.loc 1 97 0
  65 0004 BD46     		mov	sp, r7
  66              		@ sp needed
  67 0006 80BD     		pop	{r7, pc}
  68              		.cfi_endproc
  69              	.LFE37:
  70              		.size	process_controls, .-process_controls
  71              		.text
  72              	.Letext0: