ARM GAS  C:\Users\GREG~1.PHI\AppData\Local\Temp\cckB4vVc.s 			page 1


   1              		.cpu cortex-m0
   2              		.fpu softvfp
   3              		.eabi_attribute 20, 1
   4              		.eabi_attribute 21, 1
   5              		.eabi_attribute 23, 3
   6              		.eabi_attribute 24, 1
   7              		.eabi_attribute 25, 1
   8              		.eabi_attribute 26, 1
   9              		.eabi_attribute 30, 6
  10              		.eabi_attribute 34, 0
  11              		.eabi_attribute 18, 4
  12              		.code	16
  13              		.file	"CyDMA.c"
  14              		.text
  15              	.Ltext0:
  16              		.cfi_sections	.debug_frame
  17              		.data
  18              		.align	2
  19              		.type	CyDmaInterruptCallback, %object
  20              		.size	CyDmaInterruptCallback, 128
  21              	CyDmaInterruptCallback:
  22 0000 00000000 		.word	CyDmaDefaultInterruptCallback
  23 0004 00000000 		.word	CyDmaDefaultInterruptCallback
  24 0008 00000000 		.word	CyDmaDefaultInterruptCallback
  25 000c 00000000 		.word	CyDmaDefaultInterruptCallback
  26 0010 00000000 		.word	CyDmaDefaultInterruptCallback
  27 0014 00000000 		.word	CyDmaDefaultInterruptCallback
  28 0018 00000000 		.word	CyDmaDefaultInterruptCallback
  29 001c 00000000 		.word	CyDmaDefaultInterruptCallback
  30 0020 00000000 		.word	CyDmaDefaultInterruptCallback
  31 0024 00000000 		.word	CyDmaDefaultInterruptCallback
  32 0028 00000000 		.word	CyDmaDefaultInterruptCallback
  33 002c 00000000 		.word	CyDmaDefaultInterruptCallback
  34 0030 00000000 		.word	CyDmaDefaultInterruptCallback
  35 0034 00000000 		.word	CyDmaDefaultInterruptCallback
  36 0038 00000000 		.word	CyDmaDefaultInterruptCallback
  37 003c 00000000 		.word	CyDmaDefaultInterruptCallback
  38 0040 00000000 		.word	CyDmaDefaultInterruptCallback
  39 0044 00000000 		.word	CyDmaDefaultInterruptCallback
  40 0048 00000000 		.word	CyDmaDefaultInterruptCallback
  41 004c 00000000 		.word	CyDmaDefaultInterruptCallback
  42 0050 00000000 		.word	CyDmaDefaultInterruptCallback
  43 0054 00000000 		.word	CyDmaDefaultInterruptCallback
  44 0058 00000000 		.word	CyDmaDefaultInterruptCallback
  45 005c 00000000 		.word	CyDmaDefaultInterruptCallback
  46 0060 00000000 		.word	CyDmaDefaultInterruptCallback
  47 0064 00000000 		.word	CyDmaDefaultInterruptCallback
  48 0068 00000000 		.word	CyDmaDefaultInterruptCallback
  49 006c 00000000 		.word	CyDmaDefaultInterruptCallback
  50 0070 00000000 		.word	CyDmaDefaultInterruptCallback
  51 0074 00000000 		.word	CyDmaDefaultInterruptCallback
  52 0078 00000000 		.word	CyDmaDefaultInterruptCallback
  53 007c 00000000 		.word	CyDmaDefaultInterruptCallback
  54              		.bss
  55              		.align	2
  56              	CyDmaChannelUsedMask:
  57 0000 00000000 		.space	4
ARM GAS  C:\Users\GREG~1.PHI\AppData\Local\Temp\cckB4vVc.s 			page 2


  58              		.section	.text.CyDmaEnable,"ax",%progbits
  59              		.align	2
  60              		.global	CyDmaEnable
  61              		.code	16
  62              		.thumb_func
  63              		.type	CyDmaEnable, %function
  64              	CyDmaEnable:
  65              	.LFB1:
  66              		.file 1 "Generated_Source\\PSoC4\\CyDMA.c"
   1:Generated_Source\PSoC4/CyDMA.c **** /*******************************************************************************
   2:Generated_Source\PSoC4/CyDMA.c **** * File Name: CyDMA.c
   3:Generated_Source\PSoC4/CyDMA.c **** * Version 1.10
   4:Generated_Source\PSoC4/CyDMA.c **** *
   5:Generated_Source\PSoC4/CyDMA.c **** * Description:
   6:Generated_Source\PSoC4/CyDMA.c **** *  This file contains all of the global DMA API functions.
   7:Generated_Source\PSoC4/CyDMA.c **** *
   8:Generated_Source\PSoC4/CyDMA.c **** ********************************************************************************
   9:Generated_Source\PSoC4/CyDMA.c **** * Copyright 2015, Cypress Semiconductor Corporation. All rights reserved.
  10:Generated_Source\PSoC4/CyDMA.c **** * You may use this file only in accordance with the license, terms, conditions,
  11:Generated_Source\PSoC4/CyDMA.c **** * disclaimers, and limitations in the end user license agreement accompanying
  12:Generated_Source\PSoC4/CyDMA.c **** * the software package with which this file was provided.
  13:Generated_Source\PSoC4/CyDMA.c **** *******************************************************************************/
  14:Generated_Source\PSoC4/CyDMA.c **** 
  15:Generated_Source\PSoC4/CyDMA.c **** #include "CyDMA.h"
  16:Generated_Source\PSoC4/CyDMA.c **** #include "CyLib.h"
  17:Generated_Source\PSoC4/CyDMA.c **** 
  18:Generated_Source\PSoC4/CyDMA.c **** /* Default callback function. It is invoked if the user callback function is
  19:Generated_Source\PSoC4/CyDMA.c **** * undefined.
  20:Generated_Source\PSoC4/CyDMA.c **** */
  21:Generated_Source\PSoC4/CyDMA.c **** static void CyDmaDefaultInterruptCallback(void);
  22:Generated_Source\PSoC4/CyDMA.c **** 
  23:Generated_Source\PSoC4/CyDMA.c **** /* Array of pointers to user defined callback functions to be called
  24:Generated_Source\PSoC4/CyDMA.c **** * from DMA interrupt.
  25:Generated_Source\PSoC4/CyDMA.c **** */
  26:Generated_Source\PSoC4/CyDMA.c **** static cydma_callback_t CyDmaInterruptCallback[CYDMA_CH_NR] = {
  27:Generated_Source\PSoC4/CyDMA.c ****     &CyDmaDefaultInterruptCallback, &CyDmaDefaultInterruptCallback,
  28:Generated_Source\PSoC4/CyDMA.c ****     &CyDmaDefaultInterruptCallback, &CyDmaDefaultInterruptCallback,
  29:Generated_Source\PSoC4/CyDMA.c ****     &CyDmaDefaultInterruptCallback, &CyDmaDefaultInterruptCallback,
  30:Generated_Source\PSoC4/CyDMA.c ****     &CyDmaDefaultInterruptCallback, &CyDmaDefaultInterruptCallback,
  31:Generated_Source\PSoC4/CyDMA.c ****     &CyDmaDefaultInterruptCallback, &CyDmaDefaultInterruptCallback,
  32:Generated_Source\PSoC4/CyDMA.c ****     &CyDmaDefaultInterruptCallback, &CyDmaDefaultInterruptCallback,
  33:Generated_Source\PSoC4/CyDMA.c ****     &CyDmaDefaultInterruptCallback, &CyDmaDefaultInterruptCallback,
  34:Generated_Source\PSoC4/CyDMA.c ****     &CyDmaDefaultInterruptCallback, &CyDmaDefaultInterruptCallback,
  35:Generated_Source\PSoC4/CyDMA.c ****     &CyDmaDefaultInterruptCallback, &CyDmaDefaultInterruptCallback,
  36:Generated_Source\PSoC4/CyDMA.c ****     &CyDmaDefaultInterruptCallback, &CyDmaDefaultInterruptCallback,
  37:Generated_Source\PSoC4/CyDMA.c ****     &CyDmaDefaultInterruptCallback, &CyDmaDefaultInterruptCallback,
  38:Generated_Source\PSoC4/CyDMA.c ****     &CyDmaDefaultInterruptCallback, &CyDmaDefaultInterruptCallback,
  39:Generated_Source\PSoC4/CyDMA.c ****     &CyDmaDefaultInterruptCallback, &CyDmaDefaultInterruptCallback,
  40:Generated_Source\PSoC4/CyDMA.c ****     &CyDmaDefaultInterruptCallback, &CyDmaDefaultInterruptCallback,
  41:Generated_Source\PSoC4/CyDMA.c ****     &CyDmaDefaultInterruptCallback, &CyDmaDefaultInterruptCallback,
  42:Generated_Source\PSoC4/CyDMA.c ****     &CyDmaDefaultInterruptCallback, &CyDmaDefaultInterruptCallback
  43:Generated_Source\PSoC4/CyDMA.c **** };
  44:Generated_Source\PSoC4/CyDMA.c **** 
  45:Generated_Source\PSoC4/CyDMA.c **** /* The live status of all DMA channels usage. Bit i is associated to channel i,
  46:Generated_Source\PSoC4/CyDMA.c **** * with i = 0..CYDMA_CH_NR-1. '0' - channel is free. '1' - channel is in use.
  47:Generated_Source\PSoC4/CyDMA.c **** * All the channels allocated for DMA instances placed on a schematic are in use
  48:Generated_Source\PSoC4/CyDMA.c **** * by default and cannot be freed. 
ARM GAS  C:\Users\GREG~1.PHI\AppData\Local\Temp\cckB4vVc.s 			page 3


  49:Generated_Source\PSoC4/CyDMA.c **** * DMA_CHANNELS_USED__MASK is generated during the build time and is a bit field
  50:Generated_Source\PSoC4/CyDMA.c **** * corresponding to the DMA channels placed on a design schematic.
  51:Generated_Source\PSoC4/CyDMA.c **** */
  52:Generated_Source\PSoC4/CyDMA.c **** static uint32 CyDmaChannelUsedMask = DMA_CHANNELS_USED__MASK;
  53:Generated_Source\PSoC4/CyDMA.c **** 
  54:Generated_Source\PSoC4/CyDMA.c **** 
  55:Generated_Source\PSoC4/CyDMA.c **** /*******************************************************************************
  56:Generated_Source\PSoC4/CyDMA.c **** * Function Name: CyDmaEnable
  57:Generated_Source\PSoC4/CyDMA.c **** ********************************************************************************
  58:Generated_Source\PSoC4/CyDMA.c **** *
  59:Generated_Source\PSoC4/CyDMA.c **** * Summary:
  60:Generated_Source\PSoC4/CyDMA.c **** *  Sets the default ISR to be called by the DMA interrupt and enables the DMA
  61:Generated_Source\PSoC4/CyDMA.c **** *  transfer engine.
  62:Generated_Source\PSoC4/CyDMA.c **** *
  63:Generated_Source\PSoC4/CyDMA.c **** * Parameters:
  64:Generated_Source\PSoC4/CyDMA.c **** *  None.
  65:Generated_Source\PSoC4/CyDMA.c **** *                   
  66:Generated_Source\PSoC4/CyDMA.c **** * Return:
  67:Generated_Source\PSoC4/CyDMA.c **** *  None.
  68:Generated_Source\PSoC4/CyDMA.c **** *
  69:Generated_Source\PSoC4/CyDMA.c **** * Side effect:
  70:Generated_Source\PSoC4/CyDMA.c **** *  Does not affect the channel enable status. Overrides the interrupt vector
  71:Generated_Source\PSoC4/CyDMA.c **** *  set prior the first time CyDmaEnable() is called.
  72:Generated_Source\PSoC4/CyDMA.c **** *
  73:Generated_Source\PSoC4/CyDMA.c **** *******************************************************************************/
  74:Generated_Source\PSoC4/CyDMA.c **** void CyDmaEnable(void)
  75:Generated_Source\PSoC4/CyDMA.c **** {
  67              		.loc 1 75 0
  68              		.cfi_startproc
  69 0000 80B5     		push	{r7, lr}
  70              		.cfi_def_cfa_offset 8
  71              		.cfi_offset 7, -8
  72              		.cfi_offset 14, -4
  73 0002 00AF     		add	r7, sp, #0
  74              		.cfi_def_cfa_register 7
  76:Generated_Source\PSoC4/CyDMA.c ****     static uint8 initIntrVector = 0u;
  77:Generated_Source\PSoC4/CyDMA.c **** 
  78:Generated_Source\PSoC4/CyDMA.c ****     if(0u == initIntrVector)
  75              		.loc 1 78 0
  76 0004 0A4B     		ldr	r3, .L3
  77 0006 1B78     		ldrb	r3, [r3]
  78 0008 002B     		cmp	r3, #0
  79 000a 0AD1     		bne	.L2
  79:Generated_Source\PSoC4/CyDMA.c ****     {
  80:Generated_Source\PSoC4/CyDMA.c ****         CyDmaSetInterruptVector(&CyDmaInterrupt);
  80              		.loc 1 80 0
  81 000c 094B     		ldr	r3, .L3+4
  82 000e 181C     		mov	r0, r3
  83 0010 FFF7FEFF 		bl	CyDmaSetInterruptVector
  81:Generated_Source\PSoC4/CyDMA.c ****         CyIntSetPriority(CYDMA_INTR_NUMBER, CYDMA_INTR_PRIO);
  84              		.loc 1 81 0
  85 0014 0E20     		mov	r0, #14
  86 0016 0321     		mov	r1, #3
  87 0018 FFF7FEFF 		bl	CyIntSetPriority
  82:Generated_Source\PSoC4/CyDMA.c ****         initIntrVector = 1u;
  88              		.loc 1 82 0
  89 001c 044B     		ldr	r3, .L3
ARM GAS  C:\Users\GREG~1.PHI\AppData\Local\Temp\cckB4vVc.s 			page 4


  90 001e 0122     		mov	r2, #1
  91 0020 1A70     		strb	r2, [r3]
  92              	.L2:
  83:Generated_Source\PSoC4/CyDMA.c ****     }
  84:Generated_Source\PSoC4/CyDMA.c ****     CYDMA_CTL_REG = CYDMA_ENABLED;
  93              		.loc 1 84 0
  94 0022 054B     		ldr	r3, .L3+8
  95 0024 8022     		mov	r2, #128
  96 0026 1206     		lsl	r2, r2, #24
  97 0028 1A60     		str	r2, [r3]
  85:Generated_Source\PSoC4/CyDMA.c **** }
  98              		.loc 1 85 0
  99 002a BD46     		mov	sp, r7
 100              		@ sp needed
 101 002c 80BD     		pop	{r7, pc}
 102              	.L4:
 103 002e C046     		.align	2
 104              	.L3:
 105 0030 04000000 		.word	initIntrVector.4944
 106 0034 00000000 		.word	CyDmaInterrupt
 107 0038 00101040 		.word	1074794496
 108              		.cfi_endproc
 109              	.LFE1:
 110              		.size	CyDmaEnable, .-CyDmaEnable
 111              		.section	.text.CyDmaDisable,"ax",%progbits
 112              		.align	2
 113              		.global	CyDmaDisable
 114              		.code	16
 115              		.thumb_func
 116              		.type	CyDmaDisable, %function
 117              	CyDmaDisable:
 118              	.LFB2:
  86:Generated_Source\PSoC4/CyDMA.c **** 
  87:Generated_Source\PSoC4/CyDMA.c **** 
  88:Generated_Source\PSoC4/CyDMA.c **** /*******************************************************************************
  89:Generated_Source\PSoC4/CyDMA.c **** * Function Name: CyDmaDisable
  90:Generated_Source\PSoC4/CyDMA.c **** ********************************************************************************
  91:Generated_Source\PSoC4/CyDMA.c **** *
  92:Generated_Source\PSoC4/CyDMA.c **** * Summary:
  93:Generated_Source\PSoC4/CyDMA.c **** *  Disables the DMA transfer engine.
  94:Generated_Source\PSoC4/CyDMA.c **** *
  95:Generated_Source\PSoC4/CyDMA.c **** * Parameters:
  96:Generated_Source\PSoC4/CyDMA.c **** *  None.
  97:Generated_Source\PSoC4/CyDMA.c **** *                   
  98:Generated_Source\PSoC4/CyDMA.c **** * Return:
  99:Generated_Source\PSoC4/CyDMA.c **** *  None.
 100:Generated_Source\PSoC4/CyDMA.c **** *
 101:Generated_Source\PSoC4/CyDMA.c **** * Side effect:
 102:Generated_Source\PSoC4/CyDMA.c **** *  Does not affect the channel enable status.
 103:Generated_Source\PSoC4/CyDMA.c **** *
 104:Generated_Source\PSoC4/CyDMA.c **** *******************************************************************************/
 105:Generated_Source\PSoC4/CyDMA.c **** void CyDmaDisable(void)
 106:Generated_Source\PSoC4/CyDMA.c **** {
 119              		.loc 1 106 0
 120              		.cfi_startproc
 121 0000 80B5     		push	{r7, lr}
 122              		.cfi_def_cfa_offset 8
ARM GAS  C:\Users\GREG~1.PHI\AppData\Local\Temp\cckB4vVc.s 			page 5


 123              		.cfi_offset 7, -8
 124              		.cfi_offset 14, -4
 125 0002 00AF     		add	r7, sp, #0
 126              		.cfi_def_cfa_register 7
 107:Generated_Source\PSoC4/CyDMA.c ****     CYDMA_CTL_REG = (uint32)~CYDMA_ENABLED;
 127              		.loc 1 107 0
 128 0004 024B     		ldr	r3, .L6
 129 0006 034A     		ldr	r2, .L6+4
 130 0008 1A60     		str	r2, [r3]
 108:Generated_Source\PSoC4/CyDMA.c **** }
 131              		.loc 1 108 0
 132 000a BD46     		mov	sp, r7
 133              		@ sp needed
 134 000c 80BD     		pop	{r7, pc}
 135              	.L7:
 136 000e C046     		.align	2
 137              	.L6:
 138 0010 00101040 		.word	1074794496
 139 0014 FFFFFF7F 		.word	2147483647
 140              		.cfi_endproc
 141              	.LFE2:
 142              		.size	CyDmaDisable, .-CyDmaDisable
 143              		.section	.text.CyDmaGetStatus,"ax",%progbits
 144              		.align	2
 145              		.global	CyDmaGetStatus
 146              		.code	16
 147              		.thumb_func
 148              		.type	CyDmaGetStatus, %function
 149              	CyDmaGetStatus:
 150              	.LFB3:
 109:Generated_Source\PSoC4/CyDMA.c **** 
 110:Generated_Source\PSoC4/CyDMA.c **** 
 111:Generated_Source\PSoC4/CyDMA.c **** /*******************************************************************************
 112:Generated_Source\PSoC4/CyDMA.c **** * Function Name: CyDmaGetStatus
 113:Generated_Source\PSoC4/CyDMA.c **** ********************************************************************************
 114:Generated_Source\PSoC4/CyDMA.c **** *
 115:Generated_Source\PSoC4/CyDMA.c **** * Summary:
 116:Generated_Source\PSoC4/CyDMA.c **** *  Returns the status of the DMA transfer engine.
 117:Generated_Source\PSoC4/CyDMA.c **** *
 118:Generated_Source\PSoC4/CyDMA.c **** * Parameters:
 119:Generated_Source\PSoC4/CyDMA.c **** *  None.
 120:Generated_Source\PSoC4/CyDMA.c **** *                   
 121:Generated_Source\PSoC4/CyDMA.c **** * Return:
 122:Generated_Source\PSoC4/CyDMA.c **** *  The contents of the DMA status register. Refer to the status register bit
 123:Generated_Source\PSoC4/CyDMA.c **** *  definitions in CyDMA_P4.h or the API description in the DMA channel
 124:Generated_Source\PSoC4/CyDMA.c **** *  datasheet.
 125:Generated_Source\PSoC4/CyDMA.c **** *
 126:Generated_Source\PSoC4/CyDMA.c **** * Side effect:
 127:Generated_Source\PSoC4/CyDMA.c **** *  The series of function calls CyDmaGetActiveSrcAddress(),
 128:Generated_Source\PSoC4/CyDMA.c **** *  CyDmaGetActiveDstAddress(), CyDmaGetStatus() are not atomic, the DMA
 129:Generated_Source\PSoC4/CyDMA.c **** *  engine may have advanced after one or more of these function calls. Meaning
 130:Generated_Source\PSoC4/CyDMA.c **** *  the returns from these three functions may not be related to each other.
 131:Generated_Source\PSoC4/CyDMA.c **** *
 132:Generated_Source\PSoC4/CyDMA.c **** *******************************************************************************/
 133:Generated_Source\PSoC4/CyDMA.c **** uint32 CyDmaGetStatus(void)
 134:Generated_Source\PSoC4/CyDMA.c **** {
 151              		.loc 1 134 0
ARM GAS  C:\Users\GREG~1.PHI\AppData\Local\Temp\cckB4vVc.s 			page 6


 152              		.cfi_startproc
 153 0000 80B5     		push	{r7, lr}
 154              		.cfi_def_cfa_offset 8
 155              		.cfi_offset 7, -8
 156              		.cfi_offset 14, -4
 157 0002 00AF     		add	r7, sp, #0
 158              		.cfi_def_cfa_register 7
 135:Generated_Source\PSoC4/CyDMA.c ****     return (CYDMA_STATUS_REG);
 159              		.loc 1 135 0
 160 0004 024B     		ldr	r3, .L10
 161 0006 1B68     		ldr	r3, [r3]
 136:Generated_Source\PSoC4/CyDMA.c **** }
 162              		.loc 1 136 0
 163 0008 181C     		mov	r0, r3
 164 000a BD46     		mov	sp, r7
 165              		@ sp needed
 166 000c 80BD     		pop	{r7, pc}
 167              	.L11:
 168 000e C046     		.align	2
 169              	.L10:
 170 0010 10101040 		.word	1074794512
 171              		.cfi_endproc
 172              	.LFE3:
 173              		.size	CyDmaGetStatus, .-CyDmaGetStatus
 174              		.section	.text.CyDmaGetActiveChannels,"ax",%progbits
 175              		.align	2
 176              		.global	CyDmaGetActiveChannels
 177              		.code	16
 178              		.thumb_func
 179              		.type	CyDmaGetActiveChannels, %function
 180              	CyDmaGetActiveChannels:
 181              	.LFB4:
 137:Generated_Source\PSoC4/CyDMA.c **** 
 138:Generated_Source\PSoC4/CyDMA.c **** 
 139:Generated_Source\PSoC4/CyDMA.c **** /*******************************************************************************
 140:Generated_Source\PSoC4/CyDMA.c **** * Function Name: CyDmaGetActiveChannels
 141:Generated_Source\PSoC4/CyDMA.c **** ********************************************************************************
 142:Generated_Source\PSoC4/CyDMA.c **** *
 143:Generated_Source\PSoC4/CyDMA.c **** * Summary:
 144:Generated_Source\PSoC4/CyDMA.c **** *  Returns a bit field of all the DMA channels that are either active or
 145:Generated_Source\PSoC4/CyDMA.c **** *  pending.
 146:Generated_Source\PSoC4/CyDMA.c **** *
 147:Generated_Source\PSoC4/CyDMA.c **** * Parameters:
 148:Generated_Source\PSoC4/CyDMA.c **** *  None.
 149:Generated_Source\PSoC4/CyDMA.c **** *                   
 150:Generated_Source\PSoC4/CyDMA.c **** * Return:
 151:Generated_Source\PSoC4/CyDMA.c **** *  Bit field of active and pending channels. 
 152:Generated_Source\PSoC4/CyDMA.c **** *
 153:Generated_Source\PSoC4/CyDMA.c **** *******************************************************************************/
 154:Generated_Source\PSoC4/CyDMA.c **** uint32 CyDmaGetActiveChannels(void)
 155:Generated_Source\PSoC4/CyDMA.c **** {
 182              		.loc 1 155 0
 183              		.cfi_startproc
 184 0000 80B5     		push	{r7, lr}
 185              		.cfi_def_cfa_offset 8
 186              		.cfi_offset 7, -8
 187              		.cfi_offset 14, -4
ARM GAS  C:\Users\GREG~1.PHI\AppData\Local\Temp\cckB4vVc.s 			page 7


 188 0002 00AF     		add	r7, sp, #0
 189              		.cfi_def_cfa_register 7
 156:Generated_Source\PSoC4/CyDMA.c ****     return (CYDMA_STATUS_CH_ACT_REG);
 190              		.loc 1 156 0
 191 0004 024B     		ldr	r3, .L14
 192 0006 1B68     		ldr	r3, [r3]
 157:Generated_Source\PSoC4/CyDMA.c **** }
 193              		.loc 1 157 0
 194 0008 181C     		mov	r0, r3
 195 000a BD46     		mov	sp, r7
 196              		@ sp needed
 197 000c 80BD     		pop	{r7, pc}
 198              	.L15:
 199 000e C046     		.align	2
 200              	.L14:
 201 0010 1C101040 		.word	1074794524
 202              		.cfi_endproc
 203              	.LFE4:
 204              		.size	CyDmaGetActiveChannels, .-CyDmaGetActiveChannels
 205              		.section	.text.CyDmaGetActiveSrcAddress,"ax",%progbits
 206              		.align	2
 207              		.global	CyDmaGetActiveSrcAddress
 208              		.code	16
 209              		.thumb_func
 210              		.type	CyDmaGetActiveSrcAddress, %function
 211              	CyDmaGetActiveSrcAddress:
 212              	.LFB5:
 158:Generated_Source\PSoC4/CyDMA.c **** 
 159:Generated_Source\PSoC4/CyDMA.c **** 
 160:Generated_Source\PSoC4/CyDMA.c **** /*******************************************************************************
 161:Generated_Source\PSoC4/CyDMA.c **** * Function Name: CyDmaGetActiveSrcAddress
 162:Generated_Source\PSoC4/CyDMA.c **** ********************************************************************************
 163:Generated_Source\PSoC4/CyDMA.c **** *
 164:Generated_Source\PSoC4/CyDMA.c **** * Summary:
 165:Generated_Source\PSoC4/CyDMA.c **** *  Returns the source address currently being used by the DMA transfer engine.
 166:Generated_Source\PSoC4/CyDMA.c **** *  This function can be used to debug the DMA, or observe where it is at in a
 167:Generated_Source\PSoC4/CyDMA.c **** *  transfer. It will not be used in normal DMA operation.
 168:Generated_Source\PSoC4/CyDMA.c **** *
 169:Generated_Source\PSoC4/CyDMA.c **** * Parameters:
 170:Generated_Source\PSoC4/CyDMA.c **** *  None.
 171:Generated_Source\PSoC4/CyDMA.c **** *                   
 172:Generated_Source\PSoC4/CyDMA.c **** * Return:
 173:Generated_Source\PSoC4/CyDMA.c **** *  Source address currently being used by the DMA transfer engine.
 174:Generated_Source\PSoC4/CyDMA.c **** *
 175:Generated_Source\PSoC4/CyDMA.c **** * Side effect:
 176:Generated_Source\PSoC4/CyDMA.c **** *  The series of function calls CyDmaGetActiveSrcAddress(),
 177:Generated_Source\PSoC4/CyDMA.c **** *  CyDmaGetActiveDstAddress(), CyDmaGetStatus() are not atomic, the DMA
 178:Generated_Source\PSoC4/CyDMA.c **** *  engine may have advanced after one or more of these function calls. Meaning
 179:Generated_Source\PSoC4/CyDMA.c **** *  the returns from these three functions may not be related to each other.
 180:Generated_Source\PSoC4/CyDMA.c **** *
 181:Generated_Source\PSoC4/CyDMA.c **** *******************************************************************************/
 182:Generated_Source\PSoC4/CyDMA.c **** void * CyDmaGetActiveSrcAddress(void)
 183:Generated_Source\PSoC4/CyDMA.c **** {
 213              		.loc 1 183 0
 214              		.cfi_startproc
 215 0000 80B5     		push	{r7, lr}
 216              		.cfi_def_cfa_offset 8
ARM GAS  C:\Users\GREG~1.PHI\AppData\Local\Temp\cckB4vVc.s 			page 8


 217              		.cfi_offset 7, -8
 218              		.cfi_offset 14, -4
 219 0002 00AF     		add	r7, sp, #0
 220              		.cfi_def_cfa_register 7
 184:Generated_Source\PSoC4/CyDMA.c ****     return ((void *)CYDMA_STATUS_SRC_ADDR_REG);
 221              		.loc 1 184 0
 222 0004 024B     		ldr	r3, .L18
 223 0006 1B68     		ldr	r3, [r3]
 185:Generated_Source\PSoC4/CyDMA.c **** }
 224              		.loc 1 185 0
 225 0008 181C     		mov	r0, r3
 226 000a BD46     		mov	sp, r7
 227              		@ sp needed
 228 000c 80BD     		pop	{r7, pc}
 229              	.L19:
 230 000e C046     		.align	2
 231              	.L18:
 232 0010 14101040 		.word	1074794516
 233              		.cfi_endproc
 234              	.LFE5:
 235              		.size	CyDmaGetActiveSrcAddress, .-CyDmaGetActiveSrcAddress
 236              		.section	.text.CyDmaGetActiveDstAddress,"ax",%progbits
 237              		.align	2
 238              		.global	CyDmaGetActiveDstAddress
 239              		.code	16
 240              		.thumb_func
 241              		.type	CyDmaGetActiveDstAddress, %function
 242              	CyDmaGetActiveDstAddress:
 243              	.LFB6:
 186:Generated_Source\PSoC4/CyDMA.c **** 
 187:Generated_Source\PSoC4/CyDMA.c **** 
 188:Generated_Source\PSoC4/CyDMA.c **** /*******************************************************************************
 189:Generated_Source\PSoC4/CyDMA.c **** * Function Name: CyDmaGetActiveDstAddress
 190:Generated_Source\PSoC4/CyDMA.c **** ********************************************************************************
 191:Generated_Source\PSoC4/CyDMA.c **** *
 192:Generated_Source\PSoC4/CyDMA.c **** * Summary:
 193:Generated_Source\PSoC4/CyDMA.c **** *  Returns the destination address currently being used by the DMA transfer
 194:Generated_Source\PSoC4/CyDMA.c **** *  engine. This function can be used to debug the DMA, or observe where it is at
 195:Generated_Source\PSoC4/CyDMA.c **** *  in a transfer. It will not be used in normal DMA operation.
 196:Generated_Source\PSoC4/CyDMA.c **** *
 197:Generated_Source\PSoC4/CyDMA.c **** * Parameters:
 198:Generated_Source\PSoC4/CyDMA.c **** *  None.
 199:Generated_Source\PSoC4/CyDMA.c **** *                   
 200:Generated_Source\PSoC4/CyDMA.c **** * Return:
 201:Generated_Source\PSoC4/CyDMA.c **** *  Destination address currently being used by the DMA transfer engine.
 202:Generated_Source\PSoC4/CyDMA.c **** *
 203:Generated_Source\PSoC4/CyDMA.c **** * Side effect:
 204:Generated_Source\PSoC4/CyDMA.c **** *  The series of function calls CyDmaGetActiveSrcAddress(),
 205:Generated_Source\PSoC4/CyDMA.c **** *  CyDmaGetActiveDstAddress(), CyDmaGetStatus() are not atomic, the DMA
 206:Generated_Source\PSoC4/CyDMA.c **** *  engine may have advanced after one or more of these function calls. Meaning
 207:Generated_Source\PSoC4/CyDMA.c **** *  the returns from these three functions may not be related to each other.
 208:Generated_Source\PSoC4/CyDMA.c **** *
 209:Generated_Source\PSoC4/CyDMA.c **** *******************************************************************************/
 210:Generated_Source\PSoC4/CyDMA.c **** void * CyDmaGetActiveDstAddress(void)
 211:Generated_Source\PSoC4/CyDMA.c **** {
 244              		.loc 1 211 0
 245              		.cfi_startproc
ARM GAS  C:\Users\GREG~1.PHI\AppData\Local\Temp\cckB4vVc.s 			page 9


 246 0000 80B5     		push	{r7, lr}
 247              		.cfi_def_cfa_offset 8
 248              		.cfi_offset 7, -8
 249              		.cfi_offset 14, -4
 250 0002 00AF     		add	r7, sp, #0
 251              		.cfi_def_cfa_register 7
 212:Generated_Source\PSoC4/CyDMA.c ****     return ((void *)CYDMA_STATUS_DST_ADDR_REG);
 252              		.loc 1 212 0
 253 0004 024B     		ldr	r3, .L22
 254 0006 1B68     		ldr	r3, [r3]
 213:Generated_Source\PSoC4/CyDMA.c **** }
 255              		.loc 1 213 0
 256 0008 181C     		mov	r0, r3
 257 000a BD46     		mov	sp, r7
 258              		@ sp needed
 259 000c 80BD     		pop	{r7, pc}
 260              	.L23:
 261 000e C046     		.align	2
 262              	.L22:
 263 0010 18101040 		.word	1074794520
 264              		.cfi_endproc
 265              	.LFE6:
 266              		.size	CyDmaGetActiveDstAddress, .-CyDmaGetActiveDstAddress
 267              		.section	.text.CyDmaSetInterruptVector,"ax",%progbits
 268              		.align	2
 269              		.global	CyDmaSetInterruptVector
 270              		.code	16
 271              		.thumb_func
 272              		.type	CyDmaSetInterruptVector, %function
 273              	CyDmaSetInterruptVector:
 274              	.LFB7:
 214:Generated_Source\PSoC4/CyDMA.c **** 
 215:Generated_Source\PSoC4/CyDMA.c **** 
 216:Generated_Source\PSoC4/CyDMA.c **** /*******************************************************************************
 217:Generated_Source\PSoC4/CyDMA.c **** * Function Name: CyDmaSetInterruptVector
 218:Generated_Source\PSoC4/CyDMA.c **** ********************************************************************************
 219:Generated_Source\PSoC4/CyDMA.c **** *
 220:Generated_Source\PSoC4/CyDMA.c **** * Summary:
 221:Generated_Source\PSoC4/CyDMA.c **** *  Sets the function that will be called by the DMA interrupt. Note, calling
 222:Generated_Source\PSoC4/CyDMA.c **** *  CyDmaEnable() for the first time overrides any effect this API could have.
 223:Generated_Source\PSoC4/CyDMA.c **** *  Call CyDmaSetInterruptVector() after calling CyDmaEnable() to change
 224:Generated_Source\PSoC4/CyDMA.c **** *  the default ISR.
 225:Generated_Source\PSoC4/CyDMA.c **** *
 226:Generated_Source\PSoC4/CyDMA.c **** * Parameters:
 227:Generated_Source\PSoC4/CyDMA.c **** *  interruptVector: Address of the function that will be called by the DMA
 228:Generated_Source\PSoC4/CyDMA.c **** *                   interrupt.
 229:Generated_Source\PSoC4/CyDMA.c **** * Return:
 230:Generated_Source\PSoC4/CyDMA.c **** *  None.
 231:Generated_Source\PSoC4/CyDMA.c **** *
 232:Generated_Source\PSoC4/CyDMA.c **** * Side effect:
 233:Generated_Source\PSoC4/CyDMA.c **** *  Other components that use DMA may register their callback functions to be
 234:Generated_Source\PSoC4/CyDMA.c **** *  called from the default DMA ISR. Therefore, changing the DMA ISR to a user
 235:Generated_Source\PSoC4/CyDMA.c **** *  defined ISR using this API may prevent these other components from
 236:Generated_Source\PSoC4/CyDMA.c **** *  functioning correctly.
 237:Generated_Source\PSoC4/CyDMA.c **** *
 238:Generated_Source\PSoC4/CyDMA.c **** *******************************************************************************/
 239:Generated_Source\PSoC4/CyDMA.c **** void CyDmaSetInterruptVector(cyisraddress interruptVector)
ARM GAS  C:\Users\GREG~1.PHI\AppData\Local\Temp\cckB4vVc.s 			page 10


 240:Generated_Source\PSoC4/CyDMA.c **** {
 275              		.loc 1 240 0
 276              		.cfi_startproc
 277 0000 80B5     		push	{r7, lr}
 278              		.cfi_def_cfa_offset 8
 279              		.cfi_offset 7, -8
 280              		.cfi_offset 14, -4
 281 0002 82B0     		sub	sp, sp, #8
 282              		.cfi_def_cfa_offset 16
 283 0004 00AF     		add	r7, sp, #0
 284              		.cfi_def_cfa_register 7
 285 0006 7860     		str	r0, [r7, #4]
 241:Generated_Source\PSoC4/CyDMA.c ****     (void)CyIntSetVector(CYDMA_INTR_NUMBER, interruptVector);
 286              		.loc 1 241 0
 287 0008 7B68     		ldr	r3, [r7, #4]
 288 000a 0E20     		mov	r0, #14
 289 000c 191C     		mov	r1, r3
 290 000e FFF7FEFF 		bl	CyIntSetVector
 242:Generated_Source\PSoC4/CyDMA.c **** }
 291              		.loc 1 242 0
 292 0012 BD46     		mov	sp, r7
 293 0014 02B0     		add	sp, sp, #8
 294              		@ sp needed
 295 0016 80BD     		pop	{r7, pc}
 296              		.cfi_endproc
 297              	.LFE7:
 298              		.size	CyDmaSetInterruptVector, .-CyDmaSetInterruptVector
 299              		.section	.text.CyDmaGetInterruptSource,"ax",%progbits
 300              		.align	2
 301              		.global	CyDmaGetInterruptSource
 302              		.code	16
 303              		.thumb_func
 304              		.type	CyDmaGetInterruptSource, %function
 305              	CyDmaGetInterruptSource:
 306              	.LFB8:
 243:Generated_Source\PSoC4/CyDMA.c **** 
 244:Generated_Source\PSoC4/CyDMA.c **** 
 245:Generated_Source\PSoC4/CyDMA.c **** /*******************************************************************************
 246:Generated_Source\PSoC4/CyDMA.c **** * Function Name: CyDmaGetInterruptSource
 247:Generated_Source\PSoC4/CyDMA.c **** ********************************************************************************
 248:Generated_Source\PSoC4/CyDMA.c **** *
 249:Generated_Source\PSoC4/CyDMA.c **** * Summary:
 250:Generated_Source\PSoC4/CyDMA.c **** *  Returns the bit field of which channels generated an interrupt request.
 251:Generated_Source\PSoC4/CyDMA.c **** *
 252:Generated_Source\PSoC4/CyDMA.c **** * Parameters:
 253:Generated_Source\PSoC4/CyDMA.c **** *  None.
 254:Generated_Source\PSoC4/CyDMA.c **** *                   
 255:Generated_Source\PSoC4/CyDMA.c **** * Return:
 256:Generated_Source\PSoC4/CyDMA.c **** *  Bit filed of which channels generated an interrupt request.
 257:Generated_Source\PSoC4/CyDMA.c **** *
 258:Generated_Source\PSoC4/CyDMA.c **** *******************************************************************************/
 259:Generated_Source\PSoC4/CyDMA.c **** uint32 CyDmaGetInterruptSource(void)
 260:Generated_Source\PSoC4/CyDMA.c **** {
 307              		.loc 1 260 0
 308              		.cfi_startproc
 309 0000 80B5     		push	{r7, lr}
 310              		.cfi_def_cfa_offset 8
ARM GAS  C:\Users\GREG~1.PHI\AppData\Local\Temp\cckB4vVc.s 			page 11


 311              		.cfi_offset 7, -8
 312              		.cfi_offset 14, -4
 313 0002 00AF     		add	r7, sp, #0
 314              		.cfi_def_cfa_register 7
 261:Generated_Source\PSoC4/CyDMA.c ****     return (CYDMA_INTR_REG);
 315              		.loc 1 261 0
 316 0004 024B     		ldr	r3, .L27
 317 0006 1B68     		ldr	r3, [r3]
 262:Generated_Source\PSoC4/CyDMA.c **** }
 318              		.loc 1 262 0
 319 0008 181C     		mov	r0, r3
 320 000a BD46     		mov	sp, r7
 321              		@ sp needed
 322 000c 80BD     		pop	{r7, pc}
 323              	.L28:
 324 000e C046     		.align	2
 325              	.L27:
 326 0010 F0171040 		.word	1074796528
 327              		.cfi_endproc
 328              	.LFE8:
 329              		.size	CyDmaGetInterruptSource, .-CyDmaGetInterruptSource
 330              		.section	.text.CyDmaClearInterruptSource,"ax",%progbits
 331              		.align	2
 332              		.global	CyDmaClearInterruptSource
 333              		.code	16
 334              		.thumb_func
 335              		.type	CyDmaClearInterruptSource, %function
 336              	CyDmaClearInterruptSource:
 337              	.LFB9:
 263:Generated_Source\PSoC4/CyDMA.c **** 
 264:Generated_Source\PSoC4/CyDMA.c **** 
 265:Generated_Source\PSoC4/CyDMA.c **** /*******************************************************************************
 266:Generated_Source\PSoC4/CyDMA.c **** * Function Name: CyDmaClearInterruptSource
 267:Generated_Source\PSoC4/CyDMA.c **** ********************************************************************************
 268:Generated_Source\PSoC4/CyDMA.c **** *
 269:Generated_Source\PSoC4/CyDMA.c **** * Summary:
 270:Generated_Source\PSoC4/CyDMA.c **** *  Clears the pending interrupts.
 271:Generated_Source\PSoC4/CyDMA.c **** *
 272:Generated_Source\PSoC4/CyDMA.c **** * Parameters:
 273:Generated_Source\PSoC4/CyDMA.c **** *  interruptMask: Bit field of interrupts to clear.
 274:Generated_Source\PSoC4/CyDMA.c **** *                   
 275:Generated_Source\PSoC4/CyDMA.c **** * Return:
 276:Generated_Source\PSoC4/CyDMA.c **** *  None.
 277:Generated_Source\PSoC4/CyDMA.c **** *
 278:Generated_Source\PSoC4/CyDMA.c **** *******************************************************************************/
 279:Generated_Source\PSoC4/CyDMA.c **** void CyDmaClearInterruptSource(uint32 interruptMask)
 280:Generated_Source\PSoC4/CyDMA.c **** {
 338              		.loc 1 280 0
 339              		.cfi_startproc
 340 0000 80B5     		push	{r7, lr}
 341              		.cfi_def_cfa_offset 8
 342              		.cfi_offset 7, -8
 343              		.cfi_offset 14, -4
 344 0002 82B0     		sub	sp, sp, #8
 345              		.cfi_def_cfa_offset 16
 346 0004 00AF     		add	r7, sp, #0
 347              		.cfi_def_cfa_register 7
ARM GAS  C:\Users\GREG~1.PHI\AppData\Local\Temp\cckB4vVc.s 			page 12


 348 0006 7860     		str	r0, [r7, #4]
 281:Generated_Source\PSoC4/CyDMA.c ****     CYDMA_INTR_REG = interruptMask;
 349              		.loc 1 281 0
 350 0008 024B     		ldr	r3, .L30
 351 000a 7A68     		ldr	r2, [r7, #4]
 352 000c 1A60     		str	r2, [r3]
 282:Generated_Source\PSoC4/CyDMA.c **** }
 353              		.loc 1 282 0
 354 000e BD46     		mov	sp, r7
 355 0010 02B0     		add	sp, sp, #8
 356              		@ sp needed
 357 0012 80BD     		pop	{r7, pc}
 358              	.L31:
 359              		.align	2
 360              	.L30:
 361 0014 F0171040 		.word	1074796528
 362              		.cfi_endproc
 363              	.LFE9:
 364              		.size	CyDmaClearInterruptSource, .-CyDmaClearInterruptSource
 365              		.section	.text.CyDmaSetInterruptSourceMask,"ax",%progbits
 366              		.align	2
 367              		.global	CyDmaSetInterruptSourceMask
 368              		.code	16
 369              		.thumb_func
 370              		.type	CyDmaSetInterruptSourceMask, %function
 371              	CyDmaSetInterruptSourceMask:
 372              	.LFB10:
 283:Generated_Source\PSoC4/CyDMA.c **** 
 284:Generated_Source\PSoC4/CyDMA.c **** 
 285:Generated_Source\PSoC4/CyDMA.c **** /*******************************************************************************
 286:Generated_Source\PSoC4/CyDMA.c **** * Function Name: CyDmaSetInterruptSourceMask
 287:Generated_Source\PSoC4/CyDMA.c **** ********************************************************************************
 288:Generated_Source\PSoC4/CyDMA.c **** *
 289:Generated_Source\PSoC4/CyDMA.c **** * Summary:
 290:Generated_Source\PSoC4/CyDMA.c **** *  Sets mask for interrupt source.
 291:Generated_Source\PSoC4/CyDMA.c **** *
 292:Generated_Source\PSoC4/CyDMA.c **** * Parameters:
 293:Generated_Source\PSoC4/CyDMA.c **** *  interruptmask: Mask corresponding to interrupt bit field.
 294:Generated_Source\PSoC4/CyDMA.c **** *                   
 295:Generated_Source\PSoC4/CyDMA.c **** * Return:
 296:Generated_Source\PSoC4/CyDMA.c **** *  None.
 297:Generated_Source\PSoC4/CyDMA.c **** *
 298:Generated_Source\PSoC4/CyDMA.c **** *******************************************************************************/
 299:Generated_Source\PSoC4/CyDMA.c **** void CyDmaSetInterruptSourceMask(uint32 interruptMask)
 300:Generated_Source\PSoC4/CyDMA.c **** {
 373              		.loc 1 300 0
 374              		.cfi_startproc
 375 0000 80B5     		push	{r7, lr}
 376              		.cfi_def_cfa_offset 8
 377              		.cfi_offset 7, -8
 378              		.cfi_offset 14, -4
 379 0002 82B0     		sub	sp, sp, #8
 380              		.cfi_def_cfa_offset 16
 381 0004 00AF     		add	r7, sp, #0
 382              		.cfi_def_cfa_register 7
 383 0006 7860     		str	r0, [r7, #4]
 301:Generated_Source\PSoC4/CyDMA.c ****     CYDMA_INTR_MASK_REG = interruptMask;
ARM GAS  C:\Users\GREG~1.PHI\AppData\Local\Temp\cckB4vVc.s 			page 13


 384              		.loc 1 301 0
 385 0008 024B     		ldr	r3, .L33
 386 000a 7A68     		ldr	r2, [r7, #4]
 387 000c 1A60     		str	r2, [r3]
 302:Generated_Source\PSoC4/CyDMA.c **** }
 388              		.loc 1 302 0
 389 000e BD46     		mov	sp, r7
 390 0010 02B0     		add	sp, sp, #8
 391              		@ sp needed
 392 0012 80BD     		pop	{r7, pc}
 393              	.L34:
 394              		.align	2
 395              	.L33:
 396 0014 F8171040 		.word	1074796536
 397              		.cfi_endproc
 398              	.LFE10:
 399              		.size	CyDmaSetInterruptSourceMask, .-CyDmaSetInterruptSourceMask
 400              		.section	.text.CyDmaGetInterruptSourceMask,"ax",%progbits
 401              		.align	2
 402              		.global	CyDmaGetInterruptSourceMask
 403              		.code	16
 404              		.thumb_func
 405              		.type	CyDmaGetInterruptSourceMask, %function
 406              	CyDmaGetInterruptSourceMask:
 407              	.LFB11:
 303:Generated_Source\PSoC4/CyDMA.c **** 
 304:Generated_Source\PSoC4/CyDMA.c **** 
 305:Generated_Source\PSoC4/CyDMA.c **** /*******************************************************************************
 306:Generated_Source\PSoC4/CyDMA.c **** * Function Name: CyDmaGetInterruptSourceMask
 307:Generated_Source\PSoC4/CyDMA.c **** ********************************************************************************
 308:Generated_Source\PSoC4/CyDMA.c **** *
 309:Generated_Source\PSoC4/CyDMA.c **** * Summary:
 310:Generated_Source\PSoC4/CyDMA.c **** *  Returns mask for interrupt source.
 311:Generated_Source\PSoC4/CyDMA.c **** *
 312:Generated_Source\PSoC4/CyDMA.c **** * Parameters:
 313:Generated_Source\PSoC4/CyDMA.c **** *  None.
 314:Generated_Source\PSoC4/CyDMA.c **** *                   
 315:Generated_Source\PSoC4/CyDMA.c **** * Return:
 316:Generated_Source\PSoC4/CyDMA.c **** *  Mask corresponding to interrupt bit field.
 317:Generated_Source\PSoC4/CyDMA.c **** *
 318:Generated_Source\PSoC4/CyDMA.c **** *******************************************************************************/
 319:Generated_Source\PSoC4/CyDMA.c **** uint32 CyDmaGetInterruptSourceMask(void)
 320:Generated_Source\PSoC4/CyDMA.c **** {
 408              		.loc 1 320 0
 409              		.cfi_startproc
 410 0000 80B5     		push	{r7, lr}
 411              		.cfi_def_cfa_offset 8
 412              		.cfi_offset 7, -8
 413              		.cfi_offset 14, -4
 414 0002 00AF     		add	r7, sp, #0
 415              		.cfi_def_cfa_register 7
 321:Generated_Source\PSoC4/CyDMA.c ****     return (CYDMA_INTR_MASK_REG);
 416              		.loc 1 321 0
 417 0004 024B     		ldr	r3, .L37
 418 0006 1B68     		ldr	r3, [r3]
 322:Generated_Source\PSoC4/CyDMA.c **** }
 419              		.loc 1 322 0
ARM GAS  C:\Users\GREG~1.PHI\AppData\Local\Temp\cckB4vVc.s 			page 14


 420 0008 181C     		mov	r0, r3
 421 000a BD46     		mov	sp, r7
 422              		@ sp needed
 423 000c 80BD     		pop	{r7, pc}
 424              	.L38:
 425 000e C046     		.align	2
 426              	.L37:
 427 0010 F8171040 		.word	1074796536
 428              		.cfi_endproc
 429              	.LFE11:
 430              		.size	CyDmaGetInterruptSourceMask, .-CyDmaGetInterruptSourceMask
 431              		.section	.text.CyDmaGetInterruptSourceMasked,"ax",%progbits
 432              		.align	2
 433              		.global	CyDmaGetInterruptSourceMasked
 434              		.code	16
 435              		.thumb_func
 436              		.type	CyDmaGetInterruptSourceMasked, %function
 437              	CyDmaGetInterruptSourceMasked:
 438              	.LFB12:
 323:Generated_Source\PSoC4/CyDMA.c **** 
 324:Generated_Source\PSoC4/CyDMA.c **** 
 325:Generated_Source\PSoC4/CyDMA.c **** /*******************************************************************************
 326:Generated_Source\PSoC4/CyDMA.c **** * Function Name: CyDmaGetInterruptSourceMasked
 327:Generated_Source\PSoC4/CyDMA.c **** ********************************************************************************
 328:Generated_Source\PSoC4/CyDMA.c **** *
 329:Generated_Source\PSoC4/CyDMA.c **** * Summary:
 330:Generated_Source\PSoC4/CyDMA.c **** *  Returns the bitwise AND of the interrupt source and the interrupt mask.
 331:Generated_Source\PSoC4/CyDMA.c **** *
 332:Generated_Source\PSoC4/CyDMA.c **** * Parameters:
 333:Generated_Source\PSoC4/CyDMA.c **** *  None.
 334:Generated_Source\PSoC4/CyDMA.c **** *                   
 335:Generated_Source\PSoC4/CyDMA.c **** * Return:
 336:Generated_Source\PSoC4/CyDMA.c **** *  Bitwise AND of the interrupt source and the interrupt mask.
 337:Generated_Source\PSoC4/CyDMA.c **** *
 338:Generated_Source\PSoC4/CyDMA.c **** *******************************************************************************/
 339:Generated_Source\PSoC4/CyDMA.c **** uint32 CyDmaGetInterruptSourceMasked(void)
 340:Generated_Source\PSoC4/CyDMA.c **** {
 439              		.loc 1 340 0
 440              		.cfi_startproc
 441 0000 80B5     		push	{r7, lr}
 442              		.cfi_def_cfa_offset 8
 443              		.cfi_offset 7, -8
 444              		.cfi_offset 14, -4
 445 0002 00AF     		add	r7, sp, #0
 446              		.cfi_def_cfa_register 7
 341:Generated_Source\PSoC4/CyDMA.c ****     return (CYDMA_INTR_MASKED_REG);
 447              		.loc 1 341 0
 448 0004 024B     		ldr	r3, .L41
 449 0006 1B68     		ldr	r3, [r3]
 342:Generated_Source\PSoC4/CyDMA.c **** }
 450              		.loc 1 342 0
 451 0008 181C     		mov	r0, r3
 452 000a BD46     		mov	sp, r7
 453              		@ sp needed
 454 000c 80BD     		pop	{r7, pc}
 455              	.L42:
 456 000e C046     		.align	2
ARM GAS  C:\Users\GREG~1.PHI\AppData\Local\Temp\cckB4vVc.s 			page 15


 457              	.L41:
 458 0010 FC171040 		.word	1074796540
 459              		.cfi_endproc
 460              	.LFE12:
 461              		.size	CyDmaGetInterruptSourceMasked, .-CyDmaGetInterruptSourceMasked
 462              		.section	.text.CyDmaSetInterruptCallback,"ax",%progbits
 463              		.align	2
 464              		.global	CyDmaSetInterruptCallback
 465              		.code	16
 466              		.thumb_func
 467              		.type	CyDmaSetInterruptCallback, %function
 468              	CyDmaSetInterruptCallback:
 469              	.LFB13:
 343:Generated_Source\PSoC4/CyDMA.c **** 
 344:Generated_Source\PSoC4/CyDMA.c **** 
 345:Generated_Source\PSoC4/CyDMA.c **** /*******************************************************************************
 346:Generated_Source\PSoC4/CyDMA.c **** * Function Name: CyDmaSetInterruptCallback
 347:Generated_Source\PSoC4/CyDMA.c **** ********************************************************************************
 348:Generated_Source\PSoC4/CyDMA.c **** *
 349:Generated_Source\PSoC4/CyDMA.c **** * Summary:
 350:Generated_Source\PSoC4/CyDMA.c **** *  Sets a user defined callback function to be called by the DMA interrupt. The
 351:Generated_Source\PSoC4/CyDMA.c **** *  function should contain code to process the interrupt request for the 
 352:Generated_Source\PSoC4/CyDMA.c **** *  associated DMA channel.
 353:Generated_Source\PSoC4/CyDMA.c **** *
 354:Generated_Source\PSoC4/CyDMA.c **** * Parameters:
 355:Generated_Source\PSoC4/CyDMA.c **** *  channel:  Channel used by this function.
 356:Generated_Source\PSoC4/CyDMA.c **** *  callback: Pointer to the user defined callback function.
 357:Generated_Source\PSoC4/CyDMA.c **** *
 358:Generated_Source\PSoC4/CyDMA.c **** * Return:
 359:Generated_Source\PSoC4/CyDMA.c **** *  Pointer to the function previously set for the specified channel. 
 360:Generated_Source\PSoC4/CyDMA.c **** *
 361:Generated_Source\PSoC4/CyDMA.c **** *******************************************************************************/
 362:Generated_Source\PSoC4/CyDMA.c **** cydma_callback_t CyDmaSetInterruptCallback(int32 channel, cydma_callback_t callback)
 363:Generated_Source\PSoC4/CyDMA.c **** {
 470              		.loc 1 363 0
 471              		.cfi_startproc
 472 0000 80B5     		push	{r7, lr}
 473              		.cfi_def_cfa_offset 8
 474              		.cfi_offset 7, -8
 475              		.cfi_offset 14, -4
 476 0002 84B0     		sub	sp, sp, #16
 477              		.cfi_def_cfa_offset 24
 478 0004 00AF     		add	r7, sp, #0
 479              		.cfi_def_cfa_register 7
 480 0006 7860     		str	r0, [r7, #4]
 481 0008 3960     		str	r1, [r7]
 364:Generated_Source\PSoC4/CyDMA.c ****     cydma_callback_t prevCallback;
 365:Generated_Source\PSoC4/CyDMA.c **** 
 366:Generated_Source\PSoC4/CyDMA.c ****     CYASSERT((channel >= 0) && (channel < CYDMA_CH_NR));
 482              		.loc 1 366 0
 483 000a 7B68     		ldr	r3, [r7, #4]
 484 000c 002B     		cmp	r3, #0
 485 000e 04DB     		blt	.L44
 486              		.loc 1 366 0 is_stmt 0 discriminator 1
 487 0010 7B68     		ldr	r3, [r7, #4]
 488 0012 1F2B     		cmp	r3, #31
 489 0014 01DC     		bgt	.L44
ARM GAS  C:\Users\GREG~1.PHI\AppData\Local\Temp\cckB4vVc.s 			page 16


 490              		.loc 1 366 0 discriminator 3
 491 0016 0123     		mov	r3, #1
 492 0018 00E0     		b	.L45
 493              	.L44:
 494              		.loc 1 366 0 discriminator 4
 495 001a 0023     		mov	r3, #0
 496              	.L45:
 497              		.loc 1 366 0 discriminator 6
 498 001c 002B     		cmp	r3, #0
 499 001e 02D1     		bne	.L46
 500              		.loc 1 366 0 discriminator 7
 501 0020 0020     		mov	r0, #0
 502 0022 FFF7FEFF 		bl	CyHalt
 503              	.L46:
 367:Generated_Source\PSoC4/CyDMA.c **** 
 368:Generated_Source\PSoC4/CyDMA.c ****     prevCallback = CyDmaInterruptCallback[channel];
 504              		.loc 1 368 0 is_stmt 1
 505 0026 074B     		ldr	r3, .L48
 506 0028 7A68     		ldr	r2, [r7, #4]
 507 002a 9200     		lsl	r2, r2, #2
 508 002c D358     		ldr	r3, [r2, r3]
 509 002e FB60     		str	r3, [r7, #12]
 369:Generated_Source\PSoC4/CyDMA.c ****     CyDmaInterruptCallback[channel] = callback;
 510              		.loc 1 369 0
 511 0030 044B     		ldr	r3, .L48
 512 0032 7A68     		ldr	r2, [r7, #4]
 513 0034 9200     		lsl	r2, r2, #2
 514 0036 3968     		ldr	r1, [r7]
 515 0038 D150     		str	r1, [r2, r3]
 370:Generated_Source\PSoC4/CyDMA.c ****     return (prevCallback);
 516              		.loc 1 370 0
 517 003a FB68     		ldr	r3, [r7, #12]
 371:Generated_Source\PSoC4/CyDMA.c **** }
 518              		.loc 1 371 0
 519 003c 181C     		mov	r0, r3
 520 003e BD46     		mov	sp, r7
 521 0040 04B0     		add	sp, sp, #16
 522              		@ sp needed
 523 0042 80BD     		pop	{r7, pc}
 524              	.L49:
 525              		.align	2
 526              	.L48:
 527 0044 00000000 		.word	CyDmaInterruptCallback
 528              		.cfi_endproc
 529              	.LFE13:
 530              		.size	CyDmaSetInterruptCallback, .-CyDmaSetInterruptCallback
 531              		.section	.text.CyDmaGetInterruptCallback,"ax",%progbits
 532              		.align	2
 533              		.global	CyDmaGetInterruptCallback
 534              		.code	16
 535              		.thumb_func
 536              		.type	CyDmaGetInterruptCallback, %function
 537              	CyDmaGetInterruptCallback:
 538              	.LFB14:
 372:Generated_Source\PSoC4/CyDMA.c **** 
 373:Generated_Source\PSoC4/CyDMA.c **** 
 374:Generated_Source\PSoC4/CyDMA.c **** /*******************************************************************************
ARM GAS  C:\Users\GREG~1.PHI\AppData\Local\Temp\cckB4vVc.s 			page 17


 375:Generated_Source\PSoC4/CyDMA.c **** * Function Name: CyDmaGetInterruptCallback
 376:Generated_Source\PSoC4/CyDMA.c **** ********************************************************************************
 377:Generated_Source\PSoC4/CyDMA.c **** *
 378:Generated_Source\PSoC4/CyDMA.c **** * Summary:
 379:Generated_Source\PSoC4/CyDMA.c **** *  Returns the pointer to the interrupt callback function for the specified DMA
 380:Generated_Source\PSoC4/CyDMA.c **** *  channel.
 381:Generated_Source\PSoC4/CyDMA.c **** *
 382:Generated_Source\PSoC4/CyDMA.c **** * Parameters:
 383:Generated_Source\PSoC4/CyDMA.c **** *  channel: Channel used by this function.
 384:Generated_Source\PSoC4/CyDMA.c **** *
 385:Generated_Source\PSoC4/CyDMA.c **** * Return:
 386:Generated_Source\PSoC4/CyDMA.c **** *  Callback function pointer for the specified channel.
 387:Generated_Source\PSoC4/CyDMA.c **** *
 388:Generated_Source\PSoC4/CyDMA.c **** *******************************************************************************/
 389:Generated_Source\PSoC4/CyDMA.c **** cydma_callback_t CyDmaGetInterruptCallback(int32 channel)
 390:Generated_Source\PSoC4/CyDMA.c **** {
 539              		.loc 1 390 0
 540              		.cfi_startproc
 541 0000 80B5     		push	{r7, lr}
 542              		.cfi_def_cfa_offset 8
 543              		.cfi_offset 7, -8
 544              		.cfi_offset 14, -4
 545 0002 82B0     		sub	sp, sp, #8
 546              		.cfi_def_cfa_offset 16
 547 0004 00AF     		add	r7, sp, #0
 548              		.cfi_def_cfa_register 7
 549 0006 7860     		str	r0, [r7, #4]
 391:Generated_Source\PSoC4/CyDMA.c ****     CYASSERT((channel >= 0) && (channel < CYDMA_CH_NR));
 550              		.loc 1 391 0
 551 0008 7B68     		ldr	r3, [r7, #4]
 552 000a 002B     		cmp	r3, #0
 553 000c 04DB     		blt	.L51
 554              		.loc 1 391 0 is_stmt 0 discriminator 1
 555 000e 7B68     		ldr	r3, [r7, #4]
 556 0010 1F2B     		cmp	r3, #31
 557 0012 01DC     		bgt	.L51
 558              		.loc 1 391 0 discriminator 3
 559 0014 0123     		mov	r3, #1
 560 0016 00E0     		b	.L52
 561              	.L51:
 562              		.loc 1 391 0 discriminator 4
 563 0018 0023     		mov	r3, #0
 564              	.L52:
 565              		.loc 1 391 0 discriminator 6
 566 001a 002B     		cmp	r3, #0
 567 001c 02D1     		bne	.L53
 568              		.loc 1 391 0 discriminator 7
 569 001e 0020     		mov	r0, #0
 570 0020 FFF7FEFF 		bl	CyHalt
 571              	.L53:
 392:Generated_Source\PSoC4/CyDMA.c ****     
 393:Generated_Source\PSoC4/CyDMA.c ****     return (CyDmaInterruptCallback[channel]);
 572              		.loc 1 393 0 is_stmt 1
 573 0024 034B     		ldr	r3, .L55
 574 0026 7A68     		ldr	r2, [r7, #4]
 575 0028 9200     		lsl	r2, r2, #2
 576 002a D358     		ldr	r3, [r2, r3]
ARM GAS  C:\Users\GREG~1.PHI\AppData\Local\Temp\cckB4vVc.s 			page 18


 394:Generated_Source\PSoC4/CyDMA.c **** }
 577              		.loc 1 394 0
 578 002c 181C     		mov	r0, r3
 579 002e BD46     		mov	sp, r7
 580 0030 02B0     		add	sp, sp, #8
 581              		@ sp needed
 582 0032 80BD     		pop	{r7, pc}
 583              	.L56:
 584              		.align	2
 585              	.L55:
 586 0034 00000000 		.word	CyDmaInterruptCallback
 587              		.cfi_endproc
 588              	.LFE14:
 589              		.size	CyDmaGetInterruptCallback, .-CyDmaGetInterruptCallback
 590              		.section	.text.CyDmaInterrupt,"ax",%progbits
 591              		.align	2
 592              		.global	CyDmaInterrupt
 593              		.code	16
 594              		.thumb_func
 595              		.type	CyDmaInterrupt, %function
 596              	CyDmaInterrupt:
 597              	.LFB15:
 395:Generated_Source\PSoC4/CyDMA.c **** 
 396:Generated_Source\PSoC4/CyDMA.c **** 
 397:Generated_Source\PSoC4/CyDMA.c **** /*******************************************************************************
 398:Generated_Source\PSoC4/CyDMA.c **** * Function Name: CyDmaInterrupt
 399:Generated_Source\PSoC4/CyDMA.c **** ********************************************************************************
 400:Generated_Source\PSoC4/CyDMA.c **** *
 401:Generated_Source\PSoC4/CyDMA.c **** * Summary:
 402:Generated_Source\PSoC4/CyDMA.c **** *  The default ISR for DMA interrupts. The handler checks which DMA channel has
 403:Generated_Source\PSoC4/CyDMA.c **** *  triggered the interrupt and calls the user defined callback function.
 404:Generated_Source\PSoC4/CyDMA.c **** *  The callback function is set using CyDmaSetInteruptCallback() API.
 405:Generated_Source\PSoC4/CyDMA.c **** *
 406:Generated_Source\PSoC4/CyDMA.c **** * Parameters:
 407:Generated_Source\PSoC4/CyDMA.c **** *  None.
 408:Generated_Source\PSoC4/CyDMA.c **** *
 409:Generated_Source\PSoC4/CyDMA.c **** * Return:
 410:Generated_Source\PSoC4/CyDMA.c **** *  None.
 411:Generated_Source\PSoC4/CyDMA.c **** *
 412:Generated_Source\PSoC4/CyDMA.c **** * Side Effects:
 413:Generated_Source\PSoC4/CyDMA.c **** *  This function clears the pending interrupts.
 414:Generated_Source\PSoC4/CyDMA.c **** *
 415:Generated_Source\PSoC4/CyDMA.c **** *******************************************************************************/
 416:Generated_Source\PSoC4/CyDMA.c **** CY_ISR(CyDmaInterrupt)
 417:Generated_Source\PSoC4/CyDMA.c **** {
 598              		.loc 1 417 0
 599              		.cfi_startproc
 600 0000 80B5     		push	{r7, lr}
 601              		.cfi_def_cfa_offset 8
 602              		.cfi_offset 7, -8
 603              		.cfi_offset 14, -4
 604 0002 82B0     		sub	sp, sp, #8
 605              		.cfi_def_cfa_offset 16
 606 0004 00AF     		add	r7, sp, #0
 607              		.cfi_def_cfa_register 7
 418:Generated_Source\PSoC4/CyDMA.c ****     uint32 intr;
 419:Generated_Source\PSoC4/CyDMA.c ****     uint32 cbIdx = 0u;
ARM GAS  C:\Users\GREG~1.PHI\AppData\Local\Temp\cckB4vVc.s 			page 19


 608              		.loc 1 419 0
 609 0006 0023     		mov	r3, #0
 610 0008 3B60     		str	r3, [r7]
 420:Generated_Source\PSoC4/CyDMA.c **** 
 421:Generated_Source\PSoC4/CyDMA.c ****     /* Get interrupt source. */
 422:Generated_Source\PSoC4/CyDMA.c ****     intr = CYDMA_INTR_MASKED_REG;
 611              		.loc 1 422 0
 612 000a 0E4B     		ldr	r3, .L61
 613 000c 1B68     		ldr	r3, [r3]
 614 000e 7B60     		str	r3, [r7, #4]
 423:Generated_Source\PSoC4/CyDMA.c **** 
 424:Generated_Source\PSoC4/CyDMA.c ****     /* Clear pending interrupts. */
 425:Generated_Source\PSoC4/CyDMA.c ****     CYDMA_INTR_REG = intr;
 615              		.loc 1 425 0
 616 0010 0D4B     		ldr	r3, .L61+4
 617 0012 7A68     		ldr	r2, [r7, #4]
 618 0014 1A60     		str	r2, [r3]
 426:Generated_Source\PSoC4/CyDMA.c **** 
 427:Generated_Source\PSoC4/CyDMA.c ****     /* Call user defined callback functions for triggered interrupt sources. */
 428:Generated_Source\PSoC4/CyDMA.c ****     while(0u != intr)
 619              		.loc 1 428 0
 620 0016 0EE0     		b	.L58
 621              	.L60:
 429:Generated_Source\PSoC4/CyDMA.c ****     {
 430:Generated_Source\PSoC4/CyDMA.c ****         if(0u != (intr & 0x1u))
 622              		.loc 1 430 0
 623 0018 7B68     		ldr	r3, [r7, #4]
 624 001a 0122     		mov	r2, #1
 625 001c 1340     		and	r3, r2
 626 001e 04D0     		beq	.L59
 431:Generated_Source\PSoC4/CyDMA.c ****         {
 432:Generated_Source\PSoC4/CyDMA.c ****             CyDmaInterruptCallback[cbIdx]();
 627              		.loc 1 432 0
 628 0020 0A4B     		ldr	r3, .L61+8
 629 0022 3A68     		ldr	r2, [r7]
 630 0024 9200     		lsl	r2, r2, #2
 631 0026 D358     		ldr	r3, [r2, r3]
 632 0028 9847     		blx	r3
 633              	.L59:
 433:Generated_Source\PSoC4/CyDMA.c ****         }
 434:Generated_Source\PSoC4/CyDMA.c ****         intr >>= 1;
 634              		.loc 1 434 0
 635 002a 7B68     		ldr	r3, [r7, #4]
 636 002c 5B08     		lsr	r3, r3, #1
 637 002e 7B60     		str	r3, [r7, #4]
 435:Generated_Source\PSoC4/CyDMA.c ****         ++cbIdx;
 638              		.loc 1 435 0
 639 0030 3B68     		ldr	r3, [r7]
 640 0032 0133     		add	r3, r3, #1
 641 0034 3B60     		str	r3, [r7]
 642              	.L58:
 428:Generated_Source\PSoC4/CyDMA.c ****     {
 643              		.loc 1 428 0
 644 0036 7B68     		ldr	r3, [r7, #4]
 645 0038 002B     		cmp	r3, #0
 646 003a EDD1     		bne	.L60
 436:Generated_Source\PSoC4/CyDMA.c ****     }
ARM GAS  C:\Users\GREG~1.PHI\AppData\Local\Temp\cckB4vVc.s 			page 20


 437:Generated_Source\PSoC4/CyDMA.c **** }
 647              		.loc 1 437 0
 648 003c BD46     		mov	sp, r7
 649 003e 02B0     		add	sp, sp, #8
 650              		@ sp needed
 651 0040 80BD     		pop	{r7, pc}
 652              	.L62:
 653 0042 C046     		.align	2
 654              	.L61:
 655 0044 FC171040 		.word	1074796540
 656 0048 F0171040 		.word	1074796528
 657 004c 00000000 		.word	CyDmaInterruptCallback
 658              		.cfi_endproc
 659              	.LFE15:
 660              		.size	CyDmaInterrupt, .-CyDmaInterrupt
 661              		.section	.text.CyDmaDefaultInterruptCallback,"ax",%progbits
 662              		.align	2
 663              		.code	16
 664              		.thumb_func
 665              		.type	CyDmaDefaultInterruptCallback, %function
 666              	CyDmaDefaultInterruptCallback:
 667              	.LFB16:
 438:Generated_Source\PSoC4/CyDMA.c **** 
 439:Generated_Source\PSoC4/CyDMA.c **** 
 440:Generated_Source\PSoC4/CyDMA.c **** /*******************************************************************************
 441:Generated_Source\PSoC4/CyDMA.c **** * Function Name: CyDmaDefaultInterruptCallback
 442:Generated_Source\PSoC4/CyDMA.c **** ********************************************************************************
 443:Generated_Source\PSoC4/CyDMA.c **** *
 444:Generated_Source\PSoC4/CyDMA.c **** * Summary:
 445:Generated_Source\PSoC4/CyDMA.c **** *  This function is invoked when the user defined callback function is undefined
 446:Generated_Source\PSoC4/CyDMA.c **** *  for the interrupt source.
 447:Generated_Source\PSoC4/CyDMA.c **** *
 448:Generated_Source\PSoC4/CyDMA.c **** * Parameters:
 449:Generated_Source\PSoC4/CyDMA.c **** *  None.
 450:Generated_Source\PSoC4/CyDMA.c **** *
 451:Generated_Source\PSoC4/CyDMA.c **** * Return:
 452:Generated_Source\PSoC4/CyDMA.c **** *  None.
 453:Generated_Source\PSoC4/CyDMA.c **** *
 454:Generated_Source\PSoC4/CyDMA.c **** *******************************************************************************/
 455:Generated_Source\PSoC4/CyDMA.c **** static void CyDmaDefaultInterruptCallback(void)
 456:Generated_Source\PSoC4/CyDMA.c **** {
 668              		.loc 1 456 0
 669              		.cfi_startproc
 670 0000 80B5     		push	{r7, lr}
 671              		.cfi_def_cfa_offset 8
 672              		.cfi_offset 7, -8
 673              		.cfi_offset 14, -4
 674 0002 00AF     		add	r7, sp, #0
 675              		.cfi_def_cfa_register 7
 457:Generated_Source\PSoC4/CyDMA.c ****     /* Halt CPU in debug mode. We get here because there is no user defined
 458:Generated_Source\PSoC4/CyDMA.c ****     * callback function for the interrupt source. You should either set a
 459:Generated_Source\PSoC4/CyDMA.c ****     * callback function or disable generating an interrupt from this
 460:Generated_Source\PSoC4/CyDMA.c ****     * interrupt source.
 461:Generated_Source\PSoC4/CyDMA.c ****     * To set a callback, use the CyDmaSetInterruptCallback() API function.
 462:Generated_Source\PSoC4/CyDMA.c ****     * To disable interrupt generation, write '0' to the corresponding bit
 463:Generated_Source\PSoC4/CyDMA.c ****     * in the interrupt mask by calling CyDmaSetInterruptSourceMask().
 464:Generated_Source\PSoC4/CyDMA.c ****     */
ARM GAS  C:\Users\GREG~1.PHI\AppData\Local\Temp\cckB4vVc.s 			page 21


 465:Generated_Source\PSoC4/CyDMA.c ****     CYASSERT(0 != 0);
 676              		.loc 1 465 0
 677 0004 0020     		mov	r0, #0
 678 0006 FFF7FEFF 		bl	CyHalt
 466:Generated_Source\PSoC4/CyDMA.c **** }
 679              		.loc 1 466 0
 680 000a BD46     		mov	sp, r7
 681              		@ sp needed
 682 000c 80BD     		pop	{r7, pc}
 683              		.cfi_endproc
 684              	.LFE16:
 685              		.size	CyDmaDefaultInterruptCallback, .-CyDmaDefaultInterruptCallback
 686              		.section	.text.CyDmaChAlloc,"ax",%progbits
 687              		.align	2
 688              		.global	CyDmaChAlloc
 689              		.code	16
 690              		.thumb_func
 691              		.type	CyDmaChAlloc, %function
 692              	CyDmaChAlloc:
 693              	.LFB17:
 467:Generated_Source\PSoC4/CyDMA.c **** 
 468:Generated_Source\PSoC4/CyDMA.c **** 
 469:Generated_Source\PSoC4/CyDMA.c **** /*******************************************************************************
 470:Generated_Source\PSoC4/CyDMA.c **** * Function Name: CyDmaChAlloc
 471:Generated_Source\PSoC4/CyDMA.c **** ********************************************************************************
 472:Generated_Source\PSoC4/CyDMA.c **** *
 473:Generated_Source\PSoC4/CyDMA.c **** * Summary:
 474:Generated_Source\PSoC4/CyDMA.c **** *  Allocates a channel number to use with later DMA functions.
 475:Generated_Source\PSoC4/CyDMA.c **** *
 476:Generated_Source\PSoC4/CyDMA.c **** * Parameters:
 477:Generated_Source\PSoC4/CyDMA.c **** *  None.
 478:Generated_Source\PSoC4/CyDMA.c **** *                   
 479:Generated_Source\PSoC4/CyDMA.c **** * Return:
 480:Generated_Source\PSoC4/CyDMA.c **** *  The allocated channel number. Zero is a valid channel number.
 481:Generated_Source\PSoC4/CyDMA.c **** *  CYDMA_INVALID_CHANNEL is returned if there are no channels available.
 482:Generated_Source\PSoC4/CyDMA.c **** *
 483:Generated_Source\PSoC4/CyDMA.c **** *******************************************************************************/
 484:Generated_Source\PSoC4/CyDMA.c **** int32 CyDmaChAlloc(void)
 485:Generated_Source\PSoC4/CyDMA.c **** {
 694              		.loc 1 485 0
 695              		.cfi_startproc
 696 0000 80B5     		push	{r7, lr}
 697              		.cfi_def_cfa_offset 8
 698              		.cfi_offset 7, -8
 699              		.cfi_offset 14, -4
 700 0002 82B0     		sub	sp, sp, #8
 701              		.cfi_def_cfa_offset 16
 702 0004 00AF     		add	r7, sp, #0
 703              		.cfi_def_cfa_register 7
 486:Generated_Source\PSoC4/CyDMA.c ****     int32  channel = CYDMA_CH_NR-1;
 704              		.loc 1 486 0
 705 0006 1F23     		mov	r3, #31
 706 0008 7B60     		str	r3, [r7, #4]
 487:Generated_Source\PSoC4/CyDMA.c ****     uint32 channelMask = (uint32)(1UL << (CYDMA_CH_NR-1));
 707              		.loc 1 487 0
 708 000a 8023     		mov	r3, #128
 709 000c 1B06     		lsl	r3, r3, #24
ARM GAS  C:\Users\GREG~1.PHI\AppData\Local\Temp\cckB4vVc.s 			page 22


 710 000e 3B60     		str	r3, [r7]
 488:Generated_Source\PSoC4/CyDMA.c ****     
 489:Generated_Source\PSoC4/CyDMA.c ****     while (channel >= 0)
 711              		.loc 1 489 0
 712 0010 11E0     		b	.L65
 713              	.L68:
 490:Generated_Source\PSoC4/CyDMA.c ****     {
 491:Generated_Source\PSoC4/CyDMA.c ****         if(0u == (CyDmaChannelUsedMask & channelMask))
 714              		.loc 1 491 0
 715 0012 0D4B     		ldr	r3, .L70
 716 0014 1B68     		ldr	r3, [r3]
 717 0016 3A68     		ldr	r2, [r7]
 718 0018 1340     		and	r3, r2
 719 001a 06D1     		bne	.L66
 492:Generated_Source\PSoC4/CyDMA.c ****         {
 493:Generated_Source\PSoC4/CyDMA.c ****             /* Mark channel as used and exit loop. */ 
 494:Generated_Source\PSoC4/CyDMA.c ****             CyDmaChannelUsedMask |= channelMask;
 720              		.loc 1 494 0
 721 001c 0A4B     		ldr	r3, .L70
 722 001e 1A68     		ldr	r2, [r3]
 723 0020 3B68     		ldr	r3, [r7]
 724 0022 1A43     		orr	r2, r3
 725 0024 084B     		ldr	r3, .L70
 726 0026 1A60     		str	r2, [r3]
 495:Generated_Source\PSoC4/CyDMA.c ****             break;
 727              		.loc 1 495 0
 728 0028 08E0     		b	.L67
 729              	.L66:
 496:Generated_Source\PSoC4/CyDMA.c ****         }
 497:Generated_Source\PSoC4/CyDMA.c ****         channelMask >>= 1;
 730              		.loc 1 497 0
 731 002a 3B68     		ldr	r3, [r7]
 732 002c 5B08     		lsr	r3, r3, #1
 733 002e 3B60     		str	r3, [r7]
 498:Generated_Source\PSoC4/CyDMA.c ****         --channel;
 734              		.loc 1 498 0
 735 0030 7B68     		ldr	r3, [r7, #4]
 736 0032 013B     		sub	r3, r3, #1
 737 0034 7B60     		str	r3, [r7, #4]
 738              	.L65:
 489:Generated_Source\PSoC4/CyDMA.c ****     {
 739              		.loc 1 489 0
 740 0036 7B68     		ldr	r3, [r7, #4]
 741 0038 002B     		cmp	r3, #0
 742 003a EADA     		bge	.L68
 743              	.L67:
 499:Generated_Source\PSoC4/CyDMA.c ****     }
 500:Generated_Source\PSoC4/CyDMA.c ****     return (channel);
 744              		.loc 1 500 0
 745 003c 7B68     		ldr	r3, [r7, #4]
 501:Generated_Source\PSoC4/CyDMA.c **** }
 746              		.loc 1 501 0
 747 003e 181C     		mov	r0, r3
 748 0040 BD46     		mov	sp, r7
 749 0042 02B0     		add	sp, sp, #8
 750              		@ sp needed
 751 0044 80BD     		pop	{r7, pc}
ARM GAS  C:\Users\GREG~1.PHI\AppData\Local\Temp\cckB4vVc.s 			page 23


 752              	.L71:
 753 0046 C046     		.align	2
 754              	.L70:
 755 0048 00000000 		.word	CyDmaChannelUsedMask
 756              		.cfi_endproc
 757              	.LFE17:
 758              		.size	CyDmaChAlloc, .-CyDmaChAlloc
 759              		.section	.text.CyDmaChFree,"ax",%progbits
 760              		.align	2
 761              		.global	CyDmaChFree
 762              		.code	16
 763              		.thumb_func
 764              		.type	CyDmaChFree, %function
 765              	CyDmaChFree:
 766              	.LFB18:
 502:Generated_Source\PSoC4/CyDMA.c **** 
 503:Generated_Source\PSoC4/CyDMA.c **** 
 504:Generated_Source\PSoC4/CyDMA.c **** /*******************************************************************************
 505:Generated_Source\PSoC4/CyDMA.c **** * Function Name: CyDmaChFree
 506:Generated_Source\PSoC4/CyDMA.c **** ********************************************************************************
 507:Generated_Source\PSoC4/CyDMA.c **** *
 508:Generated_Source\PSoC4/CyDMA.c **** * Summary:
 509:Generated_Source\PSoC4/CyDMA.c **** *  Frees a channel handle allocated by CyDmaChAlloc(). Channels allocated for
 510:Generated_Source\PSoC4/CyDMA.c **** *  DMA instances placed on a schematic cannot be freed.
 511:Generated_Source\PSoC4/CyDMA.c **** *
 512:Generated_Source\PSoC4/CyDMA.c **** * Parameters:
 513:Generated_Source\PSoC4/CyDMA.c **** *  channel: The handle previously returned by CyDmaChAlloc().
 514:Generated_Source\PSoC4/CyDMA.c **** *                   
 515:Generated_Source\PSoC4/CyDMA.c **** * Return:
 516:Generated_Source\PSoC4/CyDMA.c **** *  CYRET_SUCCESS if successful.
 517:Generated_Source\PSoC4/CyDMA.c **** *  CYRET_BAD_PARAM if channel is invalid.
 518:Generated_Source\PSoC4/CyDMA.c **** *
 519:Generated_Source\PSoC4/CyDMA.c **** *******************************************************************************/
 520:Generated_Source\PSoC4/CyDMA.c **** cystatus CyDmaChFree(int32 channel)
 521:Generated_Source\PSoC4/CyDMA.c **** {
 767              		.loc 1 521 0
 768              		.cfi_startproc
 769 0000 80B5     		push	{r7, lr}
 770              		.cfi_def_cfa_offset 8
 771              		.cfi_offset 7, -8
 772              		.cfi_offset 14, -4
 773 0002 84B0     		sub	sp, sp, #16
 774              		.cfi_def_cfa_offset 24
 775 0004 00AF     		add	r7, sp, #0
 776              		.cfi_def_cfa_register 7
 777 0006 7860     		str	r0, [r7, #4]
 522:Generated_Source\PSoC4/CyDMA.c ****     uint32   channelMask;
 523:Generated_Source\PSoC4/CyDMA.c ****     cystatus result = CYRET_BAD_PARAM;
 778              		.loc 1 523 0
 779 0008 0123     		mov	r3, #1
 780 000a FB60     		str	r3, [r7, #12]
 524:Generated_Source\PSoC4/CyDMA.c **** 
 525:Generated_Source\PSoC4/CyDMA.c ****     CYASSERT((channel >= 0) && (channel < CYDMA_CH_NR));
 781              		.loc 1 525 0
 782 000c 7B68     		ldr	r3, [r7, #4]
 783 000e 002B     		cmp	r3, #0
 784 0010 04DB     		blt	.L73
ARM GAS  C:\Users\GREG~1.PHI\AppData\Local\Temp\cckB4vVc.s 			page 24


 785              		.loc 1 525 0 is_stmt 0 discriminator 1
 786 0012 7B68     		ldr	r3, [r7, #4]
 787 0014 1F2B     		cmp	r3, #31
 788 0016 01DC     		bgt	.L73
 789              		.loc 1 525 0 discriminator 3
 790 0018 0123     		mov	r3, #1
 791 001a 00E0     		b	.L74
 792              	.L73:
 793              		.loc 1 525 0 discriminator 4
 794 001c 0023     		mov	r3, #0
 795              	.L74:
 796              		.loc 1 525 0 discriminator 6
 797 001e 002B     		cmp	r3, #0
 798 0020 02D1     		bne	.L75
 799              		.loc 1 525 0 discriminator 7
 800 0022 0020     		mov	r0, #0
 801 0024 FFF7FEFF 		bl	CyHalt
 802              	.L75:
 526:Generated_Source\PSoC4/CyDMA.c ****     
 527:Generated_Source\PSoC4/CyDMA.c ****     channelMask = (uint32)(1UL << channel);
 803              		.loc 1 527 0 is_stmt 1
 804 0028 0122     		mov	r2, #1
 805 002a 7B68     		ldr	r3, [r7, #4]
 806 002c 9A40     		lsl	r2, r2, r3
 807 002e 131C     		mov	r3, r2
 808 0030 BB60     		str	r3, [r7, #8]
 528:Generated_Source\PSoC4/CyDMA.c **** 
 529:Generated_Source\PSoC4/CyDMA.c ****     /* Check against attempt to free channel allocated for DMA instance
 530:Generated_Source\PSoC4/CyDMA.c ****     * placed on schematic.
 531:Generated_Source\PSoC4/CyDMA.c ****     */
 532:Generated_Source\PSoC4/CyDMA.c ****     if(0u == (channelMask & DMA_CHANNELS_USED__MASK))
 533:Generated_Source\PSoC4/CyDMA.c ****     {
 534:Generated_Source\PSoC4/CyDMA.c ****         CyDmaChannelUsedMask &= (uint32)~channelMask;
 809              		.loc 1 534 0
 810 0032 BB68     		ldr	r3, [r7, #8]
 811 0034 DA43     		mvn	r2, r3
 812 0036 064B     		ldr	r3, .L77
 813 0038 1B68     		ldr	r3, [r3]
 814 003a 1A40     		and	r2, r3
 815 003c 044B     		ldr	r3, .L77
 816 003e 1A60     		str	r2, [r3]
 535:Generated_Source\PSoC4/CyDMA.c ****         result = CYRET_SUCCESS;
 817              		.loc 1 535 0
 818 0040 0023     		mov	r3, #0
 819 0042 FB60     		str	r3, [r7, #12]
 536:Generated_Source\PSoC4/CyDMA.c ****     }
 537:Generated_Source\PSoC4/CyDMA.c ****     
 538:Generated_Source\PSoC4/CyDMA.c ****     return (result);
 820              		.loc 1 538 0
 821 0044 FB68     		ldr	r3, [r7, #12]
 539:Generated_Source\PSoC4/CyDMA.c **** }
 822              		.loc 1 539 0
 823 0046 181C     		mov	r0, r3
 824 0048 BD46     		mov	sp, r7
 825 004a 04B0     		add	sp, sp, #16
 826              		@ sp needed
 827 004c 80BD     		pop	{r7, pc}
ARM GAS  C:\Users\GREG~1.PHI\AppData\Local\Temp\cckB4vVc.s 			page 25


 828              	.L78:
 829 004e C046     		.align	2
 830              	.L77:
 831 0050 00000000 		.word	CyDmaChannelUsedMask
 832              		.cfi_endproc
 833              	.LFE18:
 834              		.size	CyDmaChFree, .-CyDmaChFree
 835              		.section	.text.CyDmaChEnable,"ax",%progbits
 836              		.align	2
 837              		.global	CyDmaChEnable
 838              		.code	16
 839              		.thumb_func
 840              		.type	CyDmaChEnable, %function
 841              	CyDmaChEnable:
 842              	.LFB19:
 540:Generated_Source\PSoC4/CyDMA.c **** 
 541:Generated_Source\PSoC4/CyDMA.c **** 
 542:Generated_Source\PSoC4/CyDMA.c **** /*******************************************************************************
 543:Generated_Source\PSoC4/CyDMA.c **** * Function Name: CyDmaChEnable
 544:Generated_Source\PSoC4/CyDMA.c **** ********************************************************************************
 545:Generated_Source\PSoC4/CyDMA.c **** *
 546:Generated_Source\PSoC4/CyDMA.c **** * Summary:
 547:Generated_Source\PSoC4/CyDMA.c **** *  Enables the DMA channel.
 548:Generated_Source\PSoC4/CyDMA.c **** *
 549:Generated_Source\PSoC4/CyDMA.c **** * Parameters:
 550:Generated_Source\PSoC4/CyDMA.c **** *  channel: Channel used by this function.
 551:Generated_Source\PSoC4/CyDMA.c **** *                   
 552:Generated_Source\PSoC4/CyDMA.c **** * Return:
 553:Generated_Source\PSoC4/CyDMA.c **** *  None.
 554:Generated_Source\PSoC4/CyDMA.c **** *
 555:Generated_Source\PSoC4/CyDMA.c **** * Side effect:
 556:Generated_Source\PSoC4/CyDMA.c **** *  If this function is called before CyDmaSetConfiguration(), and
 557:Generated_Source\PSoC4/CyDMA.c **** *  CyDmaSetSrcAddress() and CyDmaSetDstAddress(), the operation of
 558:Generated_Source\PSoC4/CyDMA.c **** *  the DMA is undefined and could result in system data corruption. 
 559:Generated_Source\PSoC4/CyDMA.c **** *
 560:Generated_Source\PSoC4/CyDMA.c **** *******************************************************************************/
 561:Generated_Source\PSoC4/CyDMA.c **** void CyDmaChEnable(int32 channel)
 562:Generated_Source\PSoC4/CyDMA.c **** {
 843              		.loc 1 562 0
 844              		.cfi_startproc
 845 0000 80B5     		push	{r7, lr}
 846              		.cfi_def_cfa_offset 8
 847              		.cfi_offset 7, -8
 848              		.cfi_offset 14, -4
 849 0002 82B0     		sub	sp, sp, #8
 850              		.cfi_def_cfa_offset 16
 851 0004 00AF     		add	r7, sp, #0
 852              		.cfi_def_cfa_register 7
 853 0006 7860     		str	r0, [r7, #4]
 563:Generated_Source\PSoC4/CyDMA.c ****     CYASSERT((channel >= 0) && (channel < CYDMA_CH_NR));
 854              		.loc 1 563 0
 855 0008 7B68     		ldr	r3, [r7, #4]
 856 000a 002B     		cmp	r3, #0
 857 000c 04DB     		blt	.L80
 858              		.loc 1 563 0 is_stmt 0 discriminator 1
 859 000e 7B68     		ldr	r3, [r7, #4]
 860 0010 1F2B     		cmp	r3, #31
ARM GAS  C:\Users\GREG~1.PHI\AppData\Local\Temp\cckB4vVc.s 			page 26


 861 0012 01DC     		bgt	.L80
 862              		.loc 1 563 0 discriminator 3
 863 0014 0123     		mov	r3, #1
 864 0016 00E0     		b	.L81
 865              	.L80:
 866              		.loc 1 563 0 discriminator 4
 867 0018 0023     		mov	r3, #0
 868              	.L81:
 869              		.loc 1 563 0 discriminator 6
 870 001a 002B     		cmp	r3, #0
 871 001c 02D1     		bne	.L82
 872              		.loc 1 563 0 discriminator 7
 873 001e 0020     		mov	r0, #0
 874 0020 FFF7FEFF 		bl	CyHalt
 875              	.L82:
 564:Generated_Source\PSoC4/CyDMA.c **** 
 565:Generated_Source\PSoC4/CyDMA.c ****     CYDMA_CH_CTL_BASE.ctl[channel] |= CYDMA_ENABLED;
 876              		.loc 1 565 0 is_stmt 1
 877 0024 0649     		ldr	r1, .L83
 878 0026 064A     		ldr	r2, .L83
 879 0028 7B68     		ldr	r3, [r7, #4]
 880 002a 9B00     		lsl	r3, r3, #2
 881 002c 9B58     		ldr	r3, [r3, r2]
 882 002e 8022     		mov	r2, #128
 883 0030 1206     		lsl	r2, r2, #24
 884 0032 1A43     		orr	r2, r3
 885 0034 7B68     		ldr	r3, [r7, #4]
 886 0036 9B00     		lsl	r3, r3, #2
 887 0038 5A50     		str	r2, [r3, r1]
 566:Generated_Source\PSoC4/CyDMA.c **** }
 888              		.loc 1 566 0
 889 003a BD46     		mov	sp, r7
 890 003c 02B0     		add	sp, sp, #8
 891              		@ sp needed
 892 003e 80BD     		pop	{r7, pc}
 893              	.L84:
 894              		.align	2
 895              	.L83:
 896 0040 80101040 		.word	1074794624
 897              		.cfi_endproc
 898              	.LFE19:
 899              		.size	CyDmaChEnable, .-CyDmaChEnable
 900              		.section	.text.CyDmaChDisable,"ax",%progbits
 901              		.align	2
 902              		.global	CyDmaChDisable
 903              		.code	16
 904              		.thumb_func
 905              		.type	CyDmaChDisable, %function
 906              	CyDmaChDisable:
 907              	.LFB20:
 567:Generated_Source\PSoC4/CyDMA.c **** 
 568:Generated_Source\PSoC4/CyDMA.c **** 
 569:Generated_Source\PSoC4/CyDMA.c **** /*******************************************************************************
 570:Generated_Source\PSoC4/CyDMA.c **** * Function Name: CyDmaChDisable
 571:Generated_Source\PSoC4/CyDMA.c **** ********************************************************************************
 572:Generated_Source\PSoC4/CyDMA.c **** *
 573:Generated_Source\PSoC4/CyDMA.c **** * Summary:
ARM GAS  C:\Users\GREG~1.PHI\AppData\Local\Temp\cckB4vVc.s 			page 27


 574:Generated_Source\PSoC4/CyDMA.c **** *  Disables the DMA channel.
 575:Generated_Source\PSoC4/CyDMA.c **** *
 576:Generated_Source\PSoC4/CyDMA.c **** * Parameters:
 577:Generated_Source\PSoC4/CyDMA.c **** *  channel: Channel used by this function.
 578:Generated_Source\PSoC4/CyDMA.c **** *                   
 579:Generated_Source\PSoC4/CyDMA.c **** * Return:
 580:Generated_Source\PSoC4/CyDMA.c **** *  None.
 581:Generated_Source\PSoC4/CyDMA.c **** *
 582:Generated_Source\PSoC4/CyDMA.c **** * Side effect:
 583:Generated_Source\PSoC4/CyDMA.c **** *  If this function is called during a DMA transfer the transfer is aborted. 
 584:Generated_Source\PSoC4/CyDMA.c **** *
 585:Generated_Source\PSoC4/CyDMA.c **** *******************************************************************************/
 586:Generated_Source\PSoC4/CyDMA.c **** void CyDmaChDisable(int32 channel)
 587:Generated_Source\PSoC4/CyDMA.c **** {
 908              		.loc 1 587 0
 909              		.cfi_startproc
 910 0000 80B5     		push	{r7, lr}
 911              		.cfi_def_cfa_offset 8
 912              		.cfi_offset 7, -8
 913              		.cfi_offset 14, -4
 914 0002 82B0     		sub	sp, sp, #8
 915              		.cfi_def_cfa_offset 16
 916 0004 00AF     		add	r7, sp, #0
 917              		.cfi_def_cfa_register 7
 918 0006 7860     		str	r0, [r7, #4]
 588:Generated_Source\PSoC4/CyDMA.c ****     CYASSERT((channel >= 0) && (channel < CYDMA_CH_NR));
 919              		.loc 1 588 0
 920 0008 7B68     		ldr	r3, [r7, #4]
 921 000a 002B     		cmp	r3, #0
 922 000c 04DB     		blt	.L86
 923              		.loc 1 588 0 is_stmt 0 discriminator 1
 924 000e 7B68     		ldr	r3, [r7, #4]
 925 0010 1F2B     		cmp	r3, #31
 926 0012 01DC     		bgt	.L86
 927              		.loc 1 588 0 discriminator 3
 928 0014 0123     		mov	r3, #1
 929 0016 00E0     		b	.L87
 930              	.L86:
 931              		.loc 1 588 0 discriminator 4
 932 0018 0023     		mov	r3, #0
 933              	.L87:
 934              		.loc 1 588 0 discriminator 6
 935 001a 002B     		cmp	r3, #0
 936 001c 02D1     		bne	.L88
 937              		.loc 1 588 0 discriminator 7
 938 001e 0020     		mov	r0, #0
 939 0020 FFF7FEFF 		bl	CyHalt
 940              	.L88:
 589:Generated_Source\PSoC4/CyDMA.c **** 
 590:Generated_Source\PSoC4/CyDMA.c ****     CYDMA_CH_CTL_BASE.ctl[channel] &= (uint32)~CYDMA_ENABLED;
 941              		.loc 1 590 0 is_stmt 1
 942 0024 0649     		ldr	r1, .L89
 943 0026 064A     		ldr	r2, .L89
 944 0028 7B68     		ldr	r3, [r7, #4]
 945 002a 9B00     		lsl	r3, r3, #2
 946 002c 9B58     		ldr	r3, [r3, r2]
 947 002e 5B00     		lsl	r3, r3, #1
ARM GAS  C:\Users\GREG~1.PHI\AppData\Local\Temp\cckB4vVc.s 			page 28


 948 0030 5A08     		lsr	r2, r3, #1
 949 0032 7B68     		ldr	r3, [r7, #4]
 950 0034 9B00     		lsl	r3, r3, #2
 951 0036 5A50     		str	r2, [r3, r1]
 591:Generated_Source\PSoC4/CyDMA.c **** }
 952              		.loc 1 591 0
 953 0038 BD46     		mov	sp, r7
 954 003a 02B0     		add	sp, sp, #8
 955              		@ sp needed
 956 003c 80BD     		pop	{r7, pc}
 957              	.L90:
 958 003e C046     		.align	2
 959              	.L89:
 960 0040 80101040 		.word	1074794624
 961              		.cfi_endproc
 962              	.LFE20:
 963              		.size	CyDmaChDisable, .-CyDmaChDisable
 964              		.section	.text.CyDmaTrigger,"ax",%progbits
 965              		.align	2
 966              		.global	CyDmaTrigger
 967              		.code	16
 968              		.thumb_func
 969              		.type	CyDmaTrigger, %function
 970              	CyDmaTrigger:
 971              	.LFB21:
 592:Generated_Source\PSoC4/CyDMA.c **** 
 593:Generated_Source\PSoC4/CyDMA.c **** 
 594:Generated_Source\PSoC4/CyDMA.c **** /*******************************************************************************
 595:Generated_Source\PSoC4/CyDMA.c **** * Function Name: CyDmaTrigger
 596:Generated_Source\PSoC4/CyDMA.c **** ********************************************************************************
 597:Generated_Source\PSoC4/CyDMA.c **** *
 598:Generated_Source\PSoC4/CyDMA.c **** * Summary:
 599:Generated_Source\PSoC4/CyDMA.c **** *  Triggers the DMA channel, this is useful only for software triggers. This is
 600:Generated_Source\PSoC4/CyDMA.c **** *  not needed when hardware triggers are used.
 601:Generated_Source\PSoC4/CyDMA.c **** *
 602:Generated_Source\PSoC4/CyDMA.c **** * Parameters:
 603:Generated_Source\PSoC4/CyDMA.c **** *  channel: Channel used by this function.
 604:Generated_Source\PSoC4/CyDMA.c **** *                   
 605:Generated_Source\PSoC4/CyDMA.c **** * Return:
 606:Generated_Source\PSoC4/CyDMA.c **** *  None. 
 607:Generated_Source\PSoC4/CyDMA.c **** *
 608:Generated_Source\PSoC4/CyDMA.c **** *******************************************************************************/
 609:Generated_Source\PSoC4/CyDMA.c **** void CyDmaTrigger(int32 channel)
 610:Generated_Source\PSoC4/CyDMA.c **** {
 972              		.loc 1 610 0
 973              		.cfi_startproc
 974 0000 80B5     		push	{r7, lr}
 975              		.cfi_def_cfa_offset 8
 976              		.cfi_offset 7, -8
 977              		.cfi_offset 14, -4
 978 0002 82B0     		sub	sp, sp, #8
 979              		.cfi_def_cfa_offset 16
 980 0004 00AF     		add	r7, sp, #0
 981              		.cfi_def_cfa_register 7
 982 0006 7860     		str	r0, [r7, #4]
 611:Generated_Source\PSoC4/CyDMA.c ****     /* The LUT is device-dependent, thus it is generated during the build process. */
 612:Generated_Source\PSoC4/CyDMA.c ****     static const uint32 trCtlLut[] = {0xC0020000U, 0xC0020100U, 0xC0020200U, 0xC0020208U};
ARM GAS  C:\Users\GREG~1.PHI\AppData\Local\Temp\cckB4vVc.s 			page 29


 613:Generated_Source\PSoC4/CyDMA.c **** 
 614:Generated_Source\PSoC4/CyDMA.c ****     CYASSERT((channel >= 0) && (channel < CYDMA_CH_NR));
 983              		.loc 1 614 0
 984 0008 7B68     		ldr	r3, [r7, #4]
 985 000a 002B     		cmp	r3, #0
 986 000c 04DB     		blt	.L92
 987              		.loc 1 614 0 is_stmt 0 discriminator 1
 988 000e 7B68     		ldr	r3, [r7, #4]
 989 0010 1F2B     		cmp	r3, #31
 990 0012 01DC     		bgt	.L92
 991              		.loc 1 614 0 discriminator 3
 992 0014 0123     		mov	r3, #1
 993 0016 00E0     		b	.L93
 994              	.L92:
 995              		.loc 1 614 0 discriminator 4
 996 0018 0023     		mov	r3, #0
 997              	.L93:
 998              		.loc 1 614 0 discriminator 6
 999 001a 002B     		cmp	r3, #0
 1000 001c 02D1     		bne	.L94
 1001              		.loc 1 614 0 discriminator 7
 1002 001e 0020     		mov	r0, #0
 1003 0020 FFF7FEFF 		bl	CyHalt
 1004              	.L94:
 615:Generated_Source\PSoC4/CyDMA.c **** 
 616:Generated_Source\PSoC4/CyDMA.c ****     CYDMA_TR_CTL_REG = trCtlLut[(uint32)channel >> CYDMA_TR_GROUP_SHR] | ((uint32)channel & CYDMA_T
 1005              		.loc 1 616 0 is_stmt 1
 1006 0024 064B     		ldr	r3, .L95
 1007 0026 7A68     		ldr	r2, [r7, #4]
 1008 0028 D108     		lsr	r1, r2, #3
 1009 002a 064A     		ldr	r2, .L95+4
 1010 002c 8900     		lsl	r1, r1, #2
 1011 002e 8958     		ldr	r1, [r1, r2]
 1012 0030 7A68     		ldr	r2, [r7, #4]
 1013 0032 0720     		mov	r0, #7
 1014 0034 0240     		and	r2, r0
 1015 0036 0A43     		orr	r2, r1
 1016 0038 1A60     		str	r2, [r3]
 617:Generated_Source\PSoC4/CyDMA.c **** }
 1017              		.loc 1 617 0
 1018 003a BD46     		mov	sp, r7
 1019 003c 02B0     		add	sp, sp, #8
 1020              		@ sp needed
 1021 003e 80BD     		pop	{r7, pc}
 1022              	.L96:
 1023              		.align	2
 1024              	.L95:
 1025 0040 00060140 		.word	1073808896
 1026 0044 00000000 		.word	trCtlLut.5019
 1027              		.cfi_endproc
 1028              	.LFE21:
 1029              		.size	CyDmaTrigger, .-CyDmaTrigger
 1030              		.section	.text.CyDmaSetPriority,"ax",%progbits
 1031              		.align	2
 1032              		.global	CyDmaSetPriority
 1033              		.code	16
 1034              		.thumb_func
ARM GAS  C:\Users\GREG~1.PHI\AppData\Local\Temp\cckB4vVc.s 			page 30


 1035              		.type	CyDmaSetPriority, %function
 1036              	CyDmaSetPriority:
 1037              	.LFB22:
 618:Generated_Source\PSoC4/CyDMA.c **** 
 619:Generated_Source\PSoC4/CyDMA.c **** 
 620:Generated_Source\PSoC4/CyDMA.c **** /*******************************************************************************
 621:Generated_Source\PSoC4/CyDMA.c **** * Function Name: CyDmaSetPriority
 622:Generated_Source\PSoC4/CyDMA.c **** ********************************************************************************
 623:Generated_Source\PSoC4/CyDMA.c **** *
 624:Generated_Source\PSoC4/CyDMA.c **** * Summary:
 625:Generated_Source\PSoC4/CyDMA.c **** *  Sets the priority for the channel.
 626:Generated_Source\PSoC4/CyDMA.c **** *
 627:Generated_Source\PSoC4/CyDMA.c **** * Parameters:
 628:Generated_Source\PSoC4/CyDMA.c **** *  channel:  Channel used by this function
 629:Generated_Source\PSoC4/CyDMA.c **** *  priority: Priority for channel. Priority can be 0,1,2, or 3.
 630:Generated_Source\PSoC4/CyDMA.c **** *            0 is the highest priority.
 631:Generated_Source\PSoC4/CyDMA.c **** *                   
 632:Generated_Source\PSoC4/CyDMA.c **** * Return:
 633:Generated_Source\PSoC4/CyDMA.c **** *  None.
 634:Generated_Source\PSoC4/CyDMA.c **** *
 635:Generated_Source\PSoC4/CyDMA.c **** * Side effect:
 636:Generated_Source\PSoC4/CyDMA.c **** *  This function should not be called while the channel is enabled.
 637:Generated_Source\PSoC4/CyDMA.c **** *
 638:Generated_Source\PSoC4/CyDMA.c **** *******************************************************************************/
 639:Generated_Source\PSoC4/CyDMA.c **** void CyDmaSetPriority(int32 channel, int32 priority)
 640:Generated_Source\PSoC4/CyDMA.c **** {
 1038              		.loc 1 640 0
 1039              		.cfi_startproc
 1040 0000 80B5     		push	{r7, lr}
 1041              		.cfi_def_cfa_offset 8
 1042              		.cfi_offset 7, -8
 1043              		.cfi_offset 14, -4
 1044 0002 84B0     		sub	sp, sp, #16
 1045              		.cfi_def_cfa_offset 24
 1046 0004 00AF     		add	r7, sp, #0
 1047              		.cfi_def_cfa_register 7
 1048 0006 7860     		str	r0, [r7, #4]
 1049 0008 3960     		str	r1, [r7]
 641:Generated_Source\PSoC4/CyDMA.c ****     uint32 regValue;
 642:Generated_Source\PSoC4/CyDMA.c **** 
 643:Generated_Source\PSoC4/CyDMA.c ****     CYASSERT((channel  >= 0) && (channel  <  CYDMA_CH_NR));
 1050              		.loc 1 643 0
 1051 000a 7B68     		ldr	r3, [r7, #4]
 1052 000c 002B     		cmp	r3, #0
 1053 000e 04DB     		blt	.L98
 1054              		.loc 1 643 0 is_stmt 0 discriminator 1
 1055 0010 7B68     		ldr	r3, [r7, #4]
 1056 0012 1F2B     		cmp	r3, #31
 1057 0014 01DC     		bgt	.L98
 1058              		.loc 1 643 0 discriminator 3
 1059 0016 0123     		mov	r3, #1
 1060 0018 00E0     		b	.L99
 1061              	.L98:
 1062              		.loc 1 643 0 discriminator 4
 1063 001a 0023     		mov	r3, #0
 1064              	.L99:
 1065              		.loc 1 643 0 discriminator 6
ARM GAS  C:\Users\GREG~1.PHI\AppData\Local\Temp\cckB4vVc.s 			page 31


 1066 001c 002B     		cmp	r3, #0
 1067 001e 02D1     		bne	.L100
 1068              		.loc 1 643 0 discriminator 7
 1069 0020 0020     		mov	r0, #0
 1070 0022 FFF7FEFF 		bl	CyHalt
 1071              	.L100:
 644:Generated_Source\PSoC4/CyDMA.c ****     CYASSERT((priority >= 0) && (priority <= CY_DMA_MAX_PRIO));
 1072              		.loc 1 644 0 is_stmt 1
 1073 0026 3B68     		ldr	r3, [r7]
 1074 0028 002B     		cmp	r3, #0
 1075 002a 04DB     		blt	.L101
 1076              		.loc 1 644 0 is_stmt 0 discriminator 1
 1077 002c 3B68     		ldr	r3, [r7]
 1078 002e 032B     		cmp	r3, #3
 1079 0030 01DC     		bgt	.L101
 1080              		.loc 1 644 0 discriminator 3
 1081 0032 0123     		mov	r3, #1
 1082 0034 00E0     		b	.L102
 1083              	.L101:
 1084              		.loc 1 644 0 discriminator 4
 1085 0036 0023     		mov	r3, #0
 1086              	.L102:
 1087              		.loc 1 644 0 discriminator 6
 1088 0038 002B     		cmp	r3, #0
 1089 003a 02D1     		bne	.L103
 1090              		.loc 1 644 0 discriminator 7
 1091 003c 0020     		mov	r0, #0
 1092 003e FFF7FEFF 		bl	CyHalt
 1093              	.L103:
 645:Generated_Source\PSoC4/CyDMA.c **** 
 646:Generated_Source\PSoC4/CyDMA.c ****     regValue = CYDMA_CH_CTL_BASE.ctl[channel] & (uint32)~CYDMA_PRIO;
 1094              		.loc 1 646 0 is_stmt 1
 1095 0042 094A     		ldr	r2, .L104
 1096 0044 7B68     		ldr	r3, [r7, #4]
 1097 0046 9B00     		lsl	r3, r3, #2
 1098 0048 9B58     		ldr	r3, [r3, r2]
 1099 004a 084A     		ldr	r2, .L104+4
 1100 004c 1340     		and	r3, r2
 1101 004e FB60     		str	r3, [r7, #12]
 647:Generated_Source\PSoC4/CyDMA.c ****     CYDMA_CH_CTL_BASE.ctl[channel] = regValue | (uint32)((uint32)priority << CYDMA_PRIO_POS);
 1102              		.loc 1 647 0
 1103 0050 0549     		ldr	r1, .L104
 1104 0052 3B68     		ldr	r3, [r7]
 1105 0054 1A07     		lsl	r2, r3, #28
 1106 0056 FB68     		ldr	r3, [r7, #12]
 1107 0058 1A43     		orr	r2, r3
 1108 005a 7B68     		ldr	r3, [r7, #4]
 1109 005c 9B00     		lsl	r3, r3, #2
 1110 005e 5A50     		str	r2, [r3, r1]
 648:Generated_Source\PSoC4/CyDMA.c **** }
 1111              		.loc 1 648 0
 1112 0060 BD46     		mov	sp, r7
 1113 0062 04B0     		add	sp, sp, #16
 1114              		@ sp needed
 1115 0064 80BD     		pop	{r7, pc}
 1116              	.L105:
 1117 0066 C046     		.align	2
ARM GAS  C:\Users\GREG~1.PHI\AppData\Local\Temp\cckB4vVc.s 			page 32


 1118              	.L104:
 1119 0068 80101040 		.word	1074794624
 1120 006c FFFFFFCF 		.word	-805306369
 1121              		.cfi_endproc
 1122              	.LFE22:
 1123              		.size	CyDmaSetPriority, .-CyDmaSetPriority
 1124              		.section	.text.CyDmaGetPriority,"ax",%progbits
 1125              		.align	2
 1126              		.global	CyDmaGetPriority
 1127              		.code	16
 1128              		.thumb_func
 1129              		.type	CyDmaGetPriority, %function
 1130              	CyDmaGetPriority:
 1131              	.LFB23:
 649:Generated_Source\PSoC4/CyDMA.c **** 
 650:Generated_Source\PSoC4/CyDMA.c **** 
 651:Generated_Source\PSoC4/CyDMA.c **** /*******************************************************************************
 652:Generated_Source\PSoC4/CyDMA.c **** * Function Name: CyDmaGetPriority
 653:Generated_Source\PSoC4/CyDMA.c **** ********************************************************************************
 654:Generated_Source\PSoC4/CyDMA.c **** *
 655:Generated_Source\PSoC4/CyDMA.c **** * Summary:
 656:Generated_Source\PSoC4/CyDMA.c **** *  Gets the priority for the channel.
 657:Generated_Source\PSoC4/CyDMA.c **** *
 658:Generated_Source\PSoC4/CyDMA.c **** * Parameters:
 659:Generated_Source\PSoC4/CyDMA.c **** *  channel: Channel used by this function.
 660:Generated_Source\PSoC4/CyDMA.c **** *                   
 661:Generated_Source\PSoC4/CyDMA.c **** * Return:
 662:Generated_Source\PSoC4/CyDMA.c **** *  Priority for channel. Priority can be 0,1,2, or 3. 0 is the highest priority.
 663:Generated_Source\PSoC4/CyDMA.c **** *
 664:Generated_Source\PSoC4/CyDMA.c **** *******************************************************************************/
 665:Generated_Source\PSoC4/CyDMA.c **** int32 CyDmaGetPriority(int32 channel)
 666:Generated_Source\PSoC4/CyDMA.c **** {
 1132              		.loc 1 666 0
 1133              		.cfi_startproc
 1134 0000 80B5     		push	{r7, lr}
 1135              		.cfi_def_cfa_offset 8
 1136              		.cfi_offset 7, -8
 1137              		.cfi_offset 14, -4
 1138 0002 84B0     		sub	sp, sp, #16
 1139              		.cfi_def_cfa_offset 24
 1140 0004 00AF     		add	r7, sp, #0
 1141              		.cfi_def_cfa_register 7
 1142 0006 7860     		str	r0, [r7, #4]
 667:Generated_Source\PSoC4/CyDMA.c ****     uint32 priority;
 668:Generated_Source\PSoC4/CyDMA.c **** 
 669:Generated_Source\PSoC4/CyDMA.c ****     CYASSERT((channel >= 0) && (channel < CYDMA_CH_NR));
 1143              		.loc 1 669 0
 1144 0008 7B68     		ldr	r3, [r7, #4]
 1145 000a 002B     		cmp	r3, #0
 1146 000c 04DB     		blt	.L107
 1147              		.loc 1 669 0 is_stmt 0 discriminator 1
 1148 000e 7B68     		ldr	r3, [r7, #4]
 1149 0010 1F2B     		cmp	r3, #31
 1150 0012 01DC     		bgt	.L107
 1151              		.loc 1 669 0 discriminator 3
 1152 0014 0123     		mov	r3, #1
 1153 0016 00E0     		b	.L108
ARM GAS  C:\Users\GREG~1.PHI\AppData\Local\Temp\cckB4vVc.s 			page 33


 1154              	.L107:
 1155              		.loc 1 669 0 discriminator 4
 1156 0018 0023     		mov	r3, #0
 1157              	.L108:
 1158              		.loc 1 669 0 discriminator 6
 1159 001a 002B     		cmp	r3, #0
 1160 001c 02D1     		bne	.L109
 1161              		.loc 1 669 0 discriminator 7
 1162 001e 0020     		mov	r0, #0
 1163 0020 FFF7FEFF 		bl	CyHalt
 1164              	.L109:
 670:Generated_Source\PSoC4/CyDMA.c **** 
 671:Generated_Source\PSoC4/CyDMA.c ****     priority = (CYDMA_CH_CTL_BASE.ctl[channel] & CYDMA_PRIO) >> CYDMA_PRIO_POS;
 1165              		.loc 1 671 0 is_stmt 1
 1166 0024 064A     		ldr	r2, .L111
 1167 0026 7B68     		ldr	r3, [r7, #4]
 1168 0028 9B00     		lsl	r3, r3, #2
 1169 002a 9A58     		ldr	r2, [r3, r2]
 1170 002c C023     		mov	r3, #192
 1171 002e 9B05     		lsl	r3, r3, #22
 1172 0030 1340     		and	r3, r2
 1173 0032 1B0F     		lsr	r3, r3, #28
 1174 0034 FB60     		str	r3, [r7, #12]
 672:Generated_Source\PSoC4/CyDMA.c ****     return ((int32)priority);
 1175              		.loc 1 672 0
 1176 0036 FB68     		ldr	r3, [r7, #12]
 673:Generated_Source\PSoC4/CyDMA.c **** }
 1177              		.loc 1 673 0
 1178 0038 181C     		mov	r0, r3
 1179 003a BD46     		mov	sp, r7
 1180 003c 04B0     		add	sp, sp, #16
 1181              		@ sp needed
 1182 003e 80BD     		pop	{r7, pc}
 1183              	.L112:
 1184              		.align	2
 1185              	.L111:
 1186 0040 80101040 		.word	1074794624
 1187              		.cfi_endproc
 1188              	.LFE23:
 1189              		.size	CyDmaGetPriority, .-CyDmaGetPriority
 1190              		.section	.text.CyDmaSetNextDescriptor,"ax",%progbits
 1191              		.align	2
 1192              		.global	CyDmaSetNextDescriptor
 1193              		.code	16
 1194              		.thumb_func
 1195              		.type	CyDmaSetNextDescriptor, %function
 1196              	CyDmaSetNextDescriptor:
 1197              	.LFB24:
 674:Generated_Source\PSoC4/CyDMA.c **** 
 675:Generated_Source\PSoC4/CyDMA.c **** 
 676:Generated_Source\PSoC4/CyDMA.c **** /*******************************************************************************
 677:Generated_Source\PSoC4/CyDMA.c **** * Function Name: CyDmaSetNextDescriptor
 678:Generated_Source\PSoC4/CyDMA.c **** ********************************************************************************
 679:Generated_Source\PSoC4/CyDMA.c **** *
 680:Generated_Source\PSoC4/CyDMA.c **** * Summary:
 681:Generated_Source\PSoC4/CyDMA.c **** *  Sets the descriptor that should be run the next time the channel is
 682:Generated_Source\PSoC4/CyDMA.c **** *  triggered.
ARM GAS  C:\Users\GREG~1.PHI\AppData\Local\Temp\cckB4vVc.s 			page 34


 683:Generated_Source\PSoC4/CyDMA.c **** *
 684:Generated_Source\PSoC4/CyDMA.c **** * Parameters:
 685:Generated_Source\PSoC4/CyDMA.c **** *  channel:    Channel used by this function.
 686:Generated_Source\PSoC4/CyDMA.c **** *  descriptor: Next Descriptor to run (0 or 1).
 687:Generated_Source\PSoC4/CyDMA.c **** *
 688:Generated_Source\PSoC4/CyDMA.c **** * Return:
 689:Generated_Source\PSoC4/CyDMA.c **** *  None.
 690:Generated_Source\PSoC4/CyDMA.c **** *                   
 691:Generated_Source\PSoC4/CyDMA.c **** * Side effect:
 692:Generated_Source\PSoC4/CyDMA.c **** *  This function should not be called while the channel is enabled.
 693:Generated_Source\PSoC4/CyDMA.c **** *
 694:Generated_Source\PSoC4/CyDMA.c **** *******************************************************************************/
 695:Generated_Source\PSoC4/CyDMA.c **** void CyDmaSetNextDescriptor(int32 channel, int32 descriptor)
 696:Generated_Source\PSoC4/CyDMA.c **** {
 1198              		.loc 1 696 0
 1199              		.cfi_startproc
 1200 0000 80B5     		push	{r7, lr}
 1201              		.cfi_def_cfa_offset 8
 1202              		.cfi_offset 7, -8
 1203              		.cfi_offset 14, -4
 1204 0002 84B0     		sub	sp, sp, #16
 1205              		.cfi_def_cfa_offset 24
 1206 0004 00AF     		add	r7, sp, #0
 1207              		.cfi_def_cfa_register 7
 1208 0006 7860     		str	r0, [r7, #4]
 1209 0008 3960     		str	r1, [r7]
 697:Generated_Source\PSoC4/CyDMA.c ****     uint32 regValue;
 698:Generated_Source\PSoC4/CyDMA.c **** 
 699:Generated_Source\PSoC4/CyDMA.c ****     CYASSERT((channel    >= 0) && (channel    < CYDMA_CH_NR));
 1210              		.loc 1 699 0
 1211 000a 7B68     		ldr	r3, [r7, #4]
 1212 000c 002B     		cmp	r3, #0
 1213 000e 04DB     		blt	.L114
 1214              		.loc 1 699 0 is_stmt 0 discriminator 1
 1215 0010 7B68     		ldr	r3, [r7, #4]
 1216 0012 1F2B     		cmp	r3, #31
 1217 0014 01DC     		bgt	.L114
 1218              		.loc 1 699 0 discriminator 3
 1219 0016 0123     		mov	r3, #1
 1220 0018 00E0     		b	.L115
 1221              	.L114:
 1222              		.loc 1 699 0 discriminator 4
 1223 001a 0023     		mov	r3, #0
 1224              	.L115:
 1225              		.loc 1 699 0 discriminator 6
 1226 001c 002B     		cmp	r3, #0
 1227 001e 02D1     		bne	.L116
 1228              		.loc 1 699 0 discriminator 7
 1229 0020 0020     		mov	r0, #0
 1230 0022 FFF7FEFF 		bl	CyHalt
 1231              	.L116:
 700:Generated_Source\PSoC4/CyDMA.c ****     CYASSERT((descriptor >= 0) && (descriptor < CYDMA_DESCR_NR));
 1232              		.loc 1 700 0 is_stmt 1
 1233 0026 3B68     		ldr	r3, [r7]
 1234 0028 002B     		cmp	r3, #0
 1235 002a 04DB     		blt	.L117
 1236              		.loc 1 700 0 is_stmt 0 discriminator 1
ARM GAS  C:\Users\GREG~1.PHI\AppData\Local\Temp\cckB4vVc.s 			page 35


 1237 002c 3B68     		ldr	r3, [r7]
 1238 002e 012B     		cmp	r3, #1
 1239 0030 01DC     		bgt	.L117
 1240              		.loc 1 700 0 discriminator 3
 1241 0032 0123     		mov	r3, #1
 1242 0034 00E0     		b	.L118
 1243              	.L117:
 1244              		.loc 1 700 0 discriminator 4
 1245 0036 0023     		mov	r3, #0
 1246              	.L118:
 1247              		.loc 1 700 0 discriminator 6
 1248 0038 002B     		cmp	r3, #0
 1249 003a 02D1     		bne	.L119
 1250              		.loc 1 700 0 discriminator 7
 1251 003c 0020     		mov	r0, #0
 1252 003e FFF7FEFF 		bl	CyHalt
 1253              	.L119:
 701:Generated_Source\PSoC4/CyDMA.c **** 
 702:Generated_Source\PSoC4/CyDMA.c ****     regValue = CYDMA_CH_CTL_BASE.ctl[channel] & (uint32)~CYDMA_DESCRIPTOR;
 1254              		.loc 1 702 0 is_stmt 1
 1255 0042 094A     		ldr	r2, .L120
 1256 0044 7B68     		ldr	r3, [r7, #4]
 1257 0046 9B00     		lsl	r3, r3, #2
 1258 0048 9B58     		ldr	r3, [r3, r2]
 1259 004a 084A     		ldr	r2, .L120+4
 1260 004c 1340     		and	r3, r2
 1261 004e FB60     		str	r3, [r7, #12]
 703:Generated_Source\PSoC4/CyDMA.c ****     CYDMA_CH_CTL_BASE.ctl[channel] = regValue | (uint32)((uint32)descriptor << CYDMA_DESCRIPTOR_POS
 1262              		.loc 1 703 0
 1263 0050 0549     		ldr	r1, .L120
 1264 0052 3B68     		ldr	r3, [r7]
 1265 0054 9A07     		lsl	r2, r3, #30
 1266 0056 FB68     		ldr	r3, [r7, #12]
 1267 0058 1A43     		orr	r2, r3
 1268 005a 7B68     		ldr	r3, [r7, #4]
 1269 005c 9B00     		lsl	r3, r3, #2
 1270 005e 5A50     		str	r2, [r3, r1]
 704:Generated_Source\PSoC4/CyDMA.c **** }
 1271              		.loc 1 704 0
 1272 0060 BD46     		mov	sp, r7
 1273 0062 04B0     		add	sp, sp, #16
 1274              		@ sp needed
 1275 0064 80BD     		pop	{r7, pc}
 1276              	.L121:
 1277 0066 C046     		.align	2
 1278              	.L120:
 1279 0068 80101040 		.word	1074794624
 1280 006c FFFFFFBF 		.word	-1073741825
 1281              		.cfi_endproc
 1282              	.LFE24:
 1283              		.size	CyDmaSetNextDescriptor, .-CyDmaSetNextDescriptor
 1284              		.section	.text.CyDmaGetNextDescriptor,"ax",%progbits
 1285              		.align	2
 1286              		.global	CyDmaGetNextDescriptor
 1287              		.code	16
 1288              		.thumb_func
 1289              		.type	CyDmaGetNextDescriptor, %function
ARM GAS  C:\Users\GREG~1.PHI\AppData\Local\Temp\cckB4vVc.s 			page 36


 1290              	CyDmaGetNextDescriptor:
 1291              	.LFB25:
 705:Generated_Source\PSoC4/CyDMA.c **** 
 706:Generated_Source\PSoC4/CyDMA.c **** 
 707:Generated_Source\PSoC4/CyDMA.c **** /*******************************************************************************
 708:Generated_Source\PSoC4/CyDMA.c **** * Function Name: CyDmaGetNextDescriptor
 709:Generated_Source\PSoC4/CyDMA.c **** ********************************************************************************
 710:Generated_Source\PSoC4/CyDMA.c **** *
 711:Generated_Source\PSoC4/CyDMA.c **** * Summary:
 712:Generated_Source\PSoC4/CyDMA.c **** *  Returns the next descriptor that should be run, as set by 
 713:Generated_Source\PSoC4/CyDMA.c **** *  CyDmaSetNextDescriptor().
 714:Generated_Source\PSoC4/CyDMA.c **** *
 715:Generated_Source\PSoC4/CyDMA.c **** * Parameters:
 716:Generated_Source\PSoC4/CyDMA.c **** *  channel: channel used by this function.
 717:Generated_Source\PSoC4/CyDMA.c **** *                   
 718:Generated_Source\PSoC4/CyDMA.c **** * Return:
 719:Generated_Source\PSoC4/CyDMA.c **** *  Next Descriptor to run (0 or 1).
 720:Generated_Source\PSoC4/CyDMA.c **** *
 721:Generated_Source\PSoC4/CyDMA.c **** *******************************************************************************/
 722:Generated_Source\PSoC4/CyDMA.c **** int32 CyDmaGetNextDescriptor(int32 channel)
 723:Generated_Source\PSoC4/CyDMA.c **** {
 1292              		.loc 1 723 0
 1293              		.cfi_startproc
 1294 0000 80B5     		push	{r7, lr}
 1295              		.cfi_def_cfa_offset 8
 1296              		.cfi_offset 7, -8
 1297              		.cfi_offset 14, -4
 1298 0002 84B0     		sub	sp, sp, #16
 1299              		.cfi_def_cfa_offset 24
 1300 0004 00AF     		add	r7, sp, #0
 1301              		.cfi_def_cfa_register 7
 1302 0006 7860     		str	r0, [r7, #4]
 724:Generated_Source\PSoC4/CyDMA.c ****     uint32 nextDescriptor;
 725:Generated_Source\PSoC4/CyDMA.c **** 
 726:Generated_Source\PSoC4/CyDMA.c ****     CYASSERT((channel >= 0) && (channel < CYDMA_CH_NR));
 1303              		.loc 1 726 0
 1304 0008 7B68     		ldr	r3, [r7, #4]
 1305 000a 002B     		cmp	r3, #0
 1306 000c 04DB     		blt	.L123
 1307              		.loc 1 726 0 is_stmt 0 discriminator 1
 1308 000e 7B68     		ldr	r3, [r7, #4]
 1309 0010 1F2B     		cmp	r3, #31
 1310 0012 01DC     		bgt	.L123
 1311              		.loc 1 726 0 discriminator 3
 1312 0014 0123     		mov	r3, #1
 1313 0016 00E0     		b	.L124
 1314              	.L123:
 1315              		.loc 1 726 0 discriminator 4
 1316 0018 0023     		mov	r3, #0
 1317              	.L124:
 1318              		.loc 1 726 0 discriminator 6
 1319 001a 002B     		cmp	r3, #0
 1320 001c 02D1     		bne	.L125
 1321              		.loc 1 726 0 discriminator 7
 1322 001e 0020     		mov	r0, #0
 1323 0020 FFF7FEFF 		bl	CyHalt
 1324              	.L125:
ARM GAS  C:\Users\GREG~1.PHI\AppData\Local\Temp\cckB4vVc.s 			page 37


 727:Generated_Source\PSoC4/CyDMA.c **** 
 728:Generated_Source\PSoC4/CyDMA.c ****     nextDescriptor = (CYDMA_CH_CTL_BASE.ctl[channel] & CYDMA_DESCRIPTOR) >> CYDMA_DESCRIPTOR_POS;
 1325              		.loc 1 728 0 is_stmt 1
 1326 0024 064A     		ldr	r2, .L127
 1327 0026 7B68     		ldr	r3, [r7, #4]
 1328 0028 9B00     		lsl	r3, r3, #2
 1329 002a 9A58     		ldr	r2, [r3, r2]
 1330 002c 8023     		mov	r3, #128
 1331 002e DB05     		lsl	r3, r3, #23
 1332 0030 1340     		and	r3, r2
 1333 0032 9B0F     		lsr	r3, r3, #30
 1334 0034 FB60     		str	r3, [r7, #12]
 729:Generated_Source\PSoC4/CyDMA.c ****     return ((int32)nextDescriptor);
 1335              		.loc 1 729 0
 1336 0036 FB68     		ldr	r3, [r7, #12]
 730:Generated_Source\PSoC4/CyDMA.c **** }
 1337              		.loc 1 730 0
 1338 0038 181C     		mov	r0, r3
 1339 003a BD46     		mov	sp, r7
 1340 003c 04B0     		add	sp, sp, #16
 1341              		@ sp needed
 1342 003e 80BD     		pop	{r7, pc}
 1343              	.L128:
 1344              		.align	2
 1345              	.L127:
 1346 0040 80101040 		.word	1074794624
 1347              		.cfi_endproc
 1348              	.LFE25:
 1349              		.size	CyDmaGetNextDescriptor, .-CyDmaGetNextDescriptor
 1350              		.section	.text.CyDmaSetConfiguration,"ax",%progbits
 1351              		.align	2
 1352              		.global	CyDmaSetConfiguration
 1353              		.code	16
 1354              		.thumb_func
 1355              		.type	CyDmaSetConfiguration, %function
 1356              	CyDmaSetConfiguration:
 1357              	.LFB26:
 731:Generated_Source\PSoC4/CyDMA.c **** 
 732:Generated_Source\PSoC4/CyDMA.c **** 
 733:Generated_Source\PSoC4/CyDMA.c **** /*******************************************************************************
 734:Generated_Source\PSoC4/CyDMA.c **** * Function Name: CyDmaSetConfiguration
 735:Generated_Source\PSoC4/CyDMA.c **** ********************************************************************************
 736:Generated_Source\PSoC4/CyDMA.c **** *
 737:Generated_Source\PSoC4/CyDMA.c **** * Summary:
 738:Generated_Source\PSoC4/CyDMA.c **** *  Sets configuration information for the specified descriptor.
 739:Generated_Source\PSoC4/CyDMA.c **** *
 740:Generated_Source\PSoC4/CyDMA.c **** * Parameters:
 741:Generated_Source\PSoC4/CyDMA.c **** *  channel:    DMA channel modified by this function.
 742:Generated_Source\PSoC4/CyDMA.c **** *  descriptor: Descriptor (0 or 1) modified by this function.
 743:Generated_Source\PSoC4/CyDMA.c **** *  config:     Pointer to a configuration structure. Refer to cydma_init_struct
 744:Generated_Source\PSoC4/CyDMA.c **** *              structure definition in CyDMA_P4.h and/or DMA channel datasheet
 745:Generated_Source\PSoC4/CyDMA.c **** *              for more information.
 746:Generated_Source\PSoC4/CyDMA.c **** *                   
 747:Generated_Source\PSoC4/CyDMA.c **** * Return:
 748:Generated_Source\PSoC4/CyDMA.c **** *  None.
 749:Generated_Source\PSoC4/CyDMA.c **** *
 750:Generated_Source\PSoC4/CyDMA.c **** * Side effect:
ARM GAS  C:\Users\GREG~1.PHI\AppData\Local\Temp\cckB4vVc.s 			page 38


 751:Generated_Source\PSoC4/CyDMA.c **** *  The status register associated with the specified descriptor is reset to
 752:Generated_Source\PSoC4/CyDMA.c **** *  zero after this function call. This function also validates the descriptor.
 753:Generated_Source\PSoC4/CyDMA.c **** *  This function should not be called while the descriptor is active.
 754:Generated_Source\PSoC4/CyDMA.c **** *  This can be checked by calling CyDmaGetStatus().
 755:Generated_Source\PSoC4/CyDMA.c **** *
 756:Generated_Source\PSoC4/CyDMA.c **** *******************************************************************************/
 757:Generated_Source\PSoC4/CyDMA.c **** void CyDmaSetConfiguration(int32 channel, int32 descriptor, const cydma_init_struct * config)
 758:Generated_Source\PSoC4/CyDMA.c **** {  
 1358              		.loc 1 758 0
 1359              		.cfi_startproc
 1360 0000 80B5     		push	{r7, lr}
 1361              		.cfi_def_cfa_offset 8
 1362              		.cfi_offset 7, -8
 1363              		.cfi_offset 14, -4
 1364 0002 84B0     		sub	sp, sp, #16
 1365              		.cfi_def_cfa_offset 24
 1366 0004 00AF     		add	r7, sp, #0
 1367              		.cfi_def_cfa_register 7
 1368 0006 F860     		str	r0, [r7, #12]
 1369 0008 B960     		str	r1, [r7, #8]
 1370 000a 7A60     		str	r2, [r7, #4]
 759:Generated_Source\PSoC4/CyDMA.c ****     CYASSERT((channel        >= 0) && (channel         < CYDMA_CH_NR));
 1371              		.loc 1 759 0
 1372 000c FB68     		ldr	r3, [r7, #12]
 1373 000e 002B     		cmp	r3, #0
 1374 0010 04DB     		blt	.L130
 1375              		.loc 1 759 0 is_stmt 0 discriminator 1
 1376 0012 FB68     		ldr	r3, [r7, #12]
 1377 0014 1F2B     		cmp	r3, #31
 1378 0016 01DC     		bgt	.L130
 1379              		.loc 1 759 0 discriminator 3
 1380 0018 0123     		mov	r3, #1
 1381 001a 00E0     		b	.L131
 1382              	.L130:
 1383              		.loc 1 759 0 discriminator 4
 1384 001c 0023     		mov	r3, #0
 1385              	.L131:
 1386              		.loc 1 759 0 discriminator 6
 1387 001e 002B     		cmp	r3, #0
 1388 0020 02D1     		bne	.L132
 1389              		.loc 1 759 0 discriminator 7
 1390 0022 0020     		mov	r0, #0
 1391 0024 FFF7FEFF 		bl	CyHalt
 1392              	.L132:
 760:Generated_Source\PSoC4/CyDMA.c ****     CYASSERT((descriptor     >= 0) && (descriptor      < CYDMA_DESCR_NR));
 1393              		.loc 1 760 0 is_stmt 1
 1394 0028 BB68     		ldr	r3, [r7, #8]
 1395 002a 002B     		cmp	r3, #0
 1396 002c 04DB     		blt	.L133
 1397              		.loc 1 760 0 is_stmt 0 discriminator 1
 1398 002e BB68     		ldr	r3, [r7, #8]
 1399 0030 012B     		cmp	r3, #1
 1400 0032 01DC     		bgt	.L133
 1401              		.loc 1 760 0 discriminator 3
 1402 0034 0123     		mov	r3, #1
 1403 0036 00E0     		b	.L134
 1404              	.L133:
ARM GAS  C:\Users\GREG~1.PHI\AppData\Local\Temp\cckB4vVc.s 			page 39


 1405              		.loc 1 760 0 discriminator 4
 1406 0038 0023     		mov	r3, #0
 1407              	.L134:
 1408              		.loc 1 760 0 discriminator 6
 1409 003a 002B     		cmp	r3, #0
 1410 003c 02D1     		bne	.L135
 1411              		.loc 1 760 0 discriminator 7
 1412 003e 0020     		mov	r0, #0
 1413 0040 FFF7FEFF 		bl	CyHalt
 1414              	.L135:
 761:Generated_Source\PSoC4/CyDMA.c **** 
 762:Generated_Source\PSoC4/CyDMA.c ****     CYASSERT(0u == (config->dataElementSize     & (uint32)~CYDMA_DATA_SIZE));   
 1415              		.loc 1 762 0 is_stmt 1
 1416 0044 7B68     		ldr	r3, [r7, #4]
 1417 0046 1B68     		ldr	r3, [r3]
 1418 0048 3B4A     		ldr	r2, .L146
 1419 004a 1340     		and	r3, r2
 1420 004c 02D0     		beq	.L136
 1421              		.loc 1 762 0 is_stmt 0 discriminator 1
 1422 004e 0020     		mov	r0, #0
 1423 0050 FFF7FEFF 		bl	CyHalt
 1424              	.L136:
 763:Generated_Source\PSoC4/CyDMA.c ****     CYASSERT((config->numDataElements > 0)     && (config->numDataElements <= CYDMA_MAX_DATA_NR));
 1425              		.loc 1 763 0 is_stmt 1
 1426 0054 7B68     		ldr	r3, [r7, #4]
 1427 0056 5B68     		ldr	r3, [r3, #4]
 1428 0058 002B     		cmp	r3, #0
 1429 005a 07DD     		ble	.L137
 1430              		.loc 1 763 0 is_stmt 0 discriminator 1
 1431 005c 7B68     		ldr	r3, [r7, #4]
 1432 005e 5A68     		ldr	r2, [r3, #4]
 1433 0060 8023     		mov	r3, #128
 1434 0062 5B02     		lsl	r3, r3, #9
 1435 0064 9A42     		cmp	r2, r3
 1436 0066 01DC     		bgt	.L137
 1437              		.loc 1 763 0 discriminator 3
 1438 0068 0123     		mov	r3, #1
 1439 006a 00E0     		b	.L138
 1440              	.L137:
 1441              		.loc 1 763 0 discriminator 4
 1442 006c 0023     		mov	r3, #0
 1443              	.L138:
 1444              		.loc 1 763 0 discriminator 6
 1445 006e 002B     		cmp	r3, #0
 1446 0070 02D1     		bne	.L139
 1447              		.loc 1 763 0 discriminator 7
 1448 0072 0020     		mov	r0, #0
 1449 0074 FFF7FEFF 		bl	CyHalt
 1450              	.L139:
 764:Generated_Source\PSoC4/CyDMA.c ****     CYASSERT(0u == (config->srcDstTransferWidth & (uint32)~CYDMA_TRANSFER_WIDTH));
 1451              		.loc 1 764 0 is_stmt 1
 1452 0078 7B68     		ldr	r3, [r7, #4]
 1453 007a 9B68     		ldr	r3, [r3, #8]
 1454 007c 2F4A     		ldr	r2, .L146+4
 1455 007e 1340     		and	r3, r2
 1456 0080 02D0     		beq	.L140
 1457              		.loc 1 764 0 is_stmt 0 discriminator 1
ARM GAS  C:\Users\GREG~1.PHI\AppData\Local\Temp\cckB4vVc.s 			page 40


 1458 0082 0020     		mov	r0, #0
 1459 0084 FFF7FEFF 		bl	CyHalt
 1460              	.L140:
 765:Generated_Source\PSoC4/CyDMA.c ****     CYASSERT(0u == (config->addressIncrement    & (uint32)~CYDMA_ADDR_INCR));
 1461              		.loc 1 765 0 is_stmt 1
 1462 0088 7B68     		ldr	r3, [r7, #4]
 1463 008a DB68     		ldr	r3, [r3, #12]
 1464 008c 2C4A     		ldr	r2, .L146+8
 1465 008e 1340     		and	r3, r2
 1466 0090 02D0     		beq	.L141
 1467              		.loc 1 765 0 is_stmt 0 discriminator 1
 1468 0092 0020     		mov	r0, #0
 1469 0094 FFF7FEFF 		bl	CyHalt
 1470              	.L141:
 766:Generated_Source\PSoC4/CyDMA.c ****     CYASSERT(0u == (config->triggerType         & (uint32)~CYDMA_TRIGGER_TYPE));
 1471              		.loc 1 766 0 is_stmt 1
 1472 0098 7B68     		ldr	r3, [r7, #4]
 1473 009a 1B69     		ldr	r3, [r3, #16]
 1474 009c 294A     		ldr	r2, .L146+12
 1475 009e 1340     		and	r3, r2
 1476 00a0 02D0     		beq	.L142
 1477              		.loc 1 766 0 is_stmt 0 discriminator 1
 1478 00a2 0020     		mov	r0, #0
 1479 00a4 FFF7FEFF 		bl	CyHalt
 1480              	.L142:
 767:Generated_Source\PSoC4/CyDMA.c ****     CYASSERT(0u == (config->transferMode        & (uint32)~CYDMA_TRANSFER_MODE));
 1481              		.loc 1 767 0 is_stmt 1
 1482 00a8 7B68     		ldr	r3, [r7, #4]
 1483 00aa 5B69     		ldr	r3, [r3, #20]
 1484 00ac 9B00     		lsl	r3, r3, #2
 1485 00ae 9B08     		lsr	r3, r3, #2
 1486 00b0 02D0     		beq	.L143
 1487              		.loc 1 767 0 is_stmt 0 discriminator 1
 1488 00b2 0020     		mov	r0, #0
 1489 00b4 FFF7FEFF 		bl	CyHalt
 1490              	.L143:
 768:Generated_Source\PSoC4/CyDMA.c ****     CYASSERT(0u == (config->preemptable         & (uint32)~CYDMA_PREEMPTABLE));
 1491              		.loc 1 768 0 is_stmt 1
 1492 00b8 7B68     		ldr	r3, [r7, #4]
 1493 00ba 9B69     		ldr	r3, [r3, #24]
 1494 00bc 224A     		ldr	r2, .L146+16
 1495 00be 1340     		and	r3, r2
 1496 00c0 02D0     		beq	.L144
 1497              		.loc 1 768 0 is_stmt 0 discriminator 1
 1498 00c2 0020     		mov	r0, #0
 1499 00c4 FFF7FEFF 		bl	CyHalt
 1500              	.L144:
 769:Generated_Source\PSoC4/CyDMA.c ****     CYASSERT(0u == (config->actions             & (uint32)~CYDMA_POST_COMPLETE_ACTIONS));
 1501              		.loc 1 769 0 is_stmt 1
 1502 00c8 7B68     		ldr	r3, [r7, #4]
 1503 00ca DB69     		ldr	r3, [r3, #28]
 1504 00cc 1F4A     		ldr	r2, .L146+20
 1505 00ce 1340     		and	r3, r2
 1506 00d0 02D0     		beq	.L145
 1507              		.loc 1 769 0 is_stmt 0 discriminator 1
 1508 00d2 0020     		mov	r0, #0
 1509 00d4 FFF7FEFF 		bl	CyHalt
ARM GAS  C:\Users\GREG~1.PHI\AppData\Local\Temp\cckB4vVc.s 			page 41


 1510              	.L145:
 770:Generated_Source\PSoC4/CyDMA.c ****     
 771:Generated_Source\PSoC4/CyDMA.c ****     CYDMA_DESCR_BASE.descriptor[channel][descriptor].ctl = config->dataElementSize     |
 1511              		.loc 1 771 0 is_stmt 1
 1512 00d8 1D48     		ldr	r0, .L146+24
 1513 00da 7B68     		ldr	r3, [r7, #4]
 1514 00dc 1A68     		ldr	r2, [r3]
 772:Generated_Source\PSoC4/CyDMA.c ****                                                   ((uint32)config->numDataElements-1u) |
 1515              		.loc 1 772 0
 1516 00de 7B68     		ldr	r3, [r7, #4]
 1517 00e0 5B68     		ldr	r3, [r3, #4]
 1518 00e2 013B     		sub	r3, r3, #1
 771:Generated_Source\PSoC4/CyDMA.c ****                                                   ((uint32)config->numDataElements-1u) |
 1519              		.loc 1 771 0
 1520 00e4 1A43     		orr	r2, r3
 773:Generated_Source\PSoC4/CyDMA.c ****                                                            config->srcDstTransferWidth |
 1521              		.loc 1 773 0
 1522 00e6 7B68     		ldr	r3, [r7, #4]
 1523 00e8 9B68     		ldr	r3, [r3, #8]
 772:Generated_Source\PSoC4/CyDMA.c ****                                                   ((uint32)config->numDataElements-1u) |
 1524              		.loc 1 772 0
 1525 00ea 1A43     		orr	r2, r3
 774:Generated_Source\PSoC4/CyDMA.c ****                                                            config->addressIncrement    |
 1526              		.loc 1 774 0
 1527 00ec 7B68     		ldr	r3, [r7, #4]
 1528 00ee DB68     		ldr	r3, [r3, #12]
 773:Generated_Source\PSoC4/CyDMA.c ****                                                            config->srcDstTransferWidth |
 1529              		.loc 1 773 0
 1530 00f0 1A43     		orr	r2, r3
 775:Generated_Source\PSoC4/CyDMA.c ****                                                            config->triggerType         |
 1531              		.loc 1 775 0
 1532 00f2 7B68     		ldr	r3, [r7, #4]
 1533 00f4 1B69     		ldr	r3, [r3, #16]
 774:Generated_Source\PSoC4/CyDMA.c ****                                                            config->addressIncrement    |
 1534              		.loc 1 774 0
 1535 00f6 1A43     		orr	r2, r3
 776:Generated_Source\PSoC4/CyDMA.c ****                                                            config->transferMode        |
 1536              		.loc 1 776 0
 1537 00f8 7B68     		ldr	r3, [r7, #4]
 1538 00fa 5B69     		ldr	r3, [r3, #20]
 775:Generated_Source\PSoC4/CyDMA.c ****                                                            config->triggerType         |
 1539              		.loc 1 775 0
 1540 00fc 1A43     		orr	r2, r3
 777:Generated_Source\PSoC4/CyDMA.c ****                                                            config->preemptable         |
 1541              		.loc 1 777 0
 1542 00fe 7B68     		ldr	r3, [r7, #4]
 1543 0100 9B69     		ldr	r3, [r3, #24]
 776:Generated_Source\PSoC4/CyDMA.c ****                                                            config->transferMode        |
 1544              		.loc 1 776 0
 1545 0102 1A43     		orr	r2, r3
 778:Generated_Source\PSoC4/CyDMA.c ****                                                            config->actions;
 1546              		.loc 1 778 0
 1547 0104 7B68     		ldr	r3, [r7, #4]
 1548 0106 DB69     		ldr	r3, [r3, #28]
 777:Generated_Source\PSoC4/CyDMA.c ****                                                            config->preemptable         |
 1549              		.loc 1 777 0
 1550 0108 1A43     		orr	r2, r3
ARM GAS  C:\Users\GREG~1.PHI\AppData\Local\Temp\cckB4vVc.s 			page 42


 771:Generated_Source\PSoC4/CyDMA.c ****                                                   ((uint32)config->numDataElements-1u) |
 1551              		.loc 1 771 0
 1552 010a FB68     		ldr	r3, [r7, #12]
 1553 010c 5900     		lsl	r1, r3, #1
 1554 010e BB68     		ldr	r3, [r7, #8]
 1555 0110 CB18     		add	r3, r1, r3
 1556 0112 1B01     		lsl	r3, r3, #4
 1557 0114 C318     		add	r3, r0, r3
 1558 0116 0833     		add	r3, r3, #8
 1559 0118 1A60     		str	r2, [r3]
 779:Generated_Source\PSoC4/CyDMA.c **** 
 780:Generated_Source\PSoC4/CyDMA.c ****     CYDMA_DESCR_BASE.descriptor[channel][descriptor].status = CYDMA_VALID;
 1560              		.loc 1 780 0
 1561 011a 0D49     		ldr	r1, .L146+24
 1562 011c FB68     		ldr	r3, [r7, #12]
 1563 011e 5A00     		lsl	r2, r3, #1
 1564 0120 BB68     		ldr	r3, [r7, #8]
 1565 0122 D318     		add	r3, r2, r3
 1566 0124 1B01     		lsl	r3, r3, #4
 1567 0126 CB18     		add	r3, r1, r3
 1568 0128 0833     		add	r3, r3, #8
 1569 012a 8022     		mov	r2, #128
 1570 012c 1206     		lsl	r2, r2, #24
 1571 012e 5A60     		str	r2, [r3, #4]
 781:Generated_Source\PSoC4/CyDMA.c **** }
 1572              		.loc 1 781 0
 1573 0130 BD46     		mov	sp, r7
 1574 0132 04B0     		add	sp, sp, #16
 1575              		@ sp needed
 1576 0134 80BD     		pop	{r7, pc}
 1577              	.L147:
 1578 0136 C046     		.align	2
 1579              	.L146:
 1580 0138 FFFFFCFF 		.word	-196609
 1581 013c FFFFAFFF 		.word	-5242881
 1582 0140 FFFF5FFF 		.word	-10485761
 1583 0144 FFFFFFFC 		.word	-50331649
 1584 0148 FFFFFFEF 		.word	-268435457
 1585 014c FFFFFFD3 		.word	-738197505
 1586 0150 00181040 		.word	1074796544
 1587              		.cfi_endproc
 1588              	.LFE26:
 1589              		.size	CyDmaSetConfiguration, .-CyDmaSetConfiguration
 1590              		.section	.text.CyDmaValidateDescriptor,"ax",%progbits
 1591              		.align	2
 1592              		.global	CyDmaValidateDescriptor
 1593              		.code	16
 1594              		.thumb_func
 1595              		.type	CyDmaValidateDescriptor, %function
 1596              	CyDmaValidateDescriptor:
 1597              	.LFB27:
 782:Generated_Source\PSoC4/CyDMA.c **** 
 783:Generated_Source\PSoC4/CyDMA.c **** 
 784:Generated_Source\PSoC4/CyDMA.c **** /*******************************************************************************
 785:Generated_Source\PSoC4/CyDMA.c **** * Function Name: CyDmaValidateDescriptor
 786:Generated_Source\PSoC4/CyDMA.c **** ********************************************************************************
 787:Generated_Source\PSoC4/CyDMA.c **** *
ARM GAS  C:\Users\GREG~1.PHI\AppData\Local\Temp\cckB4vVc.s 			page 43


 788:Generated_Source\PSoC4/CyDMA.c **** * Summary:
 789:Generated_Source\PSoC4/CyDMA.c **** *  Validates the specified descriptor after it has been invalidated.
 790:Generated_Source\PSoC4/CyDMA.c **** *
 791:Generated_Source\PSoC4/CyDMA.c **** * Parameters:
 792:Generated_Source\PSoC4/CyDMA.c **** *  channel:    Channel used by this function.
 793:Generated_Source\PSoC4/CyDMA.c **** *  descriptor: Descriptor (0 or 1) modified by this function.
 794:Generated_Source\PSoC4/CyDMA.c **** *                   
 795:Generated_Source\PSoC4/CyDMA.c **** * Return:
 796:Generated_Source\PSoC4/CyDMA.c **** *  None. 
 797:Generated_Source\PSoC4/CyDMA.c **** *
 798:Generated_Source\PSoC4/CyDMA.c **** * Side effect:
 799:Generated_Source\PSoC4/CyDMA.c **** *  The status register associated with the specified descriptor is reset to
 800:Generated_Source\PSoC4/CyDMA.c **** *  zero after this function call.
 801:Generated_Source\PSoC4/CyDMA.c **** *  This function should not be called when the specified descriptor is active
 802:Generated_Source\PSoC4/CyDMA.c **** *  in the DMA transfer engine. This can be checked by calling CyDmaGetStatus().
 803:Generated_Source\PSoC4/CyDMA.c **** *
 804:Generated_Source\PSoC4/CyDMA.c **** *******************************************************************************/
 805:Generated_Source\PSoC4/CyDMA.c **** void CyDmaValidateDescriptor(int32 channel, int32 descriptor)
 806:Generated_Source\PSoC4/CyDMA.c **** {
 1598              		.loc 1 806 0
 1599              		.cfi_startproc
 1600 0000 80B5     		push	{r7, lr}
 1601              		.cfi_def_cfa_offset 8
 1602              		.cfi_offset 7, -8
 1603              		.cfi_offset 14, -4
 1604 0002 82B0     		sub	sp, sp, #8
 1605              		.cfi_def_cfa_offset 16
 1606 0004 00AF     		add	r7, sp, #0
 1607              		.cfi_def_cfa_register 7
 1608 0006 7860     		str	r0, [r7, #4]
 1609 0008 3960     		str	r1, [r7]
 807:Generated_Source\PSoC4/CyDMA.c ****     CYASSERT((channel    >= 0) && (channel    < CYDMA_CH_NR));
 1610              		.loc 1 807 0
 1611 000a 7B68     		ldr	r3, [r7, #4]
 1612 000c 002B     		cmp	r3, #0
 1613 000e 04DB     		blt	.L149
 1614              		.loc 1 807 0 is_stmt 0 discriminator 1
 1615 0010 7B68     		ldr	r3, [r7, #4]
 1616 0012 1F2B     		cmp	r3, #31
 1617 0014 01DC     		bgt	.L149
 1618              		.loc 1 807 0 discriminator 3
 1619 0016 0123     		mov	r3, #1
 1620 0018 00E0     		b	.L150
 1621              	.L149:
 1622              		.loc 1 807 0 discriminator 4
 1623 001a 0023     		mov	r3, #0
 1624              	.L150:
 1625              		.loc 1 807 0 discriminator 6
 1626 001c 002B     		cmp	r3, #0
 1627 001e 02D1     		bne	.L151
 1628              		.loc 1 807 0 discriminator 7
 1629 0020 0020     		mov	r0, #0
 1630 0022 FFF7FEFF 		bl	CyHalt
 1631              	.L151:
 808:Generated_Source\PSoC4/CyDMA.c ****     CYASSERT((descriptor >= 0) && (descriptor < CYDMA_DESCR_NR));
 1632              		.loc 1 808 0 is_stmt 1
 1633 0026 3B68     		ldr	r3, [r7]
ARM GAS  C:\Users\GREG~1.PHI\AppData\Local\Temp\cckB4vVc.s 			page 44


 1634 0028 002B     		cmp	r3, #0
 1635 002a 04DB     		blt	.L152
 1636              		.loc 1 808 0 is_stmt 0 discriminator 1
 1637 002c 3B68     		ldr	r3, [r7]
 1638 002e 012B     		cmp	r3, #1
 1639 0030 01DC     		bgt	.L152
 1640              		.loc 1 808 0 discriminator 3
 1641 0032 0123     		mov	r3, #1
 1642 0034 00E0     		b	.L153
 1643              	.L152:
 1644              		.loc 1 808 0 discriminator 4
 1645 0036 0023     		mov	r3, #0
 1646              	.L153:
 1647              		.loc 1 808 0 discriminator 6
 1648 0038 002B     		cmp	r3, #0
 1649 003a 02D1     		bne	.L154
 1650              		.loc 1 808 0 discriminator 7
 1651 003c 0020     		mov	r0, #0
 1652 003e FFF7FEFF 		bl	CyHalt
 1653              	.L154:
 809:Generated_Source\PSoC4/CyDMA.c **** 
 810:Generated_Source\PSoC4/CyDMA.c ****     CYDMA_DESCR_BASE.descriptor[channel][descriptor].status = CYDMA_VALID;
 1654              		.loc 1 810 0 is_stmt 1
 1655 0042 0749     		ldr	r1, .L155
 1656 0044 7B68     		ldr	r3, [r7, #4]
 1657 0046 5A00     		lsl	r2, r3, #1
 1658 0048 3B68     		ldr	r3, [r7]
 1659 004a D318     		add	r3, r2, r3
 1660 004c 1B01     		lsl	r3, r3, #4
 1661 004e CB18     		add	r3, r1, r3
 1662 0050 0833     		add	r3, r3, #8
 1663 0052 8022     		mov	r2, #128
 1664 0054 1206     		lsl	r2, r2, #24
 1665 0056 5A60     		str	r2, [r3, #4]
 811:Generated_Source\PSoC4/CyDMA.c **** }
 1666              		.loc 1 811 0
 1667 0058 BD46     		mov	sp, r7
 1668 005a 02B0     		add	sp, sp, #8
 1669              		@ sp needed
 1670 005c 80BD     		pop	{r7, pc}
 1671              	.L156:
 1672 005e C046     		.align	2
 1673              	.L155:
 1674 0060 00181040 		.word	1074796544
 1675              		.cfi_endproc
 1676              	.LFE27:
 1677              		.size	CyDmaValidateDescriptor, .-CyDmaValidateDescriptor
 1678              		.section	.text.CyDmaGetDescriptorStatus,"ax",%progbits
 1679              		.align	2
 1680              		.global	CyDmaGetDescriptorStatus
 1681              		.code	16
 1682              		.thumb_func
 1683              		.type	CyDmaGetDescriptorStatus, %function
 1684              	CyDmaGetDescriptorStatus:
 1685              	.LFB28:
 812:Generated_Source\PSoC4/CyDMA.c **** 
 813:Generated_Source\PSoC4/CyDMA.c **** 
ARM GAS  C:\Users\GREG~1.PHI\AppData\Local\Temp\cckB4vVc.s 			page 45


 814:Generated_Source\PSoC4/CyDMA.c **** /*******************************************************************************
 815:Generated_Source\PSoC4/CyDMA.c **** * Function Name: CyDmaGetDescriptorStatus
 816:Generated_Source\PSoC4/CyDMA.c **** ********************************************************************************
 817:Generated_Source\PSoC4/CyDMA.c **** *
 818:Generated_Source\PSoC4/CyDMA.c **** * Summary:
 819:Generated_Source\PSoC4/CyDMA.c **** *  Returns the status of the specified descriptor.
 820:Generated_Source\PSoC4/CyDMA.c **** *
 821:Generated_Source\PSoC4/CyDMA.c **** * Parameters:
 822:Generated_Source\PSoC4/CyDMA.c **** *  channel:    Channel used by this function.
 823:Generated_Source\PSoC4/CyDMA.c **** *  descriptor: Descriptor (0 or 1) modified by this function.
 824:Generated_Source\PSoC4/CyDMA.c **** *                   
 825:Generated_Source\PSoC4/CyDMA.c **** * Return:
 826:Generated_Source\PSoC4/CyDMA.c **** *  Returns the contents of the specified descriptors status register. Refer to 
 827:Generated_Source\PSoC4/CyDMA.c **** *  descriptor status register bit definitions in CyDMA_P4.h or the API
 828:Generated_Source\PSoC4/CyDMA.c **** *  description in the DMA channel datasheet for more information.
 829:Generated_Source\PSoC4/CyDMA.c **** *
 830:Generated_Source\PSoC4/CyDMA.c **** *******************************************************************************/
 831:Generated_Source\PSoC4/CyDMA.c **** uint32 CyDmaGetDescriptorStatus(int32 channel, int32 descriptor)
 832:Generated_Source\PSoC4/CyDMA.c **** {
 1686              		.loc 1 832 0
 1687              		.cfi_startproc
 1688 0000 80B5     		push	{r7, lr}
 1689              		.cfi_def_cfa_offset 8
 1690              		.cfi_offset 7, -8
 1691              		.cfi_offset 14, -4
 1692 0002 82B0     		sub	sp, sp, #8
 1693              		.cfi_def_cfa_offset 16
 1694 0004 00AF     		add	r7, sp, #0
 1695              		.cfi_def_cfa_register 7
 1696 0006 7860     		str	r0, [r7, #4]
 1697 0008 3960     		str	r1, [r7]
 833:Generated_Source\PSoC4/CyDMA.c ****     CYASSERT((channel    >= 0) && (channel    < CYDMA_CH_NR));
 1698              		.loc 1 833 0
 1699 000a 7B68     		ldr	r3, [r7, #4]
 1700 000c 002B     		cmp	r3, #0
 1701 000e 04DB     		blt	.L158
 1702              		.loc 1 833 0 is_stmt 0 discriminator 1
 1703 0010 7B68     		ldr	r3, [r7, #4]
 1704 0012 1F2B     		cmp	r3, #31
 1705 0014 01DC     		bgt	.L158
 1706              		.loc 1 833 0 discriminator 3
 1707 0016 0123     		mov	r3, #1
 1708 0018 00E0     		b	.L159
 1709              	.L158:
 1710              		.loc 1 833 0 discriminator 4
 1711 001a 0023     		mov	r3, #0
 1712              	.L159:
 1713              		.loc 1 833 0 discriminator 6
 1714 001c 002B     		cmp	r3, #0
 1715 001e 02D1     		bne	.L160
 1716              		.loc 1 833 0 discriminator 7
 1717 0020 0020     		mov	r0, #0
 1718 0022 FFF7FEFF 		bl	CyHalt
 1719              	.L160:
 834:Generated_Source\PSoC4/CyDMA.c ****     CYASSERT((descriptor >= 0) && (descriptor < CYDMA_DESCR_NR));
 1720              		.loc 1 834 0 is_stmt 1
 1721 0026 3B68     		ldr	r3, [r7]
ARM GAS  C:\Users\GREG~1.PHI\AppData\Local\Temp\cckB4vVc.s 			page 46


 1722 0028 002B     		cmp	r3, #0
 1723 002a 04DB     		blt	.L161
 1724              		.loc 1 834 0 is_stmt 0 discriminator 1
 1725 002c 3B68     		ldr	r3, [r7]
 1726 002e 012B     		cmp	r3, #1
 1727 0030 01DC     		bgt	.L161
 1728              		.loc 1 834 0 discriminator 3
 1729 0032 0123     		mov	r3, #1
 1730 0034 00E0     		b	.L162
 1731              	.L161:
 1732              		.loc 1 834 0 discriminator 4
 1733 0036 0023     		mov	r3, #0
 1734              	.L162:
 1735              		.loc 1 834 0 discriminator 6
 1736 0038 002B     		cmp	r3, #0
 1737 003a 02D1     		bne	.L163
 1738              		.loc 1 834 0 discriminator 7
 1739 003c 0020     		mov	r0, #0
 1740 003e FFF7FEFF 		bl	CyHalt
 1741              	.L163:
 835:Generated_Source\PSoC4/CyDMA.c **** 
 836:Generated_Source\PSoC4/CyDMA.c ****     return (CYDMA_DESCR_BASE.descriptor[channel][descriptor].status);
 1742              		.loc 1 836 0 is_stmt 1
 1743 0042 0649     		ldr	r1, .L165
 1744 0044 7B68     		ldr	r3, [r7, #4]
 1745 0046 5A00     		lsl	r2, r3, #1
 1746 0048 3B68     		ldr	r3, [r7]
 1747 004a D318     		add	r3, r2, r3
 1748 004c 1B01     		lsl	r3, r3, #4
 1749 004e CB18     		add	r3, r1, r3
 1750 0050 0833     		add	r3, r3, #8
 1751 0052 5B68     		ldr	r3, [r3, #4]
 837:Generated_Source\PSoC4/CyDMA.c **** }
 1752              		.loc 1 837 0
 1753 0054 181C     		mov	r0, r3
 1754 0056 BD46     		mov	sp, r7
 1755 0058 02B0     		add	sp, sp, #8
 1756              		@ sp needed
 1757 005a 80BD     		pop	{r7, pc}
 1758              	.L166:
 1759              		.align	2
 1760              	.L165:
 1761 005c 00181040 		.word	1074796544
 1762              		.cfi_endproc
 1763              	.LFE28:
 1764              		.size	CyDmaGetDescriptorStatus, .-CyDmaGetDescriptorStatus
 1765              		.section	.text.CyDmaSetSrcAddress,"ax",%progbits
 1766              		.align	2
 1767              		.global	CyDmaSetSrcAddress
 1768              		.code	16
 1769              		.thumb_func
 1770              		.type	CyDmaSetSrcAddress, %function
 1771              	CyDmaSetSrcAddress:
 1772              	.LFB29:
 838:Generated_Source\PSoC4/CyDMA.c **** 
 839:Generated_Source\PSoC4/CyDMA.c **** 
 840:Generated_Source\PSoC4/CyDMA.c **** /*******************************************************************************
ARM GAS  C:\Users\GREG~1.PHI\AppData\Local\Temp\cckB4vVc.s 			page 47


 841:Generated_Source\PSoC4/CyDMA.c **** * Function Name: CyDmaSetSrcAddress
 842:Generated_Source\PSoC4/CyDMA.c **** ********************************************************************************
 843:Generated_Source\PSoC4/CyDMA.c **** *
 844:Generated_Source\PSoC4/CyDMA.c **** * Summary:
 845:Generated_Source\PSoC4/CyDMA.c **** *  Configures the source address for the specified descriptor.
 846:Generated_Source\PSoC4/CyDMA.c **** *
 847:Generated_Source\PSoC4/CyDMA.c **** * Parameters:
 848:Generated_Source\PSoC4/CyDMA.c **** *  channel:    Channel used by this function.
 849:Generated_Source\PSoC4/CyDMA.c **** *  descriptor: Descriptor (0 or 1) modified by this function.
 850:Generated_Source\PSoC4/CyDMA.c **** *  srcAddress: Address of DMA transfer source.
 851:Generated_Source\PSoC4/CyDMA.c **** *                   
 852:Generated_Source\PSoC4/CyDMA.c **** * Return:
 853:Generated_Source\PSoC4/CyDMA.c **** *  None.
 854:Generated_Source\PSoC4/CyDMA.c **** *
 855:Generated_Source\PSoC4/CyDMA.c **** * Side effect:
 856:Generated_Source\PSoC4/CyDMA.c **** *  This function should not be called when the specified descriptor is active
 857:Generated_Source\PSoC4/CyDMA.c **** *  in the DMA transfer engine. This can be checked by calling CyDmaGetStatus(). 
 858:Generated_Source\PSoC4/CyDMA.c **** *
 859:Generated_Source\PSoC4/CyDMA.c **** *******************************************************************************/
 860:Generated_Source\PSoC4/CyDMA.c **** void CyDmaSetSrcAddress(int32 channel, int32 descriptor, void * srcAddress)
 861:Generated_Source\PSoC4/CyDMA.c **** {
 1773              		.loc 1 861 0
 1774              		.cfi_startproc
 1775 0000 80B5     		push	{r7, lr}
 1776              		.cfi_def_cfa_offset 8
 1777              		.cfi_offset 7, -8
 1778              		.cfi_offset 14, -4
 1779 0002 84B0     		sub	sp, sp, #16
 1780              		.cfi_def_cfa_offset 24
 1781 0004 00AF     		add	r7, sp, #0
 1782              		.cfi_def_cfa_register 7
 1783 0006 F860     		str	r0, [r7, #12]
 1784 0008 B960     		str	r1, [r7, #8]
 1785 000a 7A60     		str	r2, [r7, #4]
 862:Generated_Source\PSoC4/CyDMA.c ****     CYASSERT((channel    >= 0) && (channel    < CYDMA_CH_NR));
 1786              		.loc 1 862 0
 1787 000c FB68     		ldr	r3, [r7, #12]
 1788 000e 002B     		cmp	r3, #0
 1789 0010 04DB     		blt	.L168
 1790              		.loc 1 862 0 is_stmt 0 discriminator 1
 1791 0012 FB68     		ldr	r3, [r7, #12]
 1792 0014 1F2B     		cmp	r3, #31
 1793 0016 01DC     		bgt	.L168
 1794              		.loc 1 862 0 discriminator 3
 1795 0018 0123     		mov	r3, #1
 1796 001a 00E0     		b	.L169
 1797              	.L168:
 1798              		.loc 1 862 0 discriminator 4
 1799 001c 0023     		mov	r3, #0
 1800              	.L169:
 1801              		.loc 1 862 0 discriminator 6
 1802 001e 002B     		cmp	r3, #0
 1803 0020 02D1     		bne	.L170
 1804              		.loc 1 862 0 discriminator 7
 1805 0022 0020     		mov	r0, #0
 1806 0024 FFF7FEFF 		bl	CyHalt
 1807              	.L170:
ARM GAS  C:\Users\GREG~1.PHI\AppData\Local\Temp\cckB4vVc.s 			page 48


 863:Generated_Source\PSoC4/CyDMA.c ****     CYASSERT((descriptor >= 0) && (descriptor < CYDMA_DESCR_NR));
 1808              		.loc 1 863 0 is_stmt 1
 1809 0028 BB68     		ldr	r3, [r7, #8]
 1810 002a 002B     		cmp	r3, #0
 1811 002c 04DB     		blt	.L171
 1812              		.loc 1 863 0 is_stmt 0 discriminator 1
 1813 002e BB68     		ldr	r3, [r7, #8]
 1814 0030 012B     		cmp	r3, #1
 1815 0032 01DC     		bgt	.L171
 1816              		.loc 1 863 0 discriminator 3
 1817 0034 0123     		mov	r3, #1
 1818 0036 00E0     		b	.L172
 1819              	.L171:
 1820              		.loc 1 863 0 discriminator 4
 1821 0038 0023     		mov	r3, #0
 1822              	.L172:
 1823              		.loc 1 863 0 discriminator 6
 1824 003a 002B     		cmp	r3, #0
 1825 003c 02D1     		bne	.L173
 1826              		.loc 1 863 0 discriminator 7
 1827 003e 0020     		mov	r0, #0
 1828 0040 FFF7FEFF 		bl	CyHalt
 1829              	.L173:
 864:Generated_Source\PSoC4/CyDMA.c **** 
 865:Generated_Source\PSoC4/CyDMA.c ****     CYDMA_DESCR_BASE.descriptor[channel][descriptor].src = srcAddress;
 1830              		.loc 1 865 0 is_stmt 1
 1831 0044 0549     		ldr	r1, .L174
 1832 0046 FB68     		ldr	r3, [r7, #12]
 1833 0048 5A00     		lsl	r2, r3, #1
 1834 004a BB68     		ldr	r3, [r7, #8]
 1835 004c D318     		add	r3, r2, r3
 1836 004e 1B01     		lsl	r3, r3, #4
 1837 0050 7A68     		ldr	r2, [r7, #4]
 1838 0052 5A50     		str	r2, [r3, r1]
 866:Generated_Source\PSoC4/CyDMA.c **** }
 1839              		.loc 1 866 0
 1840 0054 BD46     		mov	sp, r7
 1841 0056 04B0     		add	sp, sp, #16
 1842              		@ sp needed
 1843 0058 80BD     		pop	{r7, pc}
 1844              	.L175:
 1845 005a C046     		.align	2
 1846              	.L174:
 1847 005c 00181040 		.word	1074796544
 1848              		.cfi_endproc
 1849              	.LFE29:
 1850              		.size	CyDmaSetSrcAddress, .-CyDmaSetSrcAddress
 1851              		.section	.text.CyDmaGetSrcAddress,"ax",%progbits
 1852              		.align	2
 1853              		.global	CyDmaGetSrcAddress
 1854              		.code	16
 1855              		.thumb_func
 1856              		.type	CyDmaGetSrcAddress, %function
 1857              	CyDmaGetSrcAddress:
 1858              	.LFB30:
 867:Generated_Source\PSoC4/CyDMA.c **** 
 868:Generated_Source\PSoC4/CyDMA.c **** 
ARM GAS  C:\Users\GREG~1.PHI\AppData\Local\Temp\cckB4vVc.s 			page 49


 869:Generated_Source\PSoC4/CyDMA.c **** /*******************************************************************************
 870:Generated_Source\PSoC4/CyDMA.c **** * Function Name: CyDmaGetSrcAddress
 871:Generated_Source\PSoC4/CyDMA.c **** ********************************************************************************
 872:Generated_Source\PSoC4/CyDMA.c **** *
 873:Generated_Source\PSoC4/CyDMA.c **** * Summary:
 874:Generated_Source\PSoC4/CyDMA.c **** *  Returns the source address for the specified descriptor, set by 
 875:Generated_Source\PSoC4/CyDMA.c **** *  CyDmaSetSrcAddress().
 876:Generated_Source\PSoC4/CyDMA.c **** *
 877:Generated_Source\PSoC4/CyDMA.c **** * Parameters:
 878:Generated_Source\PSoC4/CyDMA.c **** *  channel:    Channel used by this function.
 879:Generated_Source\PSoC4/CyDMA.c **** *  descriptor: Specifies descriptor (0 or 1) used by this function.
 880:Generated_Source\PSoC4/CyDMA.c **** *                   
 881:Generated_Source\PSoC4/CyDMA.c **** * Return:
 882:Generated_Source\PSoC4/CyDMA.c **** *  Source address written to specified descriptor.
 883:Generated_Source\PSoC4/CyDMA.c **** *
 884:Generated_Source\PSoC4/CyDMA.c **** *******************************************************************************/
 885:Generated_Source\PSoC4/CyDMA.c **** void * CyDmaGetSrcAddress(int32 channel, int32 descriptor)
 886:Generated_Source\PSoC4/CyDMA.c **** {
 1859              		.loc 1 886 0
 1860              		.cfi_startproc
 1861 0000 80B5     		push	{r7, lr}
 1862              		.cfi_def_cfa_offset 8
 1863              		.cfi_offset 7, -8
 1864              		.cfi_offset 14, -4
 1865 0002 82B0     		sub	sp, sp, #8
 1866              		.cfi_def_cfa_offset 16
 1867 0004 00AF     		add	r7, sp, #0
 1868              		.cfi_def_cfa_register 7
 1869 0006 7860     		str	r0, [r7, #4]
 1870 0008 3960     		str	r1, [r7]
 887:Generated_Source\PSoC4/CyDMA.c ****     CYASSERT((channel    >= 0) && (channel    < CYDMA_CH_NR));
 1871              		.loc 1 887 0
 1872 000a 7B68     		ldr	r3, [r7, #4]
 1873 000c 002B     		cmp	r3, #0
 1874 000e 04DB     		blt	.L177
 1875              		.loc 1 887 0 is_stmt 0 discriminator 1
 1876 0010 7B68     		ldr	r3, [r7, #4]
 1877 0012 1F2B     		cmp	r3, #31
 1878 0014 01DC     		bgt	.L177
 1879              		.loc 1 887 0 discriminator 3
 1880 0016 0123     		mov	r3, #1
 1881 0018 00E0     		b	.L178
 1882              	.L177:
 1883              		.loc 1 887 0 discriminator 4
 1884 001a 0023     		mov	r3, #0
 1885              	.L178:
 1886              		.loc 1 887 0 discriminator 6
 1887 001c 002B     		cmp	r3, #0
 1888 001e 02D1     		bne	.L179
 1889              		.loc 1 887 0 discriminator 7
 1890 0020 0020     		mov	r0, #0
 1891 0022 FFF7FEFF 		bl	CyHalt
 1892              	.L179:
 888:Generated_Source\PSoC4/CyDMA.c ****     CYASSERT((descriptor >= 0) && (descriptor < CYDMA_DESCR_NR));
 1893              		.loc 1 888 0 is_stmt 1
 1894 0026 3B68     		ldr	r3, [r7]
 1895 0028 002B     		cmp	r3, #0
ARM GAS  C:\Users\GREG~1.PHI\AppData\Local\Temp\cckB4vVc.s 			page 50


 1896 002a 04DB     		blt	.L180
 1897              		.loc 1 888 0 is_stmt 0 discriminator 1
 1898 002c 3B68     		ldr	r3, [r7]
 1899 002e 012B     		cmp	r3, #1
 1900 0030 01DC     		bgt	.L180
 1901              		.loc 1 888 0 discriminator 3
 1902 0032 0123     		mov	r3, #1
 1903 0034 00E0     		b	.L181
 1904              	.L180:
 1905              		.loc 1 888 0 discriminator 4
 1906 0036 0023     		mov	r3, #0
 1907              	.L181:
 1908              		.loc 1 888 0 discriminator 6
 1909 0038 002B     		cmp	r3, #0
 1910 003a 02D1     		bne	.L182
 1911              		.loc 1 888 0 discriminator 7
 1912 003c 0020     		mov	r0, #0
 1913 003e FFF7FEFF 		bl	CyHalt
 1914              	.L182:
 889:Generated_Source\PSoC4/CyDMA.c **** 
 890:Generated_Source\PSoC4/CyDMA.c ****     return (CYDMA_DESCR_BASE.descriptor[channel][descriptor].src);
 1915              		.loc 1 890 0 is_stmt 1
 1916 0042 0549     		ldr	r1, .L184
 1917 0044 7B68     		ldr	r3, [r7, #4]
 1918 0046 5A00     		lsl	r2, r3, #1
 1919 0048 3B68     		ldr	r3, [r7]
 1920 004a D318     		add	r3, r2, r3
 1921 004c 1B01     		lsl	r3, r3, #4
 1922 004e 5B58     		ldr	r3, [r3, r1]
 891:Generated_Source\PSoC4/CyDMA.c **** }
 1923              		.loc 1 891 0
 1924 0050 181C     		mov	r0, r3
 1925 0052 BD46     		mov	sp, r7
 1926 0054 02B0     		add	sp, sp, #8
 1927              		@ sp needed
 1928 0056 80BD     		pop	{r7, pc}
 1929              	.L185:
 1930              		.align	2
 1931              	.L184:
 1932 0058 00181040 		.word	1074796544
 1933              		.cfi_endproc
 1934              	.LFE30:
 1935              		.size	CyDmaGetSrcAddress, .-CyDmaGetSrcAddress
 1936              		.section	.text.CyDmaSetDstAddress,"ax",%progbits
 1937              		.align	2
 1938              		.global	CyDmaSetDstAddress
 1939              		.code	16
 1940              		.thumb_func
 1941              		.type	CyDmaSetDstAddress, %function
 1942              	CyDmaSetDstAddress:
 1943              	.LFB31:
 892:Generated_Source\PSoC4/CyDMA.c **** 
 893:Generated_Source\PSoC4/CyDMA.c **** 
 894:Generated_Source\PSoC4/CyDMA.c **** /*******************************************************************************
 895:Generated_Source\PSoC4/CyDMA.c **** * Function Name: CyDmaSetDstAddress
 896:Generated_Source\PSoC4/CyDMA.c **** ********************************************************************************
 897:Generated_Source\PSoC4/CyDMA.c **** *
ARM GAS  C:\Users\GREG~1.PHI\AppData\Local\Temp\cckB4vVc.s 			page 51


 898:Generated_Source\PSoC4/CyDMA.c **** * Summary:
 899:Generated_Source\PSoC4/CyDMA.c **** *  Configures the destination address for the specified descriptor.
 900:Generated_Source\PSoC4/CyDMA.c **** *
 901:Generated_Source\PSoC4/CyDMA.c **** * Parameters:
 902:Generated_Source\PSoC4/CyDMA.c **** *  channel:    Channel used by this function.
 903:Generated_Source\PSoC4/CyDMA.c **** *  descriptor: Descriptor (0 or 1) modified by this function.
 904:Generated_Source\PSoC4/CyDMA.c **** *  dstAddress: Address of DMA transfer destination.
 905:Generated_Source\PSoC4/CyDMA.c **** *                   
 906:Generated_Source\PSoC4/CyDMA.c **** * Return:
 907:Generated_Source\PSoC4/CyDMA.c **** *  None.
 908:Generated_Source\PSoC4/CyDMA.c **** *
 909:Generated_Source\PSoC4/CyDMA.c **** * Side effect:
 910:Generated_Source\PSoC4/CyDMA.c **** *  This function should not be called when the specified descriptor is active
 911:Generated_Source\PSoC4/CyDMA.c **** *  in the DMA transfer engine. This can be checked by calling CyDmaGetStatus(). 
 912:Generated_Source\PSoC4/CyDMA.c **** *
 913:Generated_Source\PSoC4/CyDMA.c **** *******************************************************************************/
 914:Generated_Source\PSoC4/CyDMA.c **** void CyDmaSetDstAddress(int32 channel, int32 descriptor, void * dstAddress)
 915:Generated_Source\PSoC4/CyDMA.c **** {
 1944              		.loc 1 915 0
 1945              		.cfi_startproc
 1946 0000 80B5     		push	{r7, lr}
 1947              		.cfi_def_cfa_offset 8
 1948              		.cfi_offset 7, -8
 1949              		.cfi_offset 14, -4
 1950 0002 84B0     		sub	sp, sp, #16
 1951              		.cfi_def_cfa_offset 24
 1952 0004 00AF     		add	r7, sp, #0
 1953              		.cfi_def_cfa_register 7
 1954 0006 F860     		str	r0, [r7, #12]
 1955 0008 B960     		str	r1, [r7, #8]
 1956 000a 7A60     		str	r2, [r7, #4]
 916:Generated_Source\PSoC4/CyDMA.c ****     CYASSERT((channel    >= 0) && (channel    < CYDMA_CH_NR));
 1957              		.loc 1 916 0
 1958 000c FB68     		ldr	r3, [r7, #12]
 1959 000e 002B     		cmp	r3, #0
 1960 0010 04DB     		blt	.L187
 1961              		.loc 1 916 0 is_stmt 0 discriminator 1
 1962 0012 FB68     		ldr	r3, [r7, #12]
 1963 0014 1F2B     		cmp	r3, #31
 1964 0016 01DC     		bgt	.L187
 1965              		.loc 1 916 0 discriminator 3
 1966 0018 0123     		mov	r3, #1
 1967 001a 00E0     		b	.L188
 1968              	.L187:
 1969              		.loc 1 916 0 discriminator 4
 1970 001c 0023     		mov	r3, #0
 1971              	.L188:
 1972              		.loc 1 916 0 discriminator 6
 1973 001e 002B     		cmp	r3, #0
 1974 0020 02D1     		bne	.L189
 1975              		.loc 1 916 0 discriminator 7
 1976 0022 0020     		mov	r0, #0
 1977 0024 FFF7FEFF 		bl	CyHalt
 1978              	.L189:
 917:Generated_Source\PSoC4/CyDMA.c ****     CYASSERT((descriptor >= 0) && (descriptor < CYDMA_DESCR_NR));
 1979              		.loc 1 917 0 is_stmt 1
 1980 0028 BB68     		ldr	r3, [r7, #8]
ARM GAS  C:\Users\GREG~1.PHI\AppData\Local\Temp\cckB4vVc.s 			page 52


 1981 002a 002B     		cmp	r3, #0
 1982 002c 04DB     		blt	.L190
 1983              		.loc 1 917 0 is_stmt 0 discriminator 1
 1984 002e BB68     		ldr	r3, [r7, #8]
 1985 0030 012B     		cmp	r3, #1
 1986 0032 01DC     		bgt	.L190
 1987              		.loc 1 917 0 discriminator 3
 1988 0034 0123     		mov	r3, #1
 1989 0036 00E0     		b	.L191
 1990              	.L190:
 1991              		.loc 1 917 0 discriminator 4
 1992 0038 0023     		mov	r3, #0
 1993              	.L191:
 1994              		.loc 1 917 0 discriminator 6
 1995 003a 002B     		cmp	r3, #0
 1996 003c 02D1     		bne	.L192
 1997              		.loc 1 917 0 discriminator 7
 1998 003e 0020     		mov	r0, #0
 1999 0040 FFF7FEFF 		bl	CyHalt
 2000              	.L192:
 918:Generated_Source\PSoC4/CyDMA.c **** 
 919:Generated_Source\PSoC4/CyDMA.c ****     CYDMA_DESCR_BASE.descriptor[channel][descriptor].dst = dstAddress;
 2001              		.loc 1 919 0 is_stmt 1
 2002 0044 0549     		ldr	r1, .L193
 2003 0046 FB68     		ldr	r3, [r7, #12]
 2004 0048 5A00     		lsl	r2, r3, #1
 2005 004a BB68     		ldr	r3, [r7, #8]
 2006 004c D318     		add	r3, r2, r3
 2007 004e 1B01     		lsl	r3, r3, #4
 2008 0050 CB18     		add	r3, r1, r3
 2009 0052 7A68     		ldr	r2, [r7, #4]
 2010 0054 5A60     		str	r2, [r3, #4]
 920:Generated_Source\PSoC4/CyDMA.c **** }
 2011              		.loc 1 920 0
 2012 0056 BD46     		mov	sp, r7
 2013 0058 04B0     		add	sp, sp, #16
 2014              		@ sp needed
 2015 005a 80BD     		pop	{r7, pc}
 2016              	.L194:
 2017              		.align	2
 2018              	.L193:
 2019 005c 00181040 		.word	1074796544
 2020              		.cfi_endproc
 2021              	.LFE31:
 2022              		.size	CyDmaSetDstAddress, .-CyDmaSetDstAddress
 2023              		.section	.text.CyDmaGetDstAddress,"ax",%progbits
 2024              		.align	2
 2025              		.global	CyDmaGetDstAddress
 2026              		.code	16
 2027              		.thumb_func
 2028              		.type	CyDmaGetDstAddress, %function
 2029              	CyDmaGetDstAddress:
 2030              	.LFB32:
 921:Generated_Source\PSoC4/CyDMA.c **** 
 922:Generated_Source\PSoC4/CyDMA.c **** 
 923:Generated_Source\PSoC4/CyDMA.c **** /*******************************************************************************
 924:Generated_Source\PSoC4/CyDMA.c **** * Function Name: CyDmaGetDstAddress
ARM GAS  C:\Users\GREG~1.PHI\AppData\Local\Temp\cckB4vVc.s 			page 53


 925:Generated_Source\PSoC4/CyDMA.c **** ********************************************************************************
 926:Generated_Source\PSoC4/CyDMA.c **** *
 927:Generated_Source\PSoC4/CyDMA.c **** * Summary:
 928:Generated_Source\PSoC4/CyDMA.c **** *  Returns the destination address for the specified descriptor, set by 
 929:Generated_Source\PSoC4/CyDMA.c **** *  CyDmaSetDstAddress().
 930:Generated_Source\PSoC4/CyDMA.c **** *
 931:Generated_Source\PSoC4/CyDMA.c **** * Parameters:
 932:Generated_Source\PSoC4/CyDMA.c **** *  channel:    Channel used by this function.
 933:Generated_Source\PSoC4/CyDMA.c **** *  descriptor: Specifies descriptor (0 or 1) used by this function.
 934:Generated_Source\PSoC4/CyDMA.c **** *                   
 935:Generated_Source\PSoC4/CyDMA.c **** * Return:
 936:Generated_Source\PSoC4/CyDMA.c **** *  Destination address written to specified descriptor.
 937:Generated_Source\PSoC4/CyDMA.c **** *
 938:Generated_Source\PSoC4/CyDMA.c **** *******************************************************************************/
 939:Generated_Source\PSoC4/CyDMA.c **** void * CyDmaGetDstAddress(int32 channel, int32 descriptor)
 940:Generated_Source\PSoC4/CyDMA.c **** {
 2031              		.loc 1 940 0
 2032              		.cfi_startproc
 2033 0000 80B5     		push	{r7, lr}
 2034              		.cfi_def_cfa_offset 8
 2035              		.cfi_offset 7, -8
 2036              		.cfi_offset 14, -4
 2037 0002 82B0     		sub	sp, sp, #8
 2038              		.cfi_def_cfa_offset 16
 2039 0004 00AF     		add	r7, sp, #0
 2040              		.cfi_def_cfa_register 7
 2041 0006 7860     		str	r0, [r7, #4]
 2042 0008 3960     		str	r1, [r7]
 941:Generated_Source\PSoC4/CyDMA.c ****     CYASSERT((channel    >= 0) && (channel    < CYDMA_CH_NR));
 2043              		.loc 1 941 0
 2044 000a 7B68     		ldr	r3, [r7, #4]
 2045 000c 002B     		cmp	r3, #0
 2046 000e 04DB     		blt	.L196
 2047              		.loc 1 941 0 is_stmt 0 discriminator 1
 2048 0010 7B68     		ldr	r3, [r7, #4]
 2049 0012 1F2B     		cmp	r3, #31
 2050 0014 01DC     		bgt	.L196
 2051              		.loc 1 941 0 discriminator 3
 2052 0016 0123     		mov	r3, #1
 2053 0018 00E0     		b	.L197
 2054              	.L196:
 2055              		.loc 1 941 0 discriminator 4
 2056 001a 0023     		mov	r3, #0
 2057              	.L197:
 2058              		.loc 1 941 0 discriminator 6
 2059 001c 002B     		cmp	r3, #0
 2060 001e 02D1     		bne	.L198
 2061              		.loc 1 941 0 discriminator 7
 2062 0020 0020     		mov	r0, #0
 2063 0022 FFF7FEFF 		bl	CyHalt
 2064              	.L198:
 942:Generated_Source\PSoC4/CyDMA.c ****     CYASSERT((descriptor >= 0) && (descriptor < CYDMA_DESCR_NR));
 2065              		.loc 1 942 0 is_stmt 1
 2066 0026 3B68     		ldr	r3, [r7]
 2067 0028 002B     		cmp	r3, #0
 2068 002a 04DB     		blt	.L199
 2069              		.loc 1 942 0 is_stmt 0 discriminator 1
ARM GAS  C:\Users\GREG~1.PHI\AppData\Local\Temp\cckB4vVc.s 			page 54


 2070 002c 3B68     		ldr	r3, [r7]
 2071 002e 012B     		cmp	r3, #1
 2072 0030 01DC     		bgt	.L199
 2073              		.loc 1 942 0 discriminator 3
 2074 0032 0123     		mov	r3, #1
 2075 0034 00E0     		b	.L200
 2076              	.L199:
 2077              		.loc 1 942 0 discriminator 4
 2078 0036 0023     		mov	r3, #0
 2079              	.L200:
 2080              		.loc 1 942 0 discriminator 6
 2081 0038 002B     		cmp	r3, #0
 2082 003a 02D1     		bne	.L201
 2083              		.loc 1 942 0 discriminator 7
 2084 003c 0020     		mov	r0, #0
 2085 003e FFF7FEFF 		bl	CyHalt
 2086              	.L201:
 943:Generated_Source\PSoC4/CyDMA.c **** 
 944:Generated_Source\PSoC4/CyDMA.c ****     return (CYDMA_DESCR_BASE.descriptor[channel][descriptor].dst);
 2087              		.loc 1 944 0 is_stmt 1
 2088 0042 0649     		ldr	r1, .L203
 2089 0044 7B68     		ldr	r3, [r7, #4]
 2090 0046 5A00     		lsl	r2, r3, #1
 2091 0048 3B68     		ldr	r3, [r7]
 2092 004a D318     		add	r3, r2, r3
 2093 004c 1B01     		lsl	r3, r3, #4
 2094 004e CB18     		add	r3, r1, r3
 2095 0050 5B68     		ldr	r3, [r3, #4]
 945:Generated_Source\PSoC4/CyDMA.c **** }
 2096              		.loc 1 945 0
 2097 0052 181C     		mov	r0, r3
 2098 0054 BD46     		mov	sp, r7
 2099 0056 02B0     		add	sp, sp, #8
 2100              		@ sp needed
 2101 0058 80BD     		pop	{r7, pc}
 2102              	.L204:
 2103 005a C046     		.align	2
 2104              	.L203:
 2105 005c 00181040 		.word	1074796544
 2106              		.cfi_endproc
 2107              	.LFE32:
 2108              		.size	CyDmaGetDstAddress, .-CyDmaGetDstAddress
 2109              		.section	.text.CyDmaSetDataElementSize,"ax",%progbits
 2110              		.align	2
 2111              		.global	CyDmaSetDataElementSize
 2112              		.code	16
 2113              		.thumb_func
 2114              		.type	CyDmaSetDataElementSize, %function
 2115              	CyDmaSetDataElementSize:
 2116              	.LFB33:
 946:Generated_Source\PSoC4/CyDMA.c **** 
 947:Generated_Source\PSoC4/CyDMA.c **** /*******************************************************************************
 948:Generated_Source\PSoC4/CyDMA.c **** * Function Name: CyDmaSetDataElementSize
 949:Generated_Source\PSoC4/CyDMA.c **** ********************************************************************************
 950:Generated_Source\PSoC4/CyDMA.c **** *
 951:Generated_Source\PSoC4/CyDMA.c **** * Summary:
 952:Generated_Source\PSoC4/CyDMA.c **** *  Sets the data element size for the specified descriptor.
ARM GAS  C:\Users\GREG~1.PHI\AppData\Local\Temp\cckB4vVc.s 			page 55


 953:Generated_Source\PSoC4/CyDMA.c **** *
 954:Generated_Source\PSoC4/CyDMA.c **** * Parameters:
 955:Generated_Source\PSoC4/CyDMA.c **** *  channel:         Channel used by this function.
 956:Generated_Source\PSoC4/CyDMA.c **** *  descriptor:      Descriptor (0 or 1) modified by this function.
 957:Generated_Source\PSoC4/CyDMA.c **** *  dataElementSize: Specifies the size of the data element. The DMA transfer
 958:Generated_Source\PSoC4/CyDMA.c **** *                   engine transfers one data element at a time. How these
 959:Generated_Source\PSoC4/CyDMA.c **** *                   transfers occur is controlled by the transfer mode.
 960:Generated_Source\PSoC4/CyDMA.c **** *                   Refer to the API bit field definitions in CyDMA_P4.h
 961:Generated_Source\PSoC4/CyDMA.c **** *                   or API description in the DMA channel datasheet for the 
 962:Generated_Source\PSoC4/CyDMA.c **** *                   parameter options.
 963:Generated_Source\PSoC4/CyDMA.c **** *
 964:Generated_Source\PSoC4/CyDMA.c **** * Return:
 965:Generated_Source\PSoC4/CyDMA.c **** *  None.
 966:Generated_Source\PSoC4/CyDMA.c **** *
 967:Generated_Source\PSoC4/CyDMA.c **** * Side effect:
 968:Generated_Source\PSoC4/CyDMA.c **** *  This function should not be called when the specified descriptor is active
 969:Generated_Source\PSoC4/CyDMA.c **** *  in the DMA transfer engine. This can be checked by calling CyDmaGetStatus(). 
 970:Generated_Source\PSoC4/CyDMA.c **** *
 971:Generated_Source\PSoC4/CyDMA.c **** *******************************************************************************/
 972:Generated_Source\PSoC4/CyDMA.c **** void CyDmaSetDataElementSize(int32 channel, int32 descriptor, uint32 dataElementSize)
 973:Generated_Source\PSoC4/CyDMA.c **** {
 2117              		.loc 1 973 0
 2118              		.cfi_startproc
 2119 0000 80B5     		push	{r7, lr}
 2120              		.cfi_def_cfa_offset 8
 2121              		.cfi_offset 7, -8
 2122              		.cfi_offset 14, -4
 2123 0002 86B0     		sub	sp, sp, #24
 2124              		.cfi_def_cfa_offset 32
 2125 0004 00AF     		add	r7, sp, #0
 2126              		.cfi_def_cfa_register 7
 2127 0006 F860     		str	r0, [r7, #12]
 2128 0008 B960     		str	r1, [r7, #8]
 2129 000a 7A60     		str	r2, [r7, #4]
 974:Generated_Source\PSoC4/CyDMA.c ****     uint32 regValue;
 975:Generated_Source\PSoC4/CyDMA.c ****     
 976:Generated_Source\PSoC4/CyDMA.c ****     CYASSERT((channel    >= 0) && (channel    < CYDMA_CH_NR));
 2130              		.loc 1 976 0
 2131 000c FB68     		ldr	r3, [r7, #12]
 2132 000e 002B     		cmp	r3, #0
 2133 0010 04DB     		blt	.L206
 2134              		.loc 1 976 0 is_stmt 0 discriminator 1
 2135 0012 FB68     		ldr	r3, [r7, #12]
 2136 0014 1F2B     		cmp	r3, #31
 2137 0016 01DC     		bgt	.L206
 2138              		.loc 1 976 0 discriminator 3
 2139 0018 0123     		mov	r3, #1
 2140 001a 00E0     		b	.L207
 2141              	.L206:
 2142              		.loc 1 976 0 discriminator 4
 2143 001c 0023     		mov	r3, #0
 2144              	.L207:
 2145              		.loc 1 976 0 discriminator 6
 2146 001e 002B     		cmp	r3, #0
 2147 0020 02D1     		bne	.L208
 2148              		.loc 1 976 0 discriminator 7
 2149 0022 0020     		mov	r0, #0
ARM GAS  C:\Users\GREG~1.PHI\AppData\Local\Temp\cckB4vVc.s 			page 56


 2150 0024 FFF7FEFF 		bl	CyHalt
 2151              	.L208:
 977:Generated_Source\PSoC4/CyDMA.c ****     CYASSERT((descriptor >= 0) && (descriptor < CYDMA_DESCR_NR));
 2152              		.loc 1 977 0 is_stmt 1
 2153 0028 BB68     		ldr	r3, [r7, #8]
 2154 002a 002B     		cmp	r3, #0
 2155 002c 04DB     		blt	.L209
 2156              		.loc 1 977 0 is_stmt 0 discriminator 1
 2157 002e BB68     		ldr	r3, [r7, #8]
 2158 0030 012B     		cmp	r3, #1
 2159 0032 01DC     		bgt	.L209
 2160              		.loc 1 977 0 discriminator 3
 2161 0034 0123     		mov	r3, #1
 2162 0036 00E0     		b	.L210
 2163              	.L209:
 2164              		.loc 1 977 0 discriminator 4
 2165 0038 0023     		mov	r3, #0
 2166              	.L210:
 2167              		.loc 1 977 0 discriminator 6
 2168 003a 002B     		cmp	r3, #0
 2169 003c 02D1     		bne	.L211
 2170              		.loc 1 977 0 discriminator 7
 2171 003e 0020     		mov	r0, #0
 2172 0040 FFF7FEFF 		bl	CyHalt
 2173              	.L211:
 978:Generated_Source\PSoC4/CyDMA.c ****     CYASSERT(0u == (dataElementSize & (uint32)~CYDMA_DATA_SIZE));
 2174              		.loc 1 978 0 is_stmt 1
 2175 0044 7B68     		ldr	r3, [r7, #4]
 2176 0046 104A     		ldr	r2, .L213
 2177 0048 1340     		and	r3, r2
 2178 004a 02D0     		beq	.L212
 2179              		.loc 1 978 0 is_stmt 0 discriminator 1
 2180 004c 0020     		mov	r0, #0
 2181 004e FFF7FEFF 		bl	CyHalt
 2182              	.L212:
 979:Generated_Source\PSoC4/CyDMA.c **** 
 980:Generated_Source\PSoC4/CyDMA.c ****     regValue = CYDMA_DESCR_BASE.descriptor[channel][descriptor].ctl & (uint32)~CYDMA_DATA_SIZE;
 2183              		.loc 1 980 0 is_stmt 1
 2184 0052 0E49     		ldr	r1, .L213+4
 2185 0054 FB68     		ldr	r3, [r7, #12]
 2186 0056 5A00     		lsl	r2, r3, #1
 2187 0058 BB68     		ldr	r3, [r7, #8]
 2188 005a D318     		add	r3, r2, r3
 2189 005c 1B01     		lsl	r3, r3, #4
 2190 005e CB18     		add	r3, r1, r3
 2191 0060 0833     		add	r3, r3, #8
 2192 0062 1B68     		ldr	r3, [r3]
 2193 0064 084A     		ldr	r2, .L213
 2194 0066 1340     		and	r3, r2
 2195 0068 7B61     		str	r3, [r7, #20]
 981:Generated_Source\PSoC4/CyDMA.c ****     CYDMA_DESCR_BASE.descriptor[channel][descriptor].ctl = regValue | dataElementSize;
 2196              		.loc 1 981 0
 2197 006a 0848     		ldr	r0, .L213+4
 2198 006c 7A69     		ldr	r2, [r7, #20]
 2199 006e 7B68     		ldr	r3, [r7, #4]
 2200 0070 1A43     		orr	r2, r3
 2201 0072 FB68     		ldr	r3, [r7, #12]
ARM GAS  C:\Users\GREG~1.PHI\AppData\Local\Temp\cckB4vVc.s 			page 57


 2202 0074 5900     		lsl	r1, r3, #1
 2203 0076 BB68     		ldr	r3, [r7, #8]
 2204 0078 CB18     		add	r3, r1, r3
 2205 007a 1B01     		lsl	r3, r3, #4
 2206 007c C318     		add	r3, r0, r3
 2207 007e 0833     		add	r3, r3, #8
 2208 0080 1A60     		str	r2, [r3]
 982:Generated_Source\PSoC4/CyDMA.c **** }
 2209              		.loc 1 982 0
 2210 0082 BD46     		mov	sp, r7
 2211 0084 06B0     		add	sp, sp, #24
 2212              		@ sp needed
 2213 0086 80BD     		pop	{r7, pc}
 2214              	.L214:
 2215              		.align	2
 2216              	.L213:
 2217 0088 FFFFFCFF 		.word	-196609
 2218 008c 00181040 		.word	1074796544
 2219              		.cfi_endproc
 2220              	.LFE33:
 2221              		.size	CyDmaSetDataElementSize, .-CyDmaSetDataElementSize
 2222              		.section	.text.CyDmaGetDataElementSize,"ax",%progbits
 2223              		.align	2
 2224              		.global	CyDmaGetDataElementSize
 2225              		.code	16
 2226              		.thumb_func
 2227              		.type	CyDmaGetDataElementSize, %function
 2228              	CyDmaGetDataElementSize:
 2229              	.LFB34:
 983:Generated_Source\PSoC4/CyDMA.c **** 
 984:Generated_Source\PSoC4/CyDMA.c **** 
 985:Generated_Source\PSoC4/CyDMA.c **** /*******************************************************************************
 986:Generated_Source\PSoC4/CyDMA.c **** * Function Name: CyDmaGetDataElementSize
 987:Generated_Source\PSoC4/CyDMA.c **** ********************************************************************************
 988:Generated_Source\PSoC4/CyDMA.c **** *
 989:Generated_Source\PSoC4/CyDMA.c **** * Summary:
 990:Generated_Source\PSoC4/CyDMA.c **** *  Returns the data element size configured for the specified descriptor, set by
 991:Generated_Source\PSoC4/CyDMA.c **** *  CyDmaSetDataElementSize() or CyDmaSetConfiguration.
 992:Generated_Source\PSoC4/CyDMA.c **** *
 993:Generated_Source\PSoC4/CyDMA.c **** * Parameters:
 994:Generated_Source\PSoC4/CyDMA.c **** *  channel:    Channel used by this function.
 995:Generated_Source\PSoC4/CyDMA.c **** *  descriptor: Descriptor (0 or 1) modified by this function.
 996:Generated_Source\PSoC4/CyDMA.c **** *                   
 997:Generated_Source\PSoC4/CyDMA.c **** * Return:
 998:Generated_Source\PSoC4/CyDMA.c **** *  The size of the data element. The DMA transfer engine transfers one data
 999:Generated_Source\PSoC4/CyDMA.c **** *  element at a time. How these transfers occur is controlled by the transfer
1000:Generated_Source\PSoC4/CyDMA.c **** *  mode. Refer to the API bit field definitions in CyDMA_P4.h or the API 
1001:Generated_Source\PSoC4/CyDMA.c **** *  description in the DMA channel datasheet for more information.
1002:Generated_Source\PSoC4/CyDMA.c **** *
1003:Generated_Source\PSoC4/CyDMA.c **** * Note:
1004:Generated_Source\PSoC4/CyDMA.c **** *  The size of the source and destination can be configured to use the
1005:Generated_Source\PSoC4/CyDMA.c **** *  data element size, or a Word, this is set in CyDmaSetSrcDstTransferWidth().
1006:Generated_Source\PSoC4/CyDMA.c **** *
1007:Generated_Source\PSoC4/CyDMA.c **** *******************************************************************************/
1008:Generated_Source\PSoC4/CyDMA.c **** uint32 CyDmaGetDataElementSize(int32 channel, int32 descriptor)
1009:Generated_Source\PSoC4/CyDMA.c **** {
 2230              		.loc 1 1009 0
ARM GAS  C:\Users\GREG~1.PHI\AppData\Local\Temp\cckB4vVc.s 			page 58


 2231              		.cfi_startproc
 2232 0000 80B5     		push	{r7, lr}
 2233              		.cfi_def_cfa_offset 8
 2234              		.cfi_offset 7, -8
 2235              		.cfi_offset 14, -4
 2236 0002 82B0     		sub	sp, sp, #8
 2237              		.cfi_def_cfa_offset 16
 2238 0004 00AF     		add	r7, sp, #0
 2239              		.cfi_def_cfa_register 7
 2240 0006 7860     		str	r0, [r7, #4]
 2241 0008 3960     		str	r1, [r7]
1010:Generated_Source\PSoC4/CyDMA.c ****     CYASSERT((channel    >= 0) && (channel    < CYDMA_CH_NR));
 2242              		.loc 1 1010 0
 2243 000a 7B68     		ldr	r3, [r7, #4]
 2244 000c 002B     		cmp	r3, #0
 2245 000e 04DB     		blt	.L216
 2246              		.loc 1 1010 0 is_stmt 0 discriminator 1
 2247 0010 7B68     		ldr	r3, [r7, #4]
 2248 0012 1F2B     		cmp	r3, #31
 2249 0014 01DC     		bgt	.L216
 2250              		.loc 1 1010 0 discriminator 3
 2251 0016 0123     		mov	r3, #1
 2252 0018 00E0     		b	.L217
 2253              	.L216:
 2254              		.loc 1 1010 0 discriminator 4
 2255 001a 0023     		mov	r3, #0
 2256              	.L217:
 2257              		.loc 1 1010 0 discriminator 6
 2258 001c 002B     		cmp	r3, #0
 2259 001e 02D1     		bne	.L218
 2260              		.loc 1 1010 0 discriminator 7
 2261 0020 0020     		mov	r0, #0
 2262 0022 FFF7FEFF 		bl	CyHalt
 2263              	.L218:
1011:Generated_Source\PSoC4/CyDMA.c ****     CYASSERT((descriptor >= 0) && (descriptor < CYDMA_DESCR_NR));
 2264              		.loc 1 1011 0 is_stmt 1
 2265 0026 3B68     		ldr	r3, [r7]
 2266 0028 002B     		cmp	r3, #0
 2267 002a 04DB     		blt	.L219
 2268              		.loc 1 1011 0 is_stmt 0 discriminator 1
 2269 002c 3B68     		ldr	r3, [r7]
 2270 002e 012B     		cmp	r3, #1
 2271 0030 01DC     		bgt	.L219
 2272              		.loc 1 1011 0 discriminator 3
 2273 0032 0123     		mov	r3, #1
 2274 0034 00E0     		b	.L220
 2275              	.L219:
 2276              		.loc 1 1011 0 discriminator 4
 2277 0036 0023     		mov	r3, #0
 2278              	.L220:
 2279              		.loc 1 1011 0 discriminator 6
 2280 0038 002B     		cmp	r3, #0
 2281 003a 02D1     		bne	.L221
 2282              		.loc 1 1011 0 discriminator 7
 2283 003c 0020     		mov	r0, #0
 2284 003e FFF7FEFF 		bl	CyHalt
 2285              	.L221:
ARM GAS  C:\Users\GREG~1.PHI\AppData\Local\Temp\cckB4vVc.s 			page 59


1012:Generated_Source\PSoC4/CyDMA.c **** 
1013:Generated_Source\PSoC4/CyDMA.c ****     return (CYDMA_DESCR_BASE.descriptor[channel][descriptor].ctl & CYDMA_DATA_SIZE);
 2286              		.loc 1 1013 0 is_stmt 1
 2287 0042 0849     		ldr	r1, .L223
 2288 0044 7B68     		ldr	r3, [r7, #4]
 2289 0046 5A00     		lsl	r2, r3, #1
 2290 0048 3B68     		ldr	r3, [r7]
 2291 004a D318     		add	r3, r2, r3
 2292 004c 1B01     		lsl	r3, r3, #4
 2293 004e CB18     		add	r3, r1, r3
 2294 0050 0833     		add	r3, r3, #8
 2295 0052 1A68     		ldr	r2, [r3]
 2296 0054 C023     		mov	r3, #192
 2297 0056 9B02     		lsl	r3, r3, #10
 2298 0058 1340     		and	r3, r2
1014:Generated_Source\PSoC4/CyDMA.c **** }
 2299              		.loc 1 1014 0
 2300 005a 181C     		mov	r0, r3
 2301 005c BD46     		mov	sp, r7
 2302 005e 02B0     		add	sp, sp, #8
 2303              		@ sp needed
 2304 0060 80BD     		pop	{r7, pc}
 2305              	.L224:
 2306 0062 C046     		.align	2
 2307              	.L223:
 2308 0064 00181040 		.word	1074796544
 2309              		.cfi_endproc
 2310              	.LFE34:
 2311              		.size	CyDmaGetDataElementSize, .-CyDmaGetDataElementSize
 2312              		.section	.text.CyDmaSetNumDataElements,"ax",%progbits
 2313              		.align	2
 2314              		.global	CyDmaSetNumDataElements
 2315              		.code	16
 2316              		.thumb_func
 2317              		.type	CyDmaSetNumDataElements, %function
 2318              	CyDmaSetNumDataElements:
 2319              	.LFB35:
1015:Generated_Source\PSoC4/CyDMA.c **** 
1016:Generated_Source\PSoC4/CyDMA.c **** 
1017:Generated_Source\PSoC4/CyDMA.c **** /*******************************************************************************
1018:Generated_Source\PSoC4/CyDMA.c **** * Function Name: CyDmaSetNumDataElements
1019:Generated_Source\PSoC4/CyDMA.c **** ********************************************************************************
1020:Generated_Source\PSoC4/CyDMA.c **** *
1021:Generated_Source\PSoC4/CyDMA.c **** * Summary:
1022:Generated_Source\PSoC4/CyDMA.c **** *  Sets the number of data elements to transfer for specified descriptor.
1023:Generated_Source\PSoC4/CyDMA.c **** *
1024:Generated_Source\PSoC4/CyDMA.c **** * Parameters:
1025:Generated_Source\PSoC4/CyDMA.c **** *  channel:         Channel used by this function.
1026:Generated_Source\PSoC4/CyDMA.c **** *  descriptor:      Descriptor (0 or 1) modified by this function.
1027:Generated_Source\PSoC4/CyDMA.c **** *  numDataElements: Total number of data elements this descriptor transfers.
1028:Generated_Source\PSoC4/CyDMA.c **** *                   Valid ranges are 1 to 65536.
1029:Generated_Source\PSoC4/CyDMA.c **** *                   
1030:Generated_Source\PSoC4/CyDMA.c **** * Return:
1031:Generated_Source\PSoC4/CyDMA.c **** *  None.
1032:Generated_Source\PSoC4/CyDMA.c **** *
1033:Generated_Source\PSoC4/CyDMA.c **** * Side effect:
1034:Generated_Source\PSoC4/CyDMA.c **** *  This function should not be called when the specified descriptor is active
ARM GAS  C:\Users\GREG~1.PHI\AppData\Local\Temp\cckB4vVc.s 			page 60


1035:Generated_Source\PSoC4/CyDMA.c **** *  in the DMA transfer engine. This can be checked by calling CyDmaGetStatus(). 
1036:Generated_Source\PSoC4/CyDMA.c **** *
1037:Generated_Source\PSoC4/CyDMA.c **** *******************************************************************************/
1038:Generated_Source\PSoC4/CyDMA.c **** void CyDmaSetNumDataElements(int32 channel, int32 descriptor, int32 numDataElements)
1039:Generated_Source\PSoC4/CyDMA.c **** {
 2320              		.loc 1 1039 0
 2321              		.cfi_startproc
 2322 0000 80B5     		push	{r7, lr}
 2323              		.cfi_def_cfa_offset 8
 2324              		.cfi_offset 7, -8
 2325              		.cfi_offset 14, -4
 2326 0002 86B0     		sub	sp, sp, #24
 2327              		.cfi_def_cfa_offset 32
 2328 0004 00AF     		add	r7, sp, #0
 2329              		.cfi_def_cfa_register 7
 2330 0006 F860     		str	r0, [r7, #12]
 2331 0008 B960     		str	r1, [r7, #8]
 2332 000a 7A60     		str	r2, [r7, #4]
1040:Generated_Source\PSoC4/CyDMA.c ****     uint32 regValue;
1041:Generated_Source\PSoC4/CyDMA.c ****     
1042:Generated_Source\PSoC4/CyDMA.c ****     CYASSERT((channel        >= 0) && (channel         <  CYDMA_CH_NR));
 2333              		.loc 1 1042 0
 2334 000c FB68     		ldr	r3, [r7, #12]
 2335 000e 002B     		cmp	r3, #0
 2336 0010 04DB     		blt	.L226
 2337              		.loc 1 1042 0 is_stmt 0 discriminator 1
 2338 0012 FB68     		ldr	r3, [r7, #12]
 2339 0014 1F2B     		cmp	r3, #31
 2340 0016 01DC     		bgt	.L226
 2341              		.loc 1 1042 0 discriminator 3
 2342 0018 0123     		mov	r3, #1
 2343 001a 00E0     		b	.L227
 2344              	.L226:
 2345              		.loc 1 1042 0 discriminator 4
 2346 001c 0023     		mov	r3, #0
 2347              	.L227:
 2348              		.loc 1 1042 0 discriminator 6
 2349 001e 002B     		cmp	r3, #0
 2350 0020 02D1     		bne	.L228
 2351              		.loc 1 1042 0 discriminator 7
 2352 0022 0020     		mov	r0, #0
 2353 0024 FFF7FEFF 		bl	CyHalt
 2354              	.L228:
1043:Generated_Source\PSoC4/CyDMA.c ****     CYASSERT((descriptor     >= 0) && (descriptor      <  CYDMA_DESCR_NR));
 2355              		.loc 1 1043 0 is_stmt 1
 2356 0028 BB68     		ldr	r3, [r7, #8]
 2357 002a 002B     		cmp	r3, #0
 2358 002c 04DB     		blt	.L229
 2359              		.loc 1 1043 0 is_stmt 0 discriminator 1
 2360 002e BB68     		ldr	r3, [r7, #8]
 2361 0030 012B     		cmp	r3, #1
 2362 0032 01DC     		bgt	.L229
 2363              		.loc 1 1043 0 discriminator 3
 2364 0034 0123     		mov	r3, #1
 2365 0036 00E0     		b	.L230
 2366              	.L229:
 2367              		.loc 1 1043 0 discriminator 4
ARM GAS  C:\Users\GREG~1.PHI\AppData\Local\Temp\cckB4vVc.s 			page 61


 2368 0038 0023     		mov	r3, #0
 2369              	.L230:
 2370              		.loc 1 1043 0 discriminator 6
 2371 003a 002B     		cmp	r3, #0
 2372 003c 02D1     		bne	.L231
 2373              		.loc 1 1043 0 discriminator 7
 2374 003e 0020     		mov	r0, #0
 2375 0040 FFF7FEFF 		bl	CyHalt
 2376              	.L231:
1044:Generated_Source\PSoC4/CyDMA.c ****     CYASSERT((numDataElements > 0) && (numDataElements <= CYDMA_MAX_DATA_NR));
 2377              		.loc 1 1044 0 is_stmt 1
 2378 0044 7B68     		ldr	r3, [r7, #4]
 2379 0046 002B     		cmp	r3, #0
 2380 0048 06DD     		ble	.L232
 2381              		.loc 1 1044 0 is_stmt 0 discriminator 1
 2382 004a 7A68     		ldr	r2, [r7, #4]
 2383 004c 8023     		mov	r3, #128
 2384 004e 5B02     		lsl	r3, r3, #9
 2385 0050 9A42     		cmp	r2, r3
 2386 0052 01DC     		bgt	.L232
 2387              		.loc 1 1044 0 discriminator 3
 2388 0054 0123     		mov	r3, #1
 2389 0056 00E0     		b	.L233
 2390              	.L232:
 2391              		.loc 1 1044 0 discriminator 4
 2392 0058 0023     		mov	r3, #0
 2393              	.L233:
 2394              		.loc 1 1044 0 discriminator 6
 2395 005a 002B     		cmp	r3, #0
 2396 005c 02D1     		bne	.L234
 2397              		.loc 1 1044 0 discriminator 7
 2398 005e 0020     		mov	r0, #0
 2399 0060 FFF7FEFF 		bl	CyHalt
 2400              	.L234:
1045:Generated_Source\PSoC4/CyDMA.c ****     
1046:Generated_Source\PSoC4/CyDMA.c ****     --numDataElements;
 2401              		.loc 1 1046 0 is_stmt 1
 2402 0064 7B68     		ldr	r3, [r7, #4]
 2403 0066 013B     		sub	r3, r3, #1
 2404 0068 7B60     		str	r3, [r7, #4]
1047:Generated_Source\PSoC4/CyDMA.c ****     regValue = CYDMA_DESCR_BASE.descriptor[channel][descriptor].ctl & (uint32)~CYDMA_DATA_NR;
 2405              		.loc 1 1047 0
 2406 006a 0D49     		ldr	r1, .L235
 2407 006c FB68     		ldr	r3, [r7, #12]
 2408 006e 5A00     		lsl	r2, r3, #1
 2409 0070 BB68     		ldr	r3, [r7, #8]
 2410 0072 D318     		add	r3, r2, r3
 2411 0074 1B01     		lsl	r3, r3, #4
 2412 0076 CB18     		add	r3, r1, r3
 2413 0078 0833     		add	r3, r3, #8
 2414 007a 1B68     		ldr	r3, [r3]
 2415 007c 1B0C     		lsr	r3, r3, #16
 2416 007e 1B04     		lsl	r3, r3, #16
 2417 0080 7B61     		str	r3, [r7, #20]
1048:Generated_Source\PSoC4/CyDMA.c ****     CYDMA_DESCR_BASE.descriptor[channel][descriptor].ctl = regValue | (uint32)numDataElements;
 2418              		.loc 1 1048 0
 2419 0082 0748     		ldr	r0, .L235
ARM GAS  C:\Users\GREG~1.PHI\AppData\Local\Temp\cckB4vVc.s 			page 62


 2420 0084 7A68     		ldr	r2, [r7, #4]
 2421 0086 7B69     		ldr	r3, [r7, #20]
 2422 0088 1A43     		orr	r2, r3
 2423 008a FB68     		ldr	r3, [r7, #12]
 2424 008c 5900     		lsl	r1, r3, #1
 2425 008e BB68     		ldr	r3, [r7, #8]
 2426 0090 CB18     		add	r3, r1, r3
 2427 0092 1B01     		lsl	r3, r3, #4
 2428 0094 C318     		add	r3, r0, r3
 2429 0096 0833     		add	r3, r3, #8
 2430 0098 1A60     		str	r2, [r3]
1049:Generated_Source\PSoC4/CyDMA.c **** }
 2431              		.loc 1 1049 0
 2432 009a BD46     		mov	sp, r7
 2433 009c 06B0     		add	sp, sp, #24
 2434              		@ sp needed
 2435 009e 80BD     		pop	{r7, pc}
 2436              	.L236:
 2437              		.align	2
 2438              	.L235:
 2439 00a0 00181040 		.word	1074796544
 2440              		.cfi_endproc
 2441              	.LFE35:
 2442              		.size	CyDmaSetNumDataElements, .-CyDmaSetNumDataElements
 2443              		.section	.text.CyDmaGetNumDataElements,"ax",%progbits
 2444              		.align	2
 2445              		.global	CyDmaGetNumDataElements
 2446              		.code	16
 2447              		.thumb_func
 2448              		.type	CyDmaGetNumDataElements, %function
 2449              	CyDmaGetNumDataElements:
 2450              	.LFB36:
1050:Generated_Source\PSoC4/CyDMA.c **** 
1051:Generated_Source\PSoC4/CyDMA.c **** 
1052:Generated_Source\PSoC4/CyDMA.c **** /*******************************************************************************
1053:Generated_Source\PSoC4/CyDMA.c **** * Function Name: CyDmaGetNumDataElements
1054:Generated_Source\PSoC4/CyDMA.c **** ********************************************************************************
1055:Generated_Source\PSoC4/CyDMA.c **** *
1056:Generated_Source\PSoC4/CyDMA.c **** * Summary:
1057:Generated_Source\PSoC4/CyDMA.c **** *  Returns the number of data elements to be transferred. Only reflects the
1058:Generated_Source\PSoC4/CyDMA.c **** *  value written by CyDmaSetNumDataElements() or CyDmaSetConfiguration(). This
1059:Generated_Source\PSoC4/CyDMA.c **** *  does not reflect how many elements have been transferred. For that
1060:Generated_Source\PSoC4/CyDMA.c **** *  information use the CyDmaGetDescriptorStatus() function.
1061:Generated_Source\PSoC4/CyDMA.c **** *
1062:Generated_Source\PSoC4/CyDMA.c **** * Parameters:
1063:Generated_Source\PSoC4/CyDMA.c **** *  channel:    Channel used by this function.
1064:Generated_Source\PSoC4/CyDMA.c **** *  descriptor: Descriptor (0 or 1) modified by this function.
1065:Generated_Source\PSoC4/CyDMA.c **** *                   
1066:Generated_Source\PSoC4/CyDMA.c **** * Return:
1067:Generated_Source\PSoC4/CyDMA.c **** *  Number of data elements to transfer.
1068:Generated_Source\PSoC4/CyDMA.c **** *
1069:Generated_Source\PSoC4/CyDMA.c **** *******************************************************************************/
1070:Generated_Source\PSoC4/CyDMA.c **** int32 CyDmaGetNumDataElements(int32 channel, int32 descriptor)
1071:Generated_Source\PSoC4/CyDMA.c **** {
 2451              		.loc 1 1071 0
 2452              		.cfi_startproc
 2453 0000 80B5     		push	{r7, lr}
ARM GAS  C:\Users\GREG~1.PHI\AppData\Local\Temp\cckB4vVc.s 			page 63


 2454              		.cfi_def_cfa_offset 8
 2455              		.cfi_offset 7, -8
 2456              		.cfi_offset 14, -4
 2457 0002 84B0     		sub	sp, sp, #16
 2458              		.cfi_def_cfa_offset 24
 2459 0004 00AF     		add	r7, sp, #0
 2460              		.cfi_def_cfa_register 7
 2461 0006 7860     		str	r0, [r7, #4]
 2462 0008 3960     		str	r1, [r7]
1072:Generated_Source\PSoC4/CyDMA.c ****     uint32 numElements;
1073:Generated_Source\PSoC4/CyDMA.c **** 
1074:Generated_Source\PSoC4/CyDMA.c ****     CYASSERT((channel    >= 0) && (channel    < CYDMA_CH_NR));
 2463              		.loc 1 1074 0
 2464 000a 7B68     		ldr	r3, [r7, #4]
 2465 000c 002B     		cmp	r3, #0
 2466 000e 04DB     		blt	.L238
 2467              		.loc 1 1074 0 is_stmt 0 discriminator 1
 2468 0010 7B68     		ldr	r3, [r7, #4]
 2469 0012 1F2B     		cmp	r3, #31
 2470 0014 01DC     		bgt	.L238
 2471              		.loc 1 1074 0 discriminator 3
 2472 0016 0123     		mov	r3, #1
 2473 0018 00E0     		b	.L239
 2474              	.L238:
 2475              		.loc 1 1074 0 discriminator 4
 2476 001a 0023     		mov	r3, #0
 2477              	.L239:
 2478              		.loc 1 1074 0 discriminator 6
 2479 001c 002B     		cmp	r3, #0
 2480 001e 02D1     		bne	.L240
 2481              		.loc 1 1074 0 discriminator 7
 2482 0020 0020     		mov	r0, #0
 2483 0022 FFF7FEFF 		bl	CyHalt
 2484              	.L240:
1075:Generated_Source\PSoC4/CyDMA.c ****     CYASSERT((descriptor >= 0) && (descriptor < CYDMA_DESCR_NR));
 2485              		.loc 1 1075 0 is_stmt 1
 2486 0026 3B68     		ldr	r3, [r7]
 2487 0028 002B     		cmp	r3, #0
 2488 002a 04DB     		blt	.L241
 2489              		.loc 1 1075 0 is_stmt 0 discriminator 1
 2490 002c 3B68     		ldr	r3, [r7]
 2491 002e 012B     		cmp	r3, #1
 2492 0030 01DC     		bgt	.L241
 2493              		.loc 1 1075 0 discriminator 3
 2494 0032 0123     		mov	r3, #1
 2495 0034 00E0     		b	.L242
 2496              	.L241:
 2497              		.loc 1 1075 0 discriminator 4
 2498 0036 0023     		mov	r3, #0
 2499              	.L242:
 2500              		.loc 1 1075 0 discriminator 6
 2501 0038 002B     		cmp	r3, #0
 2502 003a 02D1     		bne	.L243
 2503              		.loc 1 1075 0 discriminator 7
 2504 003c 0020     		mov	r0, #0
 2505 003e FFF7FEFF 		bl	CyHalt
 2506              	.L243:
ARM GAS  C:\Users\GREG~1.PHI\AppData\Local\Temp\cckB4vVc.s 			page 64


1076:Generated_Source\PSoC4/CyDMA.c ****     
1077:Generated_Source\PSoC4/CyDMA.c ****     numElements = (CYDMA_DESCR_BASE.descriptor[channel][descriptor].ctl & CYDMA_DATA_NR) + 1u;
 2507              		.loc 1 1077 0 is_stmt 1
 2508 0042 0949     		ldr	r1, .L245
 2509 0044 7B68     		ldr	r3, [r7, #4]
 2510 0046 5A00     		lsl	r2, r3, #1
 2511 0048 3B68     		ldr	r3, [r7]
 2512 004a D318     		add	r3, r2, r3
 2513 004c 1B01     		lsl	r3, r3, #4
 2514 004e CB18     		add	r3, r1, r3
 2515 0050 0833     		add	r3, r3, #8
 2516 0052 1B68     		ldr	r3, [r3]
 2517 0054 1B04     		lsl	r3, r3, #16
 2518 0056 1B0C     		lsr	r3, r3, #16
 2519 0058 0133     		add	r3, r3, #1
 2520 005a FB60     		str	r3, [r7, #12]
1078:Generated_Source\PSoC4/CyDMA.c ****     return ((int32)numElements);
 2521              		.loc 1 1078 0
 2522 005c FB68     		ldr	r3, [r7, #12]
1079:Generated_Source\PSoC4/CyDMA.c **** }
 2523              		.loc 1 1079 0
 2524 005e 181C     		mov	r0, r3
 2525 0060 BD46     		mov	sp, r7
 2526 0062 04B0     		add	sp, sp, #16
 2527              		@ sp needed
 2528 0064 80BD     		pop	{r7, pc}
 2529              	.L246:
 2530 0066 C046     		.align	2
 2531              	.L245:
 2532 0068 00181040 		.word	1074796544
 2533              		.cfi_endproc
 2534              	.LFE36:
 2535              		.size	CyDmaGetNumDataElements, .-CyDmaGetNumDataElements
 2536              		.section	.text.CyDmaSetSrcDstTransferWidth,"ax",%progbits
 2537              		.align	2
 2538              		.global	CyDmaSetSrcDstTransferWidth
 2539              		.code	16
 2540              		.thumb_func
 2541              		.type	CyDmaSetSrcDstTransferWidth, %function
 2542              	CyDmaSetSrcDstTransferWidth:
 2543              	.LFB37:
1080:Generated_Source\PSoC4/CyDMA.c **** 
1081:Generated_Source\PSoC4/CyDMA.c **** 
1082:Generated_Source\PSoC4/CyDMA.c **** /*******************************************************************************
1083:Generated_Source\PSoC4/CyDMA.c **** * Function Name: CyDmaSetSrcDstTransferWidth
1084:Generated_Source\PSoC4/CyDMA.c **** ********************************************************************************
1085:Generated_Source\PSoC4/CyDMA.c **** *
1086:Generated_Source\PSoC4/CyDMA.c **** * Summary:
1087:Generated_Source\PSoC4/CyDMA.c **** *  Sets the width of the source and destination. The DMA can either read and
1088:Generated_Source\PSoC4/CyDMA.c **** *  write data from the source and destination at the size specified by
1089:Generated_Source\PSoC4/CyDMA.c **** *  CyDmaSetDataElementSize() or by a word (4bytes). This also determines how
1090:Generated_Source\PSoC4/CyDMA.c **** *  many bytes the addresses are incremented if increment source and destination
1091:Generated_Source\PSoC4/CyDMA.c **** *  address are turned on.
1092:Generated_Source\PSoC4/CyDMA.c **** *
1093:Generated_Source\PSoC4/CyDMA.c **** * Parameters:
1094:Generated_Source\PSoC4/CyDMA.c **** *  channel:       Channel used by this function.
1095:Generated_Source\PSoC4/CyDMA.c **** *  descriptor:    Descriptor (0 or 1) modified by this function.
ARM GAS  C:\Users\GREG~1.PHI\AppData\Local\Temp\cckB4vVc.s 			page 65


1096:Generated_Source\PSoC4/CyDMA.c **** *  transferWidth: Specifies the source and destination widths. Refer to 
1097:Generated_Source\PSoC4/CyDMA.c **** *                 the API bit field definitions in CyDMA_P4.h or the API
1098:Generated_Source\PSoC4/CyDMA.c **** *                 description in the DMA channel datasheet for the parameter
1099:Generated_Source\PSoC4/CyDMA.c **** *                 options.
1100:Generated_Source\PSoC4/CyDMA.c **** *                   
1101:Generated_Source\PSoC4/CyDMA.c **** * Return:
1102:Generated_Source\PSoC4/CyDMA.c **** *  None.
1103:Generated_Source\PSoC4/CyDMA.c **** *
1104:Generated_Source\PSoC4/CyDMA.c **** * Side effect:
1105:Generated_Source\PSoC4/CyDMA.c **** *  This function should not be called when the specified descriptor is active
1106:Generated_Source\PSoC4/CyDMA.c **** *  in the DMA transfer engine. This can be checked by calling CyDmaGetStatus(). 
1107:Generated_Source\PSoC4/CyDMA.c **** *
1108:Generated_Source\PSoC4/CyDMA.c **** *******************************************************************************/
1109:Generated_Source\PSoC4/CyDMA.c **** void CyDmaSetSrcDstTransferWidth(int32 channel, int32 descriptor, uint32 transferWidth)
1110:Generated_Source\PSoC4/CyDMA.c **** {
 2544              		.loc 1 1110 0
 2545              		.cfi_startproc
 2546 0000 80B5     		push	{r7, lr}
 2547              		.cfi_def_cfa_offset 8
 2548              		.cfi_offset 7, -8
 2549              		.cfi_offset 14, -4
 2550 0002 86B0     		sub	sp, sp, #24
 2551              		.cfi_def_cfa_offset 32
 2552 0004 00AF     		add	r7, sp, #0
 2553              		.cfi_def_cfa_register 7
 2554 0006 F860     		str	r0, [r7, #12]
 2555 0008 B960     		str	r1, [r7, #8]
 2556 000a 7A60     		str	r2, [r7, #4]
1111:Generated_Source\PSoC4/CyDMA.c ****     uint32 regValue;
1112:Generated_Source\PSoC4/CyDMA.c **** 
1113:Generated_Source\PSoC4/CyDMA.c ****     CYASSERT((channel    >= 0) && (channel    < CYDMA_CH_NR));
 2557              		.loc 1 1113 0
 2558 000c FB68     		ldr	r3, [r7, #12]
 2559 000e 002B     		cmp	r3, #0
 2560 0010 04DB     		blt	.L248
 2561              		.loc 1 1113 0 is_stmt 0 discriminator 1
 2562 0012 FB68     		ldr	r3, [r7, #12]
 2563 0014 1F2B     		cmp	r3, #31
 2564 0016 01DC     		bgt	.L248
 2565              		.loc 1 1113 0 discriminator 3
 2566 0018 0123     		mov	r3, #1
 2567 001a 00E0     		b	.L249
 2568              	.L248:
 2569              		.loc 1 1113 0 discriminator 4
 2570 001c 0023     		mov	r3, #0
 2571              	.L249:
 2572              		.loc 1 1113 0 discriminator 6
 2573 001e 002B     		cmp	r3, #0
 2574 0020 02D1     		bne	.L250
 2575              		.loc 1 1113 0 discriminator 7
 2576 0022 0020     		mov	r0, #0
 2577 0024 FFF7FEFF 		bl	CyHalt
 2578              	.L250:
1114:Generated_Source\PSoC4/CyDMA.c ****     CYASSERT((descriptor >= 0) && (descriptor < CYDMA_DESCR_NR));
 2579              		.loc 1 1114 0 is_stmt 1
 2580 0028 BB68     		ldr	r3, [r7, #8]
 2581 002a 002B     		cmp	r3, #0
ARM GAS  C:\Users\GREG~1.PHI\AppData\Local\Temp\cckB4vVc.s 			page 66


 2582 002c 04DB     		blt	.L251
 2583              		.loc 1 1114 0 is_stmt 0 discriminator 1
 2584 002e BB68     		ldr	r3, [r7, #8]
 2585 0030 012B     		cmp	r3, #1
 2586 0032 01DC     		bgt	.L251
 2587              		.loc 1 1114 0 discriminator 3
 2588 0034 0123     		mov	r3, #1
 2589 0036 00E0     		b	.L252
 2590              	.L251:
 2591              		.loc 1 1114 0 discriminator 4
 2592 0038 0023     		mov	r3, #0
 2593              	.L252:
 2594              		.loc 1 1114 0 discriminator 6
 2595 003a 002B     		cmp	r3, #0
 2596 003c 02D1     		bne	.L253
 2597              		.loc 1 1114 0 discriminator 7
 2598 003e 0020     		mov	r0, #0
 2599 0040 FFF7FEFF 		bl	CyHalt
 2600              	.L253:
1115:Generated_Source\PSoC4/CyDMA.c ****     CYASSERT(0u == (transferWidth & (uint32)~CYDMA_TRANSFER_WIDTH));
 2601              		.loc 1 1115 0 is_stmt 1
 2602 0044 7B68     		ldr	r3, [r7, #4]
 2603 0046 104A     		ldr	r2, .L255
 2604 0048 1340     		and	r3, r2
 2605 004a 02D0     		beq	.L254
 2606              		.loc 1 1115 0 is_stmt 0 discriminator 1
 2607 004c 0020     		mov	r0, #0
 2608 004e FFF7FEFF 		bl	CyHalt
 2609              	.L254:
1116:Generated_Source\PSoC4/CyDMA.c **** 
1117:Generated_Source\PSoC4/CyDMA.c ****     regValue = CYDMA_DESCR_BASE.descriptor[channel][descriptor].ctl & (uint32)~CYDMA_TRANSFER_WIDTH
 2610              		.loc 1 1117 0 is_stmt 1
 2611 0052 0E49     		ldr	r1, .L255+4
 2612 0054 FB68     		ldr	r3, [r7, #12]
 2613 0056 5A00     		lsl	r2, r3, #1
 2614 0058 BB68     		ldr	r3, [r7, #8]
 2615 005a D318     		add	r3, r2, r3
 2616 005c 1B01     		lsl	r3, r3, #4
 2617 005e CB18     		add	r3, r1, r3
 2618 0060 0833     		add	r3, r3, #8
 2619 0062 1B68     		ldr	r3, [r3]
 2620 0064 084A     		ldr	r2, .L255
 2621 0066 1340     		and	r3, r2
 2622 0068 7B61     		str	r3, [r7, #20]
1118:Generated_Source\PSoC4/CyDMA.c ****     CYDMA_DESCR_BASE.descriptor[channel][descriptor].ctl = regValue | transferWidth;
 2623              		.loc 1 1118 0
 2624 006a 0848     		ldr	r0, .L255+4
 2625 006c 7A69     		ldr	r2, [r7, #20]
 2626 006e 7B68     		ldr	r3, [r7, #4]
 2627 0070 1A43     		orr	r2, r3
 2628 0072 FB68     		ldr	r3, [r7, #12]
 2629 0074 5900     		lsl	r1, r3, #1
 2630 0076 BB68     		ldr	r3, [r7, #8]
 2631 0078 CB18     		add	r3, r1, r3
 2632 007a 1B01     		lsl	r3, r3, #4
 2633 007c C318     		add	r3, r0, r3
 2634 007e 0833     		add	r3, r3, #8
ARM GAS  C:\Users\GREG~1.PHI\AppData\Local\Temp\cckB4vVc.s 			page 67


 2635 0080 1A60     		str	r2, [r3]
1119:Generated_Source\PSoC4/CyDMA.c **** }
 2636              		.loc 1 1119 0
 2637 0082 BD46     		mov	sp, r7
 2638 0084 06B0     		add	sp, sp, #24
 2639              		@ sp needed
 2640 0086 80BD     		pop	{r7, pc}
 2641              	.L256:
 2642              		.align	2
 2643              	.L255:
 2644 0088 FFFFAFFF 		.word	-5242881
 2645 008c 00181040 		.word	1074796544
 2646              		.cfi_endproc
 2647              	.LFE37:
 2648              		.size	CyDmaSetSrcDstTransferWidth, .-CyDmaSetSrcDstTransferWidth
 2649              		.section	.text.CyDmaGetSrcDstTransferWidth,"ax",%progbits
 2650              		.align	2
 2651              		.global	CyDmaGetSrcDstTransferWidth
 2652              		.code	16
 2653              		.thumb_func
 2654              		.type	CyDmaGetSrcDstTransferWidth, %function
 2655              	CyDmaGetSrcDstTransferWidth:
 2656              	.LFB38:
1120:Generated_Source\PSoC4/CyDMA.c **** 
1121:Generated_Source\PSoC4/CyDMA.c **** 
1122:Generated_Source\PSoC4/CyDMA.c **** /*******************************************************************************
1123:Generated_Source\PSoC4/CyDMA.c **** * Function Name: CyDmaGetSrcDstTransferWidth
1124:Generated_Source\PSoC4/CyDMA.c **** ********************************************************************************
1125:Generated_Source\PSoC4/CyDMA.c **** *
1126:Generated_Source\PSoC4/CyDMA.c **** * Summary:
1127:Generated_Source\PSoC4/CyDMA.c **** *  Returns the width of the source and destination, as set by 
1128:Generated_Source\PSoC4/CyDMA.c **** *  CyDmaSetSrcDstTransferWidth() or CyDmaSetConfiguration().
1129:Generated_Source\PSoC4/CyDMA.c **** *
1130:Generated_Source\PSoC4/CyDMA.c **** * Parameters:
1131:Generated_Source\PSoC4/CyDMA.c **** *  channel:    Channel used by this function.
1132:Generated_Source\PSoC4/CyDMA.c **** *  descriptor: Descriptor (0 or 1) modified by this function.
1133:Generated_Source\PSoC4/CyDMA.c **** *                   
1134:Generated_Source\PSoC4/CyDMA.c **** * Return:
1135:Generated_Source\PSoC4/CyDMA.c **** *  Width of source and destination. Refer to the API bit field definitions in
1136:Generated_Source\PSoC4/CyDMA.c **** *  CyDMA_P4.h or the API description in the DMA channel datasheet for more
1137:Generated_Source\PSoC4/CyDMA.c **** *  information.
1138:Generated_Source\PSoC4/CyDMA.c **** *
1139:Generated_Source\PSoC4/CyDMA.c **** *******************************************************************************/
1140:Generated_Source\PSoC4/CyDMA.c **** uint32 CyDmaGetSrcDstTransferWidth(int32 channel, int32 descriptor)
1141:Generated_Source\PSoC4/CyDMA.c **** {
 2657              		.loc 1 1141 0
 2658              		.cfi_startproc
 2659 0000 80B5     		push	{r7, lr}
 2660              		.cfi_def_cfa_offset 8
 2661              		.cfi_offset 7, -8
 2662              		.cfi_offset 14, -4
 2663 0002 82B0     		sub	sp, sp, #8
 2664              		.cfi_def_cfa_offset 16
 2665 0004 00AF     		add	r7, sp, #0
 2666              		.cfi_def_cfa_register 7
 2667 0006 7860     		str	r0, [r7, #4]
 2668 0008 3960     		str	r1, [r7]
ARM GAS  C:\Users\GREG~1.PHI\AppData\Local\Temp\cckB4vVc.s 			page 68


1142:Generated_Source\PSoC4/CyDMA.c ****     CYASSERT((channel    >= 0) && (channel    < CYDMA_CH_NR));
 2669              		.loc 1 1142 0
 2670 000a 7B68     		ldr	r3, [r7, #4]
 2671 000c 002B     		cmp	r3, #0
 2672 000e 04DB     		blt	.L258
 2673              		.loc 1 1142 0 is_stmt 0 discriminator 1
 2674 0010 7B68     		ldr	r3, [r7, #4]
 2675 0012 1F2B     		cmp	r3, #31
 2676 0014 01DC     		bgt	.L258
 2677              		.loc 1 1142 0 discriminator 3
 2678 0016 0123     		mov	r3, #1
 2679 0018 00E0     		b	.L259
 2680              	.L258:
 2681              		.loc 1 1142 0 discriminator 4
 2682 001a 0023     		mov	r3, #0
 2683              	.L259:
 2684              		.loc 1 1142 0 discriminator 6
 2685 001c 002B     		cmp	r3, #0
 2686 001e 02D1     		bne	.L260
 2687              		.loc 1 1142 0 discriminator 7
 2688 0020 0020     		mov	r0, #0
 2689 0022 FFF7FEFF 		bl	CyHalt
 2690              	.L260:
1143:Generated_Source\PSoC4/CyDMA.c ****     CYASSERT((descriptor >= 0) && (descriptor < CYDMA_DESCR_NR));
 2691              		.loc 1 1143 0 is_stmt 1
 2692 0026 3B68     		ldr	r3, [r7]
 2693 0028 002B     		cmp	r3, #0
 2694 002a 04DB     		blt	.L261
 2695              		.loc 1 1143 0 is_stmt 0 discriminator 1
 2696 002c 3B68     		ldr	r3, [r7]
 2697 002e 012B     		cmp	r3, #1
 2698 0030 01DC     		bgt	.L261
 2699              		.loc 1 1143 0 discriminator 3
 2700 0032 0123     		mov	r3, #1
 2701 0034 00E0     		b	.L262
 2702              	.L261:
 2703              		.loc 1 1143 0 discriminator 4
 2704 0036 0023     		mov	r3, #0
 2705              	.L262:
 2706              		.loc 1 1143 0 discriminator 6
 2707 0038 002B     		cmp	r3, #0
 2708 003a 02D1     		bne	.L263
 2709              		.loc 1 1143 0 discriminator 7
 2710 003c 0020     		mov	r0, #0
 2711 003e FFF7FEFF 		bl	CyHalt
 2712              	.L263:
1144:Generated_Source\PSoC4/CyDMA.c ****     return (CYDMA_DESCR_BASE.descriptor[channel][descriptor].ctl & CYDMA_TRANSFER_WIDTH);
 2713              		.loc 1 1144 0 is_stmt 1
 2714 0042 0849     		ldr	r1, .L265
 2715 0044 7B68     		ldr	r3, [r7, #4]
 2716 0046 5A00     		lsl	r2, r3, #1
 2717 0048 3B68     		ldr	r3, [r7]
 2718 004a D318     		add	r3, r2, r3
 2719 004c 1B01     		lsl	r3, r3, #4
 2720 004e CB18     		add	r3, r1, r3
 2721 0050 0833     		add	r3, r3, #8
 2722 0052 1A68     		ldr	r2, [r3]
ARM GAS  C:\Users\GREG~1.PHI\AppData\Local\Temp\cckB4vVc.s 			page 69


 2723 0054 A023     		mov	r3, #160
 2724 0056 DB03     		lsl	r3, r3, #15
 2725 0058 1340     		and	r3, r2
1145:Generated_Source\PSoC4/CyDMA.c **** }
 2726              		.loc 1 1145 0
 2727 005a 181C     		mov	r0, r3
 2728 005c BD46     		mov	sp, r7
 2729 005e 02B0     		add	sp, sp, #8
 2730              		@ sp needed
 2731 0060 80BD     		pop	{r7, pc}
 2732              	.L266:
 2733 0062 C046     		.align	2
 2734              	.L265:
 2735 0064 00181040 		.word	1074796544
 2736              		.cfi_endproc
 2737              	.LFE38:
 2738              		.size	CyDmaGetSrcDstTransferWidth, .-CyDmaGetSrcDstTransferWidth
 2739              		.section	.text.CyDmaSetAddressIncrement,"ax",%progbits
 2740              		.align	2
 2741              		.global	CyDmaSetAddressIncrement
 2742              		.code	16
 2743              		.thumb_func
 2744              		.type	CyDmaSetAddressIncrement, %function
 2745              	CyDmaSetAddressIncrement:
 2746              	.LFB39:
1146:Generated_Source\PSoC4/CyDMA.c **** 
1147:Generated_Source\PSoC4/CyDMA.c **** 
1148:Generated_Source\PSoC4/CyDMA.c **** /*******************************************************************************
1149:Generated_Source\PSoC4/CyDMA.c **** * Function Name: CyDmaSetAddressIncrement
1150:Generated_Source\PSoC4/CyDMA.c **** ********************************************************************************
1151:Generated_Source\PSoC4/CyDMA.c **** *
1152:Generated_Source\PSoC4/CyDMA.c **** * Summary:
1153:Generated_Source\PSoC4/CyDMA.c **** *  Sets whether the source or destination addresses are incremented after the
1154:Generated_Source\PSoC4/CyDMA.c **** *  transfer of each data element. The amount that the source and destination
1155:Generated_Source\PSoC4/CyDMA.c **** *  address are incremented is determined by the CyDmaSetSrcDstTransferWidth()
1156:Generated_Source\PSoC4/CyDMA.c **** *  function. The addresses will either be incremented by the data element size
1157:Generated_Source\PSoC4/CyDMA.c **** *  or by a word (4 bytes).
1158:Generated_Source\PSoC4/CyDMA.c **** *
1159:Generated_Source\PSoC4/CyDMA.c **** * Parameters:
1160:Generated_Source\PSoC4/CyDMA.c **** *  channel:          Channel used by this function.
1161:Generated_Source\PSoC4/CyDMA.c **** *  descriptor:       Descriptor (0 or 1) modified by this function.
1162:Generated_Source\PSoC4/CyDMA.c **** *  addressIncrement: Address increment settings. Refer to the API bit fields 
1163:Generated_Source\PSoC4/CyDMA.c **** *                    definition in CyDMA_P4.h or the API description in the DMA
1164:Generated_Source\PSoC4/CyDMA.c **** *                    channel datasheet for the parameter options.
1165:Generated_Source\PSoC4/CyDMA.c **** *    
1166:Generated_Source\PSoC4/CyDMA.c **** * Return:
1167:Generated_Source\PSoC4/CyDMA.c **** *  None.
1168:Generated_Source\PSoC4/CyDMA.c **** *
1169:Generated_Source\PSoC4/CyDMA.c **** * Side effect:
1170:Generated_Source\PSoC4/CyDMA.c **** *  This function should not be called when the specified descriptor is active
1171:Generated_Source\PSoC4/CyDMA.c **** *  in the DMA transfer engine. This can be checked by calling CyDmaGetStatus(). 
1172:Generated_Source\PSoC4/CyDMA.c **** *
1173:Generated_Source\PSoC4/CyDMA.c **** *******************************************************************************/
1174:Generated_Source\PSoC4/CyDMA.c **** void CyDmaSetAddressIncrement(int32 channel, int32 descriptor, uint32 addressIncrement)
1175:Generated_Source\PSoC4/CyDMA.c **** {
 2747              		.loc 1 1175 0
 2748              		.cfi_startproc
ARM GAS  C:\Users\GREG~1.PHI\AppData\Local\Temp\cckB4vVc.s 			page 70


 2749 0000 80B5     		push	{r7, lr}
 2750              		.cfi_def_cfa_offset 8
 2751              		.cfi_offset 7, -8
 2752              		.cfi_offset 14, -4
 2753 0002 86B0     		sub	sp, sp, #24
 2754              		.cfi_def_cfa_offset 32
 2755 0004 00AF     		add	r7, sp, #0
 2756              		.cfi_def_cfa_register 7
 2757 0006 F860     		str	r0, [r7, #12]
 2758 0008 B960     		str	r1, [r7, #8]
 2759 000a 7A60     		str	r2, [r7, #4]
1176:Generated_Source\PSoC4/CyDMA.c ****     uint32 regValue;
1177:Generated_Source\PSoC4/CyDMA.c **** 
1178:Generated_Source\PSoC4/CyDMA.c ****     CYASSERT((channel    >= 0) && (channel    < CYDMA_CH_NR));
 2760              		.loc 1 1178 0
 2761 000c FB68     		ldr	r3, [r7, #12]
 2762 000e 002B     		cmp	r3, #0
 2763 0010 04DB     		blt	.L268
 2764              		.loc 1 1178 0 is_stmt 0 discriminator 1
 2765 0012 FB68     		ldr	r3, [r7, #12]
 2766 0014 1F2B     		cmp	r3, #31
 2767 0016 01DC     		bgt	.L268
 2768              		.loc 1 1178 0 discriminator 3
 2769 0018 0123     		mov	r3, #1
 2770 001a 00E0     		b	.L269
 2771              	.L268:
 2772              		.loc 1 1178 0 discriminator 4
 2773 001c 0023     		mov	r3, #0
 2774              	.L269:
 2775              		.loc 1 1178 0 discriminator 6
 2776 001e 002B     		cmp	r3, #0
 2777 0020 02D1     		bne	.L270
 2778              		.loc 1 1178 0 discriminator 7
 2779 0022 0020     		mov	r0, #0
 2780 0024 FFF7FEFF 		bl	CyHalt
 2781              	.L270:
1179:Generated_Source\PSoC4/CyDMA.c ****     CYASSERT((descriptor >= 0) && (descriptor < CYDMA_DESCR_NR));
 2782              		.loc 1 1179 0 is_stmt 1
 2783 0028 BB68     		ldr	r3, [r7, #8]
 2784 002a 002B     		cmp	r3, #0
 2785 002c 04DB     		blt	.L271
 2786              		.loc 1 1179 0 is_stmt 0 discriminator 1
 2787 002e BB68     		ldr	r3, [r7, #8]
 2788 0030 012B     		cmp	r3, #1
 2789 0032 01DC     		bgt	.L271
 2790              		.loc 1 1179 0 discriminator 3
 2791 0034 0123     		mov	r3, #1
 2792 0036 00E0     		b	.L272
 2793              	.L271:
 2794              		.loc 1 1179 0 discriminator 4
 2795 0038 0023     		mov	r3, #0
 2796              	.L272:
 2797              		.loc 1 1179 0 discriminator 6
 2798 003a 002B     		cmp	r3, #0
 2799 003c 02D1     		bne	.L273
 2800              		.loc 1 1179 0 discriminator 7
 2801 003e 0020     		mov	r0, #0
ARM GAS  C:\Users\GREG~1.PHI\AppData\Local\Temp\cckB4vVc.s 			page 71


 2802 0040 FFF7FEFF 		bl	CyHalt
 2803              	.L273:
1180:Generated_Source\PSoC4/CyDMA.c ****     CYASSERT(0u == (addressIncrement & (uint32)~CYDMA_ADDR_INCR));
 2804              		.loc 1 1180 0 is_stmt 1
 2805 0044 7B68     		ldr	r3, [r7, #4]
 2806 0046 104A     		ldr	r2, .L275
 2807 0048 1340     		and	r3, r2
 2808 004a 02D0     		beq	.L274
 2809              		.loc 1 1180 0 is_stmt 0 discriminator 1
 2810 004c 0020     		mov	r0, #0
 2811 004e FFF7FEFF 		bl	CyHalt
 2812              	.L274:
1181:Generated_Source\PSoC4/CyDMA.c **** 
1182:Generated_Source\PSoC4/CyDMA.c ****     regValue = CYDMA_DESCR_BASE.descriptor[channel][descriptor].ctl & (uint32)~CYDMA_ADDR_INCR;
 2813              		.loc 1 1182 0 is_stmt 1
 2814 0052 0E49     		ldr	r1, .L275+4
 2815 0054 FB68     		ldr	r3, [r7, #12]
 2816 0056 5A00     		lsl	r2, r3, #1
 2817 0058 BB68     		ldr	r3, [r7, #8]
 2818 005a D318     		add	r3, r2, r3
 2819 005c 1B01     		lsl	r3, r3, #4
 2820 005e CB18     		add	r3, r1, r3
 2821 0060 0833     		add	r3, r3, #8
 2822 0062 1B68     		ldr	r3, [r3]
 2823 0064 084A     		ldr	r2, .L275
 2824 0066 1340     		and	r3, r2
 2825 0068 7B61     		str	r3, [r7, #20]
1183:Generated_Source\PSoC4/CyDMA.c ****     CYDMA_DESCR_BASE.descriptor[channel][descriptor].ctl = regValue | addressIncrement;
 2826              		.loc 1 1183 0
 2827 006a 0848     		ldr	r0, .L275+4
 2828 006c 7A69     		ldr	r2, [r7, #20]
 2829 006e 7B68     		ldr	r3, [r7, #4]
 2830 0070 1A43     		orr	r2, r3
 2831 0072 FB68     		ldr	r3, [r7, #12]
 2832 0074 5900     		lsl	r1, r3, #1
 2833 0076 BB68     		ldr	r3, [r7, #8]
 2834 0078 CB18     		add	r3, r1, r3
 2835 007a 1B01     		lsl	r3, r3, #4
 2836 007c C318     		add	r3, r0, r3
 2837 007e 0833     		add	r3, r3, #8
 2838 0080 1A60     		str	r2, [r3]
1184:Generated_Source\PSoC4/CyDMA.c **** }
 2839              		.loc 1 1184 0
 2840 0082 BD46     		mov	sp, r7
 2841 0084 06B0     		add	sp, sp, #24
 2842              		@ sp needed
 2843 0086 80BD     		pop	{r7, pc}
 2844              	.L276:
 2845              		.align	2
 2846              	.L275:
 2847 0088 FFFF5FFF 		.word	-10485761
 2848 008c 00181040 		.word	1074796544
 2849              		.cfi_endproc
 2850              	.LFE39:
 2851              		.size	CyDmaSetAddressIncrement, .-CyDmaSetAddressIncrement
 2852              		.section	.text.CyDmaGetAddressIncrement,"ax",%progbits
 2853              		.align	2
ARM GAS  C:\Users\GREG~1.PHI\AppData\Local\Temp\cckB4vVc.s 			page 72


 2854              		.global	CyDmaGetAddressIncrement
 2855              		.code	16
 2856              		.thumb_func
 2857              		.type	CyDmaGetAddressIncrement, %function
 2858              	CyDmaGetAddressIncrement:
 2859              	.LFB40:
1185:Generated_Source\PSoC4/CyDMA.c **** 
1186:Generated_Source\PSoC4/CyDMA.c **** 
1187:Generated_Source\PSoC4/CyDMA.c **** /*******************************************************************************
1188:Generated_Source\PSoC4/CyDMA.c **** * Function Name: CyDmaGetAddressIncrement
1189:Generated_Source\PSoC4/CyDMA.c **** ********************************************************************************
1190:Generated_Source\PSoC4/CyDMA.c **** *
1191:Generated_Source\PSoC4/CyDMA.c **** * Summary:
1192:Generated_Source\PSoC4/CyDMA.c **** *  Returns address increment settings as set by CyDmaSetAddressIncrement() or
1193:Generated_Source\PSoC4/CyDMA.c **** *  CyDmaSetConfiguration().
1194:Generated_Source\PSoC4/CyDMA.c **** *
1195:Generated_Source\PSoC4/CyDMA.c **** * Parameters:
1196:Generated_Source\PSoC4/CyDMA.c **** *  channel:    Channel used by this function.
1197:Generated_Source\PSoC4/CyDMA.c **** *  descriptor: Descriptor (0 or 1) modified by this function.
1198:Generated_Source\PSoC4/CyDMA.c **** *                   
1199:Generated_Source\PSoC4/CyDMA.c **** * Return:
1200:Generated_Source\PSoC4/CyDMA.c **** *  Address increment settings. Refer to the API bit field definitions in
1201:Generated_Source\PSoC4/CyDMA.c **** *  CyDMA_P4.h or the API description in the DMA channel datasheet for more
1202:Generated_Source\PSoC4/CyDMA.c **** *  information.
1203:Generated_Source\PSoC4/CyDMA.c **** *
1204:Generated_Source\PSoC4/CyDMA.c **** *******************************************************************************/
1205:Generated_Source\PSoC4/CyDMA.c **** uint32 CyDmaGetAddressIncrement(int32 channel, int32 descriptor)
1206:Generated_Source\PSoC4/CyDMA.c **** {
 2860              		.loc 1 1206 0
 2861              		.cfi_startproc
 2862 0000 80B5     		push	{r7, lr}
 2863              		.cfi_def_cfa_offset 8
 2864              		.cfi_offset 7, -8
 2865              		.cfi_offset 14, -4
 2866 0002 82B0     		sub	sp, sp, #8
 2867              		.cfi_def_cfa_offset 16
 2868 0004 00AF     		add	r7, sp, #0
 2869              		.cfi_def_cfa_register 7
 2870 0006 7860     		str	r0, [r7, #4]
 2871 0008 3960     		str	r1, [r7]
1207:Generated_Source\PSoC4/CyDMA.c ****     CYASSERT((channel    >= 0) && (channel    < CYDMA_CH_NR));
 2872              		.loc 1 1207 0
 2873 000a 7B68     		ldr	r3, [r7, #4]
 2874 000c 002B     		cmp	r3, #0
 2875 000e 04DB     		blt	.L278
 2876              		.loc 1 1207 0 is_stmt 0 discriminator 1
 2877 0010 7B68     		ldr	r3, [r7, #4]
 2878 0012 1F2B     		cmp	r3, #31
 2879 0014 01DC     		bgt	.L278
 2880              		.loc 1 1207 0 discriminator 3
 2881 0016 0123     		mov	r3, #1
 2882 0018 00E0     		b	.L279
 2883              	.L278:
 2884              		.loc 1 1207 0 discriminator 4
 2885 001a 0023     		mov	r3, #0
 2886              	.L279:
 2887              		.loc 1 1207 0 discriminator 6
ARM GAS  C:\Users\GREG~1.PHI\AppData\Local\Temp\cckB4vVc.s 			page 73


 2888 001c 002B     		cmp	r3, #0
 2889 001e 02D1     		bne	.L280
 2890              		.loc 1 1207 0 discriminator 7
 2891 0020 0020     		mov	r0, #0
 2892 0022 FFF7FEFF 		bl	CyHalt
 2893              	.L280:
1208:Generated_Source\PSoC4/CyDMA.c ****     CYASSERT((descriptor >= 0) && (descriptor < CYDMA_DESCR_NR));
 2894              		.loc 1 1208 0 is_stmt 1
 2895 0026 3B68     		ldr	r3, [r7]
 2896 0028 002B     		cmp	r3, #0
 2897 002a 04DB     		blt	.L281
 2898              		.loc 1 1208 0 is_stmt 0 discriminator 1
 2899 002c 3B68     		ldr	r3, [r7]
 2900 002e 012B     		cmp	r3, #1
 2901 0030 01DC     		bgt	.L281
 2902              		.loc 1 1208 0 discriminator 3
 2903 0032 0123     		mov	r3, #1
 2904 0034 00E0     		b	.L282
 2905              	.L281:
 2906              		.loc 1 1208 0 discriminator 4
 2907 0036 0023     		mov	r3, #0
 2908              	.L282:
 2909              		.loc 1 1208 0 discriminator 6
 2910 0038 002B     		cmp	r3, #0
 2911 003a 02D1     		bne	.L283
 2912              		.loc 1 1208 0 discriminator 7
 2913 003c 0020     		mov	r0, #0
 2914 003e FFF7FEFF 		bl	CyHalt
 2915              	.L283:
1209:Generated_Source\PSoC4/CyDMA.c **** 
1210:Generated_Source\PSoC4/CyDMA.c ****     return (CYDMA_DESCR_BASE.descriptor[channel][descriptor].ctl & CYDMA_ADDR_INCR);
 2916              		.loc 1 1210 0 is_stmt 1
 2917 0042 0849     		ldr	r1, .L285
 2918 0044 7B68     		ldr	r3, [r7, #4]
 2919 0046 5A00     		lsl	r2, r3, #1
 2920 0048 3B68     		ldr	r3, [r7]
 2921 004a D318     		add	r3, r2, r3
 2922 004c 1B01     		lsl	r3, r3, #4
 2923 004e CB18     		add	r3, r1, r3
 2924 0050 0833     		add	r3, r3, #8
 2925 0052 1A68     		ldr	r2, [r3]
 2926 0054 A023     		mov	r3, #160
 2927 0056 1B04     		lsl	r3, r3, #16
 2928 0058 1340     		and	r3, r2
1211:Generated_Source\PSoC4/CyDMA.c **** }
 2929              		.loc 1 1211 0
 2930 005a 181C     		mov	r0, r3
 2931 005c BD46     		mov	sp, r7
 2932 005e 02B0     		add	sp, sp, #8
 2933              		@ sp needed
 2934 0060 80BD     		pop	{r7, pc}
 2935              	.L286:
 2936 0062 C046     		.align	2
 2937              	.L285:
 2938 0064 00181040 		.word	1074796544
 2939              		.cfi_endproc
 2940              	.LFE40:
ARM GAS  C:\Users\GREG~1.PHI\AppData\Local\Temp\cckB4vVc.s 			page 74


 2941              		.size	CyDmaGetAddressIncrement, .-CyDmaGetAddressIncrement
 2942              		.section	.text.CyDmaSetTriggerType,"ax",%progbits
 2943              		.align	2
 2944              		.global	CyDmaSetTriggerType
 2945              		.code	16
 2946              		.thumb_func
 2947              		.type	CyDmaSetTriggerType, %function
 2948              	CyDmaSetTriggerType:
 2949              	.LFB41:
1212:Generated_Source\PSoC4/CyDMA.c **** 
1213:Generated_Source\PSoC4/CyDMA.c **** 
1214:Generated_Source\PSoC4/CyDMA.c **** /*******************************************************************************
1215:Generated_Source\PSoC4/CyDMA.c **** * Function Name: CyDmaSetTriggerType
1216:Generated_Source\PSoC4/CyDMA.c **** ********************************************************************************
1217:Generated_Source\PSoC4/CyDMA.c **** *
1218:Generated_Source\PSoC4/CyDMA.c **** * Summary:
1219:Generated_Source\PSoC4/CyDMA.c **** *  Sets the type of input trigger for the DMA For level sensitive triggers sets
1220:Generated_Source\PSoC4/CyDMA.c **** *  how long the DMA waits for the trigger to go low (deactivate) before
1221:Generated_Source\PSoC4/CyDMA.c **** *  triggering the channel again.
1222:Generated_Source\PSoC4/CyDMA.c **** *
1223:Generated_Source\PSoC4/CyDMA.c **** * Parameters:
1224:Generated_Source\PSoC4/CyDMA.c **** *  channel:     Channel used by this function.
1225:Generated_Source\PSoC4/CyDMA.c **** *  descriptor:  Descriptor (0 or 1) modified by this function.
1226:Generated_Source\PSoC4/CyDMA.c **** *  triggerType: Type of DMA trigger. Refer to the API bit field definitions
1227:Generated_Source\PSoC4/CyDMA.c **** *               in CyDMA_P4.h or the API description in the DMA channel
1228:Generated_Source\PSoC4/CyDMA.c **** *               datasheet for the parameter options.
1229:Generated_Source\PSoC4/CyDMA.c **** *                   
1230:Generated_Source\PSoC4/CyDMA.c **** * Return:
1231:Generated_Source\PSoC4/CyDMA.c **** *  None.
1232:Generated_Source\PSoC4/CyDMA.c **** *
1233:Generated_Source\PSoC4/CyDMA.c **** * Side effect:
1234:Generated_Source\PSoC4/CyDMA.c **** *  This function should not be called when the specified descriptor is active
1235:Generated_Source\PSoC4/CyDMA.c **** *  in the DMA transfer engine. This can be checked by calling CyDmaGetStatus(). 
1236:Generated_Source\PSoC4/CyDMA.c **** *
1237:Generated_Source\PSoC4/CyDMA.c **** *******************************************************************************/
1238:Generated_Source\PSoC4/CyDMA.c **** void CyDmaSetTriggerType(int32 channel, int32 descriptor, uint32 triggerType)
1239:Generated_Source\PSoC4/CyDMA.c **** {
 2950              		.loc 1 1239 0
 2951              		.cfi_startproc
 2952 0000 80B5     		push	{r7, lr}
 2953              		.cfi_def_cfa_offset 8
 2954              		.cfi_offset 7, -8
 2955              		.cfi_offset 14, -4
 2956 0002 86B0     		sub	sp, sp, #24
 2957              		.cfi_def_cfa_offset 32
 2958 0004 00AF     		add	r7, sp, #0
 2959              		.cfi_def_cfa_register 7
 2960 0006 F860     		str	r0, [r7, #12]
 2961 0008 B960     		str	r1, [r7, #8]
 2962 000a 7A60     		str	r2, [r7, #4]
1240:Generated_Source\PSoC4/CyDMA.c ****     uint32 regValue;
1241:Generated_Source\PSoC4/CyDMA.c **** 
1242:Generated_Source\PSoC4/CyDMA.c ****     CYASSERT((channel    >= 0) && (channel    < CYDMA_CH_NR));
 2963              		.loc 1 1242 0
 2964 000c FB68     		ldr	r3, [r7, #12]
 2965 000e 002B     		cmp	r3, #0
 2966 0010 04DB     		blt	.L288
ARM GAS  C:\Users\GREG~1.PHI\AppData\Local\Temp\cckB4vVc.s 			page 75


 2967              		.loc 1 1242 0 is_stmt 0 discriminator 1
 2968 0012 FB68     		ldr	r3, [r7, #12]
 2969 0014 1F2B     		cmp	r3, #31
 2970 0016 01DC     		bgt	.L288
 2971              		.loc 1 1242 0 discriminator 3
 2972 0018 0123     		mov	r3, #1
 2973 001a 00E0     		b	.L289
 2974              	.L288:
 2975              		.loc 1 1242 0 discriminator 4
 2976 001c 0023     		mov	r3, #0
 2977              	.L289:
 2978              		.loc 1 1242 0 discriminator 6
 2979 001e 002B     		cmp	r3, #0
 2980 0020 02D1     		bne	.L290
 2981              		.loc 1 1242 0 discriminator 7
 2982 0022 0020     		mov	r0, #0
 2983 0024 FFF7FEFF 		bl	CyHalt
 2984              	.L290:
1243:Generated_Source\PSoC4/CyDMA.c ****     CYASSERT((descriptor >= 0) && (descriptor < CYDMA_DESCR_NR));
 2985              		.loc 1 1243 0 is_stmt 1
 2986 0028 BB68     		ldr	r3, [r7, #8]
 2987 002a 002B     		cmp	r3, #0
 2988 002c 04DB     		blt	.L291
 2989              		.loc 1 1243 0 is_stmt 0 discriminator 1
 2990 002e BB68     		ldr	r3, [r7, #8]
 2991 0030 012B     		cmp	r3, #1
 2992 0032 01DC     		bgt	.L291
 2993              		.loc 1 1243 0 discriminator 3
 2994 0034 0123     		mov	r3, #1
 2995 0036 00E0     		b	.L292
 2996              	.L291:
 2997              		.loc 1 1243 0 discriminator 4
 2998 0038 0023     		mov	r3, #0
 2999              	.L292:
 3000              		.loc 1 1243 0 discriminator 6
 3001 003a 002B     		cmp	r3, #0
 3002 003c 02D1     		bne	.L293
 3003              		.loc 1 1243 0 discriminator 7
 3004 003e 0020     		mov	r0, #0
 3005 0040 FFF7FEFF 		bl	CyHalt
 3006              	.L293:
1244:Generated_Source\PSoC4/CyDMA.c ****     CYASSERT(0u == (triggerType & (uint32)~CYDMA_TRIGGER_TYPE));
 3007              		.loc 1 1244 0 is_stmt 1
 3008 0044 7B68     		ldr	r3, [r7, #4]
 3009 0046 104A     		ldr	r2, .L295
 3010 0048 1340     		and	r3, r2
 3011 004a 02D0     		beq	.L294
 3012              		.loc 1 1244 0 is_stmt 0 discriminator 1
 3013 004c 0020     		mov	r0, #0
 3014 004e FFF7FEFF 		bl	CyHalt
 3015              	.L294:
1245:Generated_Source\PSoC4/CyDMA.c **** 
1246:Generated_Source\PSoC4/CyDMA.c ****     regValue = CYDMA_DESCR_BASE.descriptor[channel][descriptor].ctl & (uint32)~CYDMA_TRIGGER_TYPE;
 3016              		.loc 1 1246 0 is_stmt 1
 3017 0052 0E49     		ldr	r1, .L295+4
 3018 0054 FB68     		ldr	r3, [r7, #12]
 3019 0056 5A00     		lsl	r2, r3, #1
ARM GAS  C:\Users\GREG~1.PHI\AppData\Local\Temp\cckB4vVc.s 			page 76


 3020 0058 BB68     		ldr	r3, [r7, #8]
 3021 005a D318     		add	r3, r2, r3
 3022 005c 1B01     		lsl	r3, r3, #4
 3023 005e CB18     		add	r3, r1, r3
 3024 0060 0833     		add	r3, r3, #8
 3025 0062 1B68     		ldr	r3, [r3]
 3026 0064 084A     		ldr	r2, .L295
 3027 0066 1340     		and	r3, r2
 3028 0068 7B61     		str	r3, [r7, #20]
1247:Generated_Source\PSoC4/CyDMA.c ****     CYDMA_DESCR_BASE.descriptor[channel][descriptor].ctl = regValue | triggerType;
 3029              		.loc 1 1247 0
 3030 006a 0848     		ldr	r0, .L295+4
 3031 006c 7A69     		ldr	r2, [r7, #20]
 3032 006e 7B68     		ldr	r3, [r7, #4]
 3033 0070 1A43     		orr	r2, r3
 3034 0072 FB68     		ldr	r3, [r7, #12]
 3035 0074 5900     		lsl	r1, r3, #1
 3036 0076 BB68     		ldr	r3, [r7, #8]
 3037 0078 CB18     		add	r3, r1, r3
 3038 007a 1B01     		lsl	r3, r3, #4
 3039 007c C318     		add	r3, r0, r3
 3040 007e 0833     		add	r3, r3, #8
 3041 0080 1A60     		str	r2, [r3]
1248:Generated_Source\PSoC4/CyDMA.c **** }
 3042              		.loc 1 1248 0
 3043 0082 BD46     		mov	sp, r7
 3044 0084 06B0     		add	sp, sp, #24
 3045              		@ sp needed
 3046 0086 80BD     		pop	{r7, pc}
 3047              	.L296:
 3048              		.align	2
 3049              	.L295:
 3050 0088 FFFFFFFC 		.word	-50331649
 3051 008c 00181040 		.word	1074796544
 3052              		.cfi_endproc
 3053              	.LFE41:
 3054              		.size	CyDmaSetTriggerType, .-CyDmaSetTriggerType
 3055              		.section	.text.CyDmaGetTriggerType,"ax",%progbits
 3056              		.align	2
 3057              		.global	CyDmaGetTriggerType
 3058              		.code	16
 3059              		.thumb_func
 3060              		.type	CyDmaGetTriggerType, %function
 3061              	CyDmaGetTriggerType:
 3062              	.LFB42:
1249:Generated_Source\PSoC4/CyDMA.c **** 
1250:Generated_Source\PSoC4/CyDMA.c **** 
1251:Generated_Source\PSoC4/CyDMA.c **** /*******************************************************************************
1252:Generated_Source\PSoC4/CyDMA.c **** * Function Name: CyDmaGetTriggerType
1253:Generated_Source\PSoC4/CyDMA.c **** ********************************************************************************
1254:Generated_Source\PSoC4/CyDMA.c **** *
1255:Generated_Source\PSoC4/CyDMA.c **** * Summary:
1256:Generated_Source\PSoC4/CyDMA.c **** *  Returns the trigger deactivation settings as set by CyDmaSetTriggerType() or
1257:Generated_Source\PSoC4/CyDMA.c **** *  CyDmaSetConfiguration().
1258:Generated_Source\PSoC4/CyDMA.c **** *
1259:Generated_Source\PSoC4/CyDMA.c **** * Parameters:
1260:Generated_Source\PSoC4/CyDMA.c **** *  channel:    Channel used by this function.
ARM GAS  C:\Users\GREG~1.PHI\AppData\Local\Temp\cckB4vVc.s 			page 77


1261:Generated_Source\PSoC4/CyDMA.c **** *  descriptor: Descriptor (0 or 1) modified by this function.
1262:Generated_Source\PSoC4/CyDMA.c **** *                   
1263:Generated_Source\PSoC4/CyDMA.c **** * Return:
1264:Generated_Source\PSoC4/CyDMA.c **** *  Trigger deactivation settings. Refer to the API bit field definitions in
1265:Generated_Source\PSoC4/CyDMA.c **** *  CyDMA_P4.h or the API description in the DMA channel datasheet for more
1266:Generated_Source\PSoC4/CyDMA.c **** *  information.
1267:Generated_Source\PSoC4/CyDMA.c **** *
1268:Generated_Source\PSoC4/CyDMA.c **** *******************************************************************************/
1269:Generated_Source\PSoC4/CyDMA.c **** uint32 CyDmaGetTriggerType(int32 channel, int32 descriptor)
1270:Generated_Source\PSoC4/CyDMA.c **** {
 3063              		.loc 1 1270 0
 3064              		.cfi_startproc
 3065 0000 80B5     		push	{r7, lr}
 3066              		.cfi_def_cfa_offset 8
 3067              		.cfi_offset 7, -8
 3068              		.cfi_offset 14, -4
 3069 0002 82B0     		sub	sp, sp, #8
 3070              		.cfi_def_cfa_offset 16
 3071 0004 00AF     		add	r7, sp, #0
 3072              		.cfi_def_cfa_register 7
 3073 0006 7860     		str	r0, [r7, #4]
 3074 0008 3960     		str	r1, [r7]
1271:Generated_Source\PSoC4/CyDMA.c ****     CYASSERT((channel    >= 0) && (channel    < CYDMA_CH_NR));
 3075              		.loc 1 1271 0
 3076 000a 7B68     		ldr	r3, [r7, #4]
 3077 000c 002B     		cmp	r3, #0
 3078 000e 04DB     		blt	.L298
 3079              		.loc 1 1271 0 is_stmt 0 discriminator 1
 3080 0010 7B68     		ldr	r3, [r7, #4]
 3081 0012 1F2B     		cmp	r3, #31
 3082 0014 01DC     		bgt	.L298
 3083              		.loc 1 1271 0 discriminator 3
 3084 0016 0123     		mov	r3, #1
 3085 0018 00E0     		b	.L299
 3086              	.L298:
 3087              		.loc 1 1271 0 discriminator 4
 3088 001a 0023     		mov	r3, #0
 3089              	.L299:
 3090              		.loc 1 1271 0 discriminator 6
 3091 001c 002B     		cmp	r3, #0
 3092 001e 02D1     		bne	.L300
 3093              		.loc 1 1271 0 discriminator 7
 3094 0020 0020     		mov	r0, #0
 3095 0022 FFF7FEFF 		bl	CyHalt
 3096              	.L300:
1272:Generated_Source\PSoC4/CyDMA.c ****     CYASSERT((descriptor >= 0) && (descriptor < CYDMA_DESCR_NR));
 3097              		.loc 1 1272 0 is_stmt 1
 3098 0026 3B68     		ldr	r3, [r7]
 3099 0028 002B     		cmp	r3, #0
 3100 002a 04DB     		blt	.L301
 3101              		.loc 1 1272 0 is_stmt 0 discriminator 1
 3102 002c 3B68     		ldr	r3, [r7]
 3103 002e 012B     		cmp	r3, #1
 3104 0030 01DC     		bgt	.L301
 3105              		.loc 1 1272 0 discriminator 3
 3106 0032 0123     		mov	r3, #1
 3107 0034 00E0     		b	.L302
ARM GAS  C:\Users\GREG~1.PHI\AppData\Local\Temp\cckB4vVc.s 			page 78


 3108              	.L301:
 3109              		.loc 1 1272 0 discriminator 4
 3110 0036 0023     		mov	r3, #0
 3111              	.L302:
 3112              		.loc 1 1272 0 discriminator 6
 3113 0038 002B     		cmp	r3, #0
 3114 003a 02D1     		bne	.L303
 3115              		.loc 1 1272 0 discriminator 7
 3116 003c 0020     		mov	r0, #0
 3117 003e FFF7FEFF 		bl	CyHalt
 3118              	.L303:
1273:Generated_Source\PSoC4/CyDMA.c **** 
1274:Generated_Source\PSoC4/CyDMA.c ****     return (CYDMA_DESCR_BASE.descriptor[channel][descriptor].ctl & CYDMA_TRIGGER_TYPE);
 3119              		.loc 1 1274 0 is_stmt 1
 3120 0042 0849     		ldr	r1, .L305
 3121 0044 7B68     		ldr	r3, [r7, #4]
 3122 0046 5A00     		lsl	r2, r3, #1
 3123 0048 3B68     		ldr	r3, [r7]
 3124 004a D318     		add	r3, r2, r3
 3125 004c 1B01     		lsl	r3, r3, #4
 3126 004e CB18     		add	r3, r1, r3
 3127 0050 0833     		add	r3, r3, #8
 3128 0052 1A68     		ldr	r2, [r3]
 3129 0054 C023     		mov	r3, #192
 3130 0056 9B04     		lsl	r3, r3, #18
 3131 0058 1340     		and	r3, r2
1275:Generated_Source\PSoC4/CyDMA.c **** }
 3132              		.loc 1 1275 0
 3133 005a 181C     		mov	r0, r3
 3134 005c BD46     		mov	sp, r7
 3135 005e 02B0     		add	sp, sp, #8
 3136              		@ sp needed
 3137 0060 80BD     		pop	{r7, pc}
 3138              	.L306:
 3139 0062 C046     		.align	2
 3140              	.L305:
 3141 0064 00181040 		.word	1074796544
 3142              		.cfi_endproc
 3143              	.LFE42:
 3144              		.size	CyDmaGetTriggerType, .-CyDmaGetTriggerType
 3145              		.section	.text.CyDmaSetTransferMode,"ax",%progbits
 3146              		.align	2
 3147              		.global	CyDmaSetTransferMode
 3148              		.code	16
 3149              		.thumb_func
 3150              		.type	CyDmaSetTransferMode, %function
 3151              	CyDmaSetTransferMode:
 3152              	.LFB43:
1276:Generated_Source\PSoC4/CyDMA.c **** 
1277:Generated_Source\PSoC4/CyDMA.c **** 
1278:Generated_Source\PSoC4/CyDMA.c **** /*******************************************************************************
1279:Generated_Source\PSoC4/CyDMA.c **** * Function Name: CyDmaSetTransferMode
1280:Generated_Source\PSoC4/CyDMA.c **** ********************************************************************************
1281:Generated_Source\PSoC4/CyDMA.c **** *
1282:Generated_Source\PSoC4/CyDMA.c **** * Summary:
1283:Generated_Source\PSoC4/CyDMA.c **** *  Sets the DMA transfer mode. This determines how the DMA reacts to each trigger
1284:Generated_Source\PSoC4/CyDMA.c **** *  event.
ARM GAS  C:\Users\GREG~1.PHI\AppData\Local\Temp\cckB4vVc.s 			page 79


1285:Generated_Source\PSoC4/CyDMA.c **** *
1286:Generated_Source\PSoC4/CyDMA.c **** * Parameters:
1287:Generated_Source\PSoC4/CyDMA.c **** *  channel:      Channel used by this function.
1288:Generated_Source\PSoC4/CyDMA.c **** *  descriptor:   Descriptor (0 or 1) modified by this function.
1289:Generated_Source\PSoC4/CyDMA.c **** *  transferMode: Specifies the DMA transfer mode settings. Refer to the API bit
1290:Generated_Source\PSoC4/CyDMA.c **** *                field definitions in CyDMA_P4.h or the API description in the
1291:Generated_Source\PSoC4/CyDMA.c **** *                DMA channel datasheet for the parameter options.
1292:Generated_Source\PSoC4/CyDMA.c **** *                   
1293:Generated_Source\PSoC4/CyDMA.c **** * Return:
1294:Generated_Source\PSoC4/CyDMA.c **** *  None.
1295:Generated_Source\PSoC4/CyDMA.c **** *
1296:Generated_Source\PSoC4/CyDMA.c **** * Side effect:
1297:Generated_Source\PSoC4/CyDMA.c **** *  This function should not be called when the specified descriptor is active
1298:Generated_Source\PSoC4/CyDMA.c **** *  in the DMA transfer engine. This can be checked by calling CyDmaGetStatus(). 
1299:Generated_Source\PSoC4/CyDMA.c **** *
1300:Generated_Source\PSoC4/CyDMA.c **** *******************************************************************************/
1301:Generated_Source\PSoC4/CyDMA.c **** void CyDmaSetTransferMode(int32 channel, int32 descriptor, uint32 transferMode)
1302:Generated_Source\PSoC4/CyDMA.c **** {
 3153              		.loc 1 1302 0
 3154              		.cfi_startproc
 3155 0000 80B5     		push	{r7, lr}
 3156              		.cfi_def_cfa_offset 8
 3157              		.cfi_offset 7, -8
 3158              		.cfi_offset 14, -4
 3159 0002 86B0     		sub	sp, sp, #24
 3160              		.cfi_def_cfa_offset 32
 3161 0004 00AF     		add	r7, sp, #0
 3162              		.cfi_def_cfa_register 7
 3163 0006 F860     		str	r0, [r7, #12]
 3164 0008 B960     		str	r1, [r7, #8]
 3165 000a 7A60     		str	r2, [r7, #4]
1303:Generated_Source\PSoC4/CyDMA.c ****     uint32 regValue;
1304:Generated_Source\PSoC4/CyDMA.c **** 
1305:Generated_Source\PSoC4/CyDMA.c ****     CYASSERT((channel    >= 0) && (channel    < CYDMA_CH_NR));
 3166              		.loc 1 1305 0
 3167 000c FB68     		ldr	r3, [r7, #12]
 3168 000e 002B     		cmp	r3, #0
 3169 0010 04DB     		blt	.L308
 3170              		.loc 1 1305 0 is_stmt 0 discriminator 1
 3171 0012 FB68     		ldr	r3, [r7, #12]
 3172 0014 1F2B     		cmp	r3, #31
 3173 0016 01DC     		bgt	.L308
 3174              		.loc 1 1305 0 discriminator 3
 3175 0018 0123     		mov	r3, #1
 3176 001a 00E0     		b	.L309
 3177              	.L308:
 3178              		.loc 1 1305 0 discriminator 4
 3179 001c 0023     		mov	r3, #0
 3180              	.L309:
 3181              		.loc 1 1305 0 discriminator 6
 3182 001e 002B     		cmp	r3, #0
 3183 0020 02D1     		bne	.L310
 3184              		.loc 1 1305 0 discriminator 7
 3185 0022 0020     		mov	r0, #0
 3186 0024 FFF7FEFF 		bl	CyHalt
 3187              	.L310:
1306:Generated_Source\PSoC4/CyDMA.c ****     CYASSERT((descriptor >= 0) && (descriptor < CYDMA_DESCR_NR));
ARM GAS  C:\Users\GREG~1.PHI\AppData\Local\Temp\cckB4vVc.s 			page 80


 3188              		.loc 1 1306 0 is_stmt 1
 3189 0028 BB68     		ldr	r3, [r7, #8]
 3190 002a 002B     		cmp	r3, #0
 3191 002c 04DB     		blt	.L311
 3192              		.loc 1 1306 0 is_stmt 0 discriminator 1
 3193 002e BB68     		ldr	r3, [r7, #8]
 3194 0030 012B     		cmp	r3, #1
 3195 0032 01DC     		bgt	.L311
 3196              		.loc 1 1306 0 discriminator 3
 3197 0034 0123     		mov	r3, #1
 3198 0036 00E0     		b	.L312
 3199              	.L311:
 3200              		.loc 1 1306 0 discriminator 4
 3201 0038 0023     		mov	r3, #0
 3202              	.L312:
 3203              		.loc 1 1306 0 discriminator 6
 3204 003a 002B     		cmp	r3, #0
 3205 003c 02D1     		bne	.L313
 3206              		.loc 1 1306 0 discriminator 7
 3207 003e 0020     		mov	r0, #0
 3208 0040 FFF7FEFF 		bl	CyHalt
 3209              	.L313:
1307:Generated_Source\PSoC4/CyDMA.c ****     CYASSERT(0u == (transferMode & (uint32)~CYDMA_TRANSFER_MODE));
 3210              		.loc 1 1307 0 is_stmt 1
 3211 0044 7B68     		ldr	r3, [r7, #4]
 3212 0046 9B00     		lsl	r3, r3, #2
 3213 0048 9B08     		lsr	r3, r3, #2
 3214 004a 02D0     		beq	.L314
 3215              		.loc 1 1307 0 is_stmt 0 discriminator 1
 3216 004c 0020     		mov	r0, #0
 3217 004e FFF7FEFF 		bl	CyHalt
 3218              	.L314:
1308:Generated_Source\PSoC4/CyDMA.c **** 
1309:Generated_Source\PSoC4/CyDMA.c ****     regValue = CYDMA_DESCR_BASE.descriptor[channel][descriptor].ctl & (uint32)~CYDMA_TRANSFER_MODE;
 3219              		.loc 1 1309 0 is_stmt 1
 3220 0052 0D49     		ldr	r1, .L315
 3221 0054 FB68     		ldr	r3, [r7, #12]
 3222 0056 5A00     		lsl	r2, r3, #1
 3223 0058 BB68     		ldr	r3, [r7, #8]
 3224 005a D318     		add	r3, r2, r3
 3225 005c 1B01     		lsl	r3, r3, #4
 3226 005e CB18     		add	r3, r1, r3
 3227 0060 0833     		add	r3, r3, #8
 3228 0062 1B68     		ldr	r3, [r3]
 3229 0064 9B00     		lsl	r3, r3, #2
 3230 0066 9B08     		lsr	r3, r3, #2
 3231 0068 7B61     		str	r3, [r7, #20]
1310:Generated_Source\PSoC4/CyDMA.c ****     CYDMA_DESCR_BASE.descriptor[channel][descriptor].ctl = regValue | transferMode;
 3232              		.loc 1 1310 0
 3233 006a 0748     		ldr	r0, .L315
 3234 006c 7A69     		ldr	r2, [r7, #20]
 3235 006e 7B68     		ldr	r3, [r7, #4]
 3236 0070 1A43     		orr	r2, r3
 3237 0072 FB68     		ldr	r3, [r7, #12]
 3238 0074 5900     		lsl	r1, r3, #1
 3239 0076 BB68     		ldr	r3, [r7, #8]
 3240 0078 CB18     		add	r3, r1, r3
ARM GAS  C:\Users\GREG~1.PHI\AppData\Local\Temp\cckB4vVc.s 			page 81


 3241 007a 1B01     		lsl	r3, r3, #4
 3242 007c C318     		add	r3, r0, r3
 3243 007e 0833     		add	r3, r3, #8
 3244 0080 1A60     		str	r2, [r3]
1311:Generated_Source\PSoC4/CyDMA.c **** }
 3245              		.loc 1 1311 0
 3246 0082 BD46     		mov	sp, r7
 3247 0084 06B0     		add	sp, sp, #24
 3248              		@ sp needed
 3249 0086 80BD     		pop	{r7, pc}
 3250              	.L316:
 3251              		.align	2
 3252              	.L315:
 3253 0088 00181040 		.word	1074796544
 3254              		.cfi_endproc
 3255              	.LFE43:
 3256              		.size	CyDmaSetTransferMode, .-CyDmaSetTransferMode
 3257              		.section	.text.CyDmaGetTransferMode,"ax",%progbits
 3258              		.align	2
 3259              		.global	CyDmaGetTransferMode
 3260              		.code	16
 3261              		.thumb_func
 3262              		.type	CyDmaGetTransferMode, %function
 3263              	CyDmaGetTransferMode:
 3264              	.LFB44:
1312:Generated_Source\PSoC4/CyDMA.c **** 
1313:Generated_Source\PSoC4/CyDMA.c **** 
1314:Generated_Source\PSoC4/CyDMA.c **** /*******************************************************************************
1315:Generated_Source\PSoC4/CyDMA.c **** * Function Name: CyDmaGetTransferMode
1316:Generated_Source\PSoC4/CyDMA.c **** ********************************************************************************
1317:Generated_Source\PSoC4/CyDMA.c **** *
1318:Generated_Source\PSoC4/CyDMA.c **** * Summary:
1319:Generated_Source\PSoC4/CyDMA.c **** *  Returns the transfer mode for the specified descriptor as set by 
1320:Generated_Source\PSoC4/CyDMA.c **** *  CyDmaSetTransferMode() or CyDmaSetConfiguration.
1321:Generated_Source\PSoC4/CyDMA.c **** *
1322:Generated_Source\PSoC4/CyDMA.c **** * Parameters:
1323:Generated_Source\PSoC4/CyDMA.c **** *  channel:    Channel used by this function.
1324:Generated_Source\PSoC4/CyDMA.c **** *  descriptor: Descriptor (0 or 1) modified by this function.
1325:Generated_Source\PSoC4/CyDMA.c **** *                   
1326:Generated_Source\PSoC4/CyDMA.c **** * Return:
1327:Generated_Source\PSoC4/CyDMA.c **** *  DMA transfer mode settings. Refer to the API bit field definitions in
1328:Generated_Source\PSoC4/CyDMA.c **** *  CyDMA_P4.h or the API description in the DMA channel datasheet for more
1329:Generated_Source\PSoC4/CyDMA.c **** *  information.
1330:Generated_Source\PSoC4/CyDMA.c **** *
1331:Generated_Source\PSoC4/CyDMA.c **** *******************************************************************************/
1332:Generated_Source\PSoC4/CyDMA.c **** uint32 CyDmaGetTransferMode(int32 channel, int32 descriptor)
1333:Generated_Source\PSoC4/CyDMA.c **** {
 3265              		.loc 1 1333 0
 3266              		.cfi_startproc
 3267 0000 80B5     		push	{r7, lr}
 3268              		.cfi_def_cfa_offset 8
 3269              		.cfi_offset 7, -8
 3270              		.cfi_offset 14, -4
 3271 0002 82B0     		sub	sp, sp, #8
 3272              		.cfi_def_cfa_offset 16
 3273 0004 00AF     		add	r7, sp, #0
 3274              		.cfi_def_cfa_register 7
ARM GAS  C:\Users\GREG~1.PHI\AppData\Local\Temp\cckB4vVc.s 			page 82


 3275 0006 7860     		str	r0, [r7, #4]
 3276 0008 3960     		str	r1, [r7]
1334:Generated_Source\PSoC4/CyDMA.c ****     CYASSERT((channel    >= 0) && (channel    < CYDMA_CH_NR));
 3277              		.loc 1 1334 0
 3278 000a 7B68     		ldr	r3, [r7, #4]
 3279 000c 002B     		cmp	r3, #0
 3280 000e 04DB     		blt	.L318
 3281              		.loc 1 1334 0 is_stmt 0 discriminator 1
 3282 0010 7B68     		ldr	r3, [r7, #4]
 3283 0012 1F2B     		cmp	r3, #31
 3284 0014 01DC     		bgt	.L318
 3285              		.loc 1 1334 0 discriminator 3
 3286 0016 0123     		mov	r3, #1
 3287 0018 00E0     		b	.L319
 3288              	.L318:
 3289              		.loc 1 1334 0 discriminator 4
 3290 001a 0023     		mov	r3, #0
 3291              	.L319:
 3292              		.loc 1 1334 0 discriminator 6
 3293 001c 002B     		cmp	r3, #0
 3294 001e 02D1     		bne	.L320
 3295              		.loc 1 1334 0 discriminator 7
 3296 0020 0020     		mov	r0, #0
 3297 0022 FFF7FEFF 		bl	CyHalt
 3298              	.L320:
1335:Generated_Source\PSoC4/CyDMA.c ****     CYASSERT((descriptor >= 0) && (descriptor < CYDMA_DESCR_NR));
 3299              		.loc 1 1335 0 is_stmt 1
 3300 0026 3B68     		ldr	r3, [r7]
 3301 0028 002B     		cmp	r3, #0
 3302 002a 04DB     		blt	.L321
 3303              		.loc 1 1335 0 is_stmt 0 discriminator 1
 3304 002c 3B68     		ldr	r3, [r7]
 3305 002e 012B     		cmp	r3, #1
 3306 0030 01DC     		bgt	.L321
 3307              		.loc 1 1335 0 discriminator 3
 3308 0032 0123     		mov	r3, #1
 3309 0034 00E0     		b	.L322
 3310              	.L321:
 3311              		.loc 1 1335 0 discriminator 4
 3312 0036 0023     		mov	r3, #0
 3313              	.L322:
 3314              		.loc 1 1335 0 discriminator 6
 3315 0038 002B     		cmp	r3, #0
 3316 003a 02D1     		bne	.L323
 3317              		.loc 1 1335 0 discriminator 7
 3318 003c 0020     		mov	r0, #0
 3319 003e FFF7FEFF 		bl	CyHalt
 3320              	.L323:
1336:Generated_Source\PSoC4/CyDMA.c **** 
1337:Generated_Source\PSoC4/CyDMA.c ****     return (CYDMA_DESCR_BASE.descriptor[channel][descriptor].ctl & CYDMA_TRANSFER_MODE);
 3321              		.loc 1 1337 0 is_stmt 1
 3322 0042 0749     		ldr	r1, .L325
 3323 0044 7B68     		ldr	r3, [r7, #4]
 3324 0046 5A00     		lsl	r2, r3, #1
 3325 0048 3B68     		ldr	r3, [r7]
 3326 004a D318     		add	r3, r2, r3
 3327 004c 1B01     		lsl	r3, r3, #4
ARM GAS  C:\Users\GREG~1.PHI\AppData\Local\Temp\cckB4vVc.s 			page 83


 3328 004e CB18     		add	r3, r1, r3
 3329 0050 0833     		add	r3, r3, #8
 3330 0052 1B68     		ldr	r3, [r3]
 3331 0054 9B0F     		lsr	r3, r3, #30
 3332 0056 9B07     		lsl	r3, r3, #30
1338:Generated_Source\PSoC4/CyDMA.c **** }
 3333              		.loc 1 1338 0
 3334 0058 181C     		mov	r0, r3
 3335 005a BD46     		mov	sp, r7
 3336 005c 02B0     		add	sp, sp, #8
 3337              		@ sp needed
 3338 005e 80BD     		pop	{r7, pc}
 3339              	.L326:
 3340              		.align	2
 3341              	.L325:
 3342 0060 00181040 		.word	1074796544
 3343              		.cfi_endproc
 3344              	.LFE44:
 3345              		.size	CyDmaGetTransferMode, .-CyDmaGetTransferMode
 3346              		.section	.text.CyDmaSetPreemptable,"ax",%progbits
 3347              		.align	2
 3348              		.global	CyDmaSetPreemptable
 3349              		.code	16
 3350              		.thumb_func
 3351              		.type	CyDmaSetPreemptable, %function
 3352              	CyDmaSetPreemptable:
 3353              	.LFB45:
1339:Generated_Source\PSoC4/CyDMA.c **** 
1340:Generated_Source\PSoC4/CyDMA.c **** 
1341:Generated_Source\PSoC4/CyDMA.c **** /*******************************************************************************
1342:Generated_Source\PSoC4/CyDMA.c **** * Function Name: CyDmaSetPreemptable
1343:Generated_Source\PSoC4/CyDMA.c **** ********************************************************************************
1344:Generated_Source\PSoC4/CyDMA.c **** *
1345:Generated_Source\PSoC4/CyDMA.c **** * Summary:
1346:Generated_Source\PSoC4/CyDMA.c **** *  Determines if the descriptor is preemptable.
1347:Generated_Source\PSoC4/CyDMA.c **** *
1348:Generated_Source\PSoC4/CyDMA.c **** * Parameters:
1349:Generated_Source\PSoC4/CyDMA.c **** *  channel:     Channel used by this function.
1350:Generated_Source\PSoC4/CyDMA.c **** *  descriptor:  Descriptor (0 or 1) modified by this function.
1351:Generated_Source\PSoC4/CyDMA.c **** *  preemptable: Descriptor preemption settings. Refer to the API bit fields
1352:Generated_Source\PSoC4/CyDMA.c **** *               definition in CyDMA_P4.h or the API description in the DMA 
1353:Generated_Source\PSoC4/CyDMA.c **** *               channel datasheet for the parameter options.
1354:Generated_Source\PSoC4/CyDMA.c **** *                   
1355:Generated_Source\PSoC4/CyDMA.c **** * Return:
1356:Generated_Source\PSoC4/CyDMA.c **** *  None.
1357:Generated_Source\PSoC4/CyDMA.c **** *
1358:Generated_Source\PSoC4/CyDMA.c **** * Side effect:
1359:Generated_Source\PSoC4/CyDMA.c **** *  This function should not be called when the specified descriptor is active
1360:Generated_Source\PSoC4/CyDMA.c **** *  in the DMA transfer engine. This can be checked by calling CyDmaGetStatus(). 
1361:Generated_Source\PSoC4/CyDMA.c **** *
1362:Generated_Source\PSoC4/CyDMA.c **** *******************************************************************************/
1363:Generated_Source\PSoC4/CyDMA.c **** void CyDmaSetPreemptable(int32 channel, int32 descriptor, uint32 preemptable)
1364:Generated_Source\PSoC4/CyDMA.c **** {
 3354              		.loc 1 1364 0
 3355              		.cfi_startproc
 3356 0000 80B5     		push	{r7, lr}
 3357              		.cfi_def_cfa_offset 8
ARM GAS  C:\Users\GREG~1.PHI\AppData\Local\Temp\cckB4vVc.s 			page 84


 3358              		.cfi_offset 7, -8
 3359              		.cfi_offset 14, -4
 3360 0002 86B0     		sub	sp, sp, #24
 3361              		.cfi_def_cfa_offset 32
 3362 0004 00AF     		add	r7, sp, #0
 3363              		.cfi_def_cfa_register 7
 3364 0006 F860     		str	r0, [r7, #12]
 3365 0008 B960     		str	r1, [r7, #8]
 3366 000a 7A60     		str	r2, [r7, #4]
1365:Generated_Source\PSoC4/CyDMA.c ****     uint32 regValue;
1366:Generated_Source\PSoC4/CyDMA.c **** 
1367:Generated_Source\PSoC4/CyDMA.c ****     CYASSERT((channel    >= 0) && (channel    < CYDMA_CH_NR));
 3367              		.loc 1 1367 0
 3368 000c FB68     		ldr	r3, [r7, #12]
 3369 000e 002B     		cmp	r3, #0
 3370 0010 04DB     		blt	.L328
 3371              		.loc 1 1367 0 is_stmt 0 discriminator 1
 3372 0012 FB68     		ldr	r3, [r7, #12]
 3373 0014 1F2B     		cmp	r3, #31
 3374 0016 01DC     		bgt	.L328
 3375              		.loc 1 1367 0 discriminator 3
 3376 0018 0123     		mov	r3, #1
 3377 001a 00E0     		b	.L329
 3378              	.L328:
 3379              		.loc 1 1367 0 discriminator 4
 3380 001c 0023     		mov	r3, #0
 3381              	.L329:
 3382              		.loc 1 1367 0 discriminator 6
 3383 001e 002B     		cmp	r3, #0
 3384 0020 02D1     		bne	.L330
 3385              		.loc 1 1367 0 discriminator 7
 3386 0022 0020     		mov	r0, #0
 3387 0024 FFF7FEFF 		bl	CyHalt
 3388              	.L330:
1368:Generated_Source\PSoC4/CyDMA.c ****     CYASSERT((descriptor >= 0) && (descriptor < CYDMA_DESCR_NR));
 3389              		.loc 1 1368 0 is_stmt 1
 3390 0028 BB68     		ldr	r3, [r7, #8]
 3391 002a 002B     		cmp	r3, #0
 3392 002c 04DB     		blt	.L331
 3393              		.loc 1 1368 0 is_stmt 0 discriminator 1
 3394 002e BB68     		ldr	r3, [r7, #8]
 3395 0030 012B     		cmp	r3, #1
 3396 0032 01DC     		bgt	.L331
 3397              		.loc 1 1368 0 discriminator 3
 3398 0034 0123     		mov	r3, #1
 3399 0036 00E0     		b	.L332
 3400              	.L331:
 3401              		.loc 1 1368 0 discriminator 4
 3402 0038 0023     		mov	r3, #0
 3403              	.L332:
 3404              		.loc 1 1368 0 discriminator 6
 3405 003a 002B     		cmp	r3, #0
 3406 003c 02D1     		bne	.L333
 3407              		.loc 1 1368 0 discriminator 7
 3408 003e 0020     		mov	r0, #0
 3409 0040 FFF7FEFF 		bl	CyHalt
 3410              	.L333:
ARM GAS  C:\Users\GREG~1.PHI\AppData\Local\Temp\cckB4vVc.s 			page 85


1369:Generated_Source\PSoC4/CyDMA.c ****     CYASSERT(0u == (preemptable & (uint32)~CYDMA_PREEMPTABLE));
 3411              		.loc 1 1369 0 is_stmt 1
 3412 0044 7B68     		ldr	r3, [r7, #4]
 3413 0046 104A     		ldr	r2, .L335
 3414 0048 1340     		and	r3, r2
 3415 004a 02D0     		beq	.L334
 3416              		.loc 1 1369 0 is_stmt 0 discriminator 1
 3417 004c 0020     		mov	r0, #0
 3418 004e FFF7FEFF 		bl	CyHalt
 3419              	.L334:
1370:Generated_Source\PSoC4/CyDMA.c **** 
1371:Generated_Source\PSoC4/CyDMA.c ****     regValue = CYDMA_DESCR_BASE.descriptor[channel][descriptor].ctl & (uint32)~CYDMA_PREEMPTABLE;
 3420              		.loc 1 1371 0 is_stmt 1
 3421 0052 0E49     		ldr	r1, .L335+4
 3422 0054 FB68     		ldr	r3, [r7, #12]
 3423 0056 5A00     		lsl	r2, r3, #1
 3424 0058 BB68     		ldr	r3, [r7, #8]
 3425 005a D318     		add	r3, r2, r3
 3426 005c 1B01     		lsl	r3, r3, #4
 3427 005e CB18     		add	r3, r1, r3
 3428 0060 0833     		add	r3, r3, #8
 3429 0062 1B68     		ldr	r3, [r3]
 3430 0064 084A     		ldr	r2, .L335
 3431 0066 1340     		and	r3, r2
 3432 0068 7B61     		str	r3, [r7, #20]
1372:Generated_Source\PSoC4/CyDMA.c ****     CYDMA_DESCR_BASE.descriptor[channel][descriptor].ctl = regValue | preemptable;
 3433              		.loc 1 1372 0
 3434 006a 0848     		ldr	r0, .L335+4
 3435 006c 7A69     		ldr	r2, [r7, #20]
 3436 006e 7B68     		ldr	r3, [r7, #4]
 3437 0070 1A43     		orr	r2, r3
 3438 0072 FB68     		ldr	r3, [r7, #12]
 3439 0074 5900     		lsl	r1, r3, #1
 3440 0076 BB68     		ldr	r3, [r7, #8]
 3441 0078 CB18     		add	r3, r1, r3
 3442 007a 1B01     		lsl	r3, r3, #4
 3443 007c C318     		add	r3, r0, r3
 3444 007e 0833     		add	r3, r3, #8
 3445 0080 1A60     		str	r2, [r3]
1373:Generated_Source\PSoC4/CyDMA.c **** }
 3446              		.loc 1 1373 0
 3447 0082 BD46     		mov	sp, r7
 3448 0084 06B0     		add	sp, sp, #24
 3449              		@ sp needed
 3450 0086 80BD     		pop	{r7, pc}
 3451              	.L336:
 3452              		.align	2
 3453              	.L335:
 3454 0088 FFFFFFEF 		.word	-268435457
 3455 008c 00181040 		.word	1074796544
 3456              		.cfi_endproc
 3457              	.LFE45:
 3458              		.size	CyDmaSetPreemptable, .-CyDmaSetPreemptable
 3459              		.section	.text.CyDmaGetPreemptable,"ax",%progbits
 3460              		.align	2
 3461              		.global	CyDmaGetPreemptable
 3462              		.code	16
ARM GAS  C:\Users\GREG~1.PHI\AppData\Local\Temp\cckB4vVc.s 			page 86


 3463              		.thumb_func
 3464              		.type	CyDmaGetPreemptable, %function
 3465              	CyDmaGetPreemptable:
 3466              	.LFB46:
1374:Generated_Source\PSoC4/CyDMA.c **** 
1375:Generated_Source\PSoC4/CyDMA.c **** 
1376:Generated_Source\PSoC4/CyDMA.c **** /*******************************************************************************
1377:Generated_Source\PSoC4/CyDMA.c **** * Function Name: CyDmaGetPreemptable
1378:Generated_Source\PSoC4/CyDMA.c **** ********************************************************************************
1379:Generated_Source\PSoC4/CyDMA.c **** *
1380:Generated_Source\PSoC4/CyDMA.c **** * Summary:
1381:Generated_Source\PSoC4/CyDMA.c **** *  Returns whether or not the descriptor is preemptable.
1382:Generated_Source\PSoC4/CyDMA.c **** *
1383:Generated_Source\PSoC4/CyDMA.c **** * Parameters:
1384:Generated_Source\PSoC4/CyDMA.c **** *  channel:    Channel used by this function.
1385:Generated_Source\PSoC4/CyDMA.c **** *  descriptor: Descriptor (0 or 1) modified by this function.
1386:Generated_Source\PSoC4/CyDMA.c **** *                   
1387:Generated_Source\PSoC4/CyDMA.c **** * Return:
1388:Generated_Source\PSoC4/CyDMA.c **** *  Descriptor preemption setting. Refer to the API bit field definitions in
1389:Generated_Source\PSoC4/CyDMA.c **** *  CyDMA_P4.h or the API description in the DMA channel datasheet for more
1390:Generated_Source\PSoC4/CyDMA.c **** *  information.
1391:Generated_Source\PSoC4/CyDMA.c **** *
1392:Generated_Source\PSoC4/CyDMA.c **** *******************************************************************************/
1393:Generated_Source\PSoC4/CyDMA.c **** uint32 CyDmaGetPreemptable(int32 channel, int32 descriptor)
1394:Generated_Source\PSoC4/CyDMA.c **** {
 3467              		.loc 1 1394 0
 3468              		.cfi_startproc
 3469 0000 80B5     		push	{r7, lr}
 3470              		.cfi_def_cfa_offset 8
 3471              		.cfi_offset 7, -8
 3472              		.cfi_offset 14, -4
 3473 0002 82B0     		sub	sp, sp, #8
 3474              		.cfi_def_cfa_offset 16
 3475 0004 00AF     		add	r7, sp, #0
 3476              		.cfi_def_cfa_register 7
 3477 0006 7860     		str	r0, [r7, #4]
 3478 0008 3960     		str	r1, [r7]
1395:Generated_Source\PSoC4/CyDMA.c ****     CYASSERT((channel    >= 0) && (channel    < CYDMA_CH_NR));
 3479              		.loc 1 1395 0
 3480 000a 7B68     		ldr	r3, [r7, #4]
 3481 000c 002B     		cmp	r3, #0
 3482 000e 04DB     		blt	.L338
 3483              		.loc 1 1395 0 is_stmt 0 discriminator 1
 3484 0010 7B68     		ldr	r3, [r7, #4]
 3485 0012 1F2B     		cmp	r3, #31
 3486 0014 01DC     		bgt	.L338
 3487              		.loc 1 1395 0 discriminator 3
 3488 0016 0123     		mov	r3, #1
 3489 0018 00E0     		b	.L339
 3490              	.L338:
 3491              		.loc 1 1395 0 discriminator 4
 3492 001a 0023     		mov	r3, #0
 3493              	.L339:
 3494              		.loc 1 1395 0 discriminator 6
 3495 001c 002B     		cmp	r3, #0
 3496 001e 02D1     		bne	.L340
 3497              		.loc 1 1395 0 discriminator 7
ARM GAS  C:\Users\GREG~1.PHI\AppData\Local\Temp\cckB4vVc.s 			page 87


 3498 0020 0020     		mov	r0, #0
 3499 0022 FFF7FEFF 		bl	CyHalt
 3500              	.L340:
1396:Generated_Source\PSoC4/CyDMA.c ****     CYASSERT((descriptor >= 0) && (descriptor < CYDMA_DESCR_NR));
 3501              		.loc 1 1396 0 is_stmt 1
 3502 0026 3B68     		ldr	r3, [r7]
 3503 0028 002B     		cmp	r3, #0
 3504 002a 04DB     		blt	.L341
 3505              		.loc 1 1396 0 is_stmt 0 discriminator 1
 3506 002c 3B68     		ldr	r3, [r7]
 3507 002e 012B     		cmp	r3, #1
 3508 0030 01DC     		bgt	.L341
 3509              		.loc 1 1396 0 discriminator 3
 3510 0032 0123     		mov	r3, #1
 3511 0034 00E0     		b	.L342
 3512              	.L341:
 3513              		.loc 1 1396 0 discriminator 4
 3514 0036 0023     		mov	r3, #0
 3515              	.L342:
 3516              		.loc 1 1396 0 discriminator 6
 3517 0038 002B     		cmp	r3, #0
 3518 003a 02D1     		bne	.L343
 3519              		.loc 1 1396 0 discriminator 7
 3520 003c 0020     		mov	r0, #0
 3521 003e FFF7FEFF 		bl	CyHalt
 3522              	.L343:
1397:Generated_Source\PSoC4/CyDMA.c **** 
1398:Generated_Source\PSoC4/CyDMA.c ****     return (CYDMA_DESCR_BASE.descriptor[channel][descriptor].ctl & CYDMA_PREEMPTABLE);
 3523              		.loc 1 1398 0 is_stmt 1
 3524 0042 0849     		ldr	r1, .L345
 3525 0044 7B68     		ldr	r3, [r7, #4]
 3526 0046 5A00     		lsl	r2, r3, #1
 3527 0048 3B68     		ldr	r3, [r7]
 3528 004a D318     		add	r3, r2, r3
 3529 004c 1B01     		lsl	r3, r3, #4
 3530 004e CB18     		add	r3, r1, r3
 3531 0050 0833     		add	r3, r3, #8
 3532 0052 1A68     		ldr	r2, [r3]
 3533 0054 8023     		mov	r3, #128
 3534 0056 5B05     		lsl	r3, r3, #21
 3535 0058 1340     		and	r3, r2
1399:Generated_Source\PSoC4/CyDMA.c **** }
 3536              		.loc 1 1399 0
 3537 005a 181C     		mov	r0, r3
 3538 005c BD46     		mov	sp, r7
 3539 005e 02B0     		add	sp, sp, #8
 3540              		@ sp needed
 3541 0060 80BD     		pop	{r7, pc}
 3542              	.L346:
 3543 0062 C046     		.align	2
 3544              	.L345:
 3545 0064 00181040 		.word	1074796544
 3546              		.cfi_endproc
 3547              	.LFE46:
 3548              		.size	CyDmaGetPreemptable, .-CyDmaGetPreemptable
 3549              		.section	.text.CyDmaSetPostCompletionActions,"ax",%progbits
 3550              		.align	2
ARM GAS  C:\Users\GREG~1.PHI\AppData\Local\Temp\cckB4vVc.s 			page 88


 3551              		.global	CyDmaSetPostCompletionActions
 3552              		.code	16
 3553              		.thumb_func
 3554              		.type	CyDmaSetPostCompletionActions, %function
 3555              	CyDmaSetPostCompletionActions:
 3556              	.LFB47:
1400:Generated_Source\PSoC4/CyDMA.c **** 
1401:Generated_Source\PSoC4/CyDMA.c **** 
1402:Generated_Source\PSoC4/CyDMA.c **** /*******************************************************************************
1403:Generated_Source\PSoC4/CyDMA.c **** * Function Name: CyDmaSetPostCompletionActions
1404:Generated_Source\PSoC4/CyDMA.c **** ********************************************************************************
1405:Generated_Source\PSoC4/CyDMA.c **** *
1406:Generated_Source\PSoC4/CyDMA.c **** * Summary:
1407:Generated_Source\PSoC4/CyDMA.c **** *  Determines what occurs after a descriptor completes.
1408:Generated_Source\PSoC4/CyDMA.c **** *
1409:Generated_Source\PSoC4/CyDMA.c **** * Parameters:
1410:Generated_Source\PSoC4/CyDMA.c **** *  channel:    Channel used by this function.
1411:Generated_Source\PSoC4/CyDMA.c **** *  descriptor: Descriptor (0 or 1) modified by this function.
1412:Generated_Source\PSoC4/CyDMA.c **** *  actions:    Specifies descriptor post completion actions. Refer to the API
