ARM GAS  C:\Users\GREG~1.PHI\AppData\Local\Temp\cc9aBzLn.s 			page 1


   1              		.cpu cortex-m0
   2              		.fpu softvfp
   3              		.eabi_attribute 20, 1
   4              		.eabi_attribute 21, 1
   5              		.eabi_attribute 23, 3
   6              		.eabi_attribute 24, 1
   7              		.eabi_attribute 25, 1
   8              		.eabi_attribute 26, 1
   9              		.eabi_attribute 30, 6
  10              		.eabi_attribute 34, 0
  11              		.eabi_attribute 18, 4
  12              		.code	16
  13              		.file	"cyfitter_cfg.c"
  14              		.text
  15              	.Ltext0:
  16              		.cfi_sections	.debug_frame
  17              		.section	.text.CYMEMZERO,"ax",%progbits
  18              		.align	2
  19              		.code	16
  20              		.thumb_func
  21              		.type	CYMEMZERO, %function
  22              	CYMEMZERO:
  23              	.LFB1:
  24              		.file 1 "Generated_Source\\PSoC4\\cyfitter_cfg.c"
   1:Generated_Source\PSoC4/cyfitter_cfg.c **** /*******************************************************************************
   2:Generated_Source\PSoC4/cyfitter_cfg.c **** * File Name: cyfitter_cfg.c
   3:Generated_Source\PSoC4/cyfitter_cfg.c **** * 
   4:Generated_Source\PSoC4/cyfitter_cfg.c **** * PSoC Creator  4.0 Update 1
   5:Generated_Source\PSoC4/cyfitter_cfg.c **** *
   6:Generated_Source\PSoC4/cyfitter_cfg.c **** * Description:
   7:Generated_Source\PSoC4/cyfitter_cfg.c **** * This file contains device initialization code.
   8:Generated_Source\PSoC4/cyfitter_cfg.c **** * Except for the user defined sections in CyClockStartupError(), this file should not be modified.
   9:Generated_Source\PSoC4/cyfitter_cfg.c **** * This file is automatically generated by PSoC Creator.
  10:Generated_Source\PSoC4/cyfitter_cfg.c **** *
  11:Generated_Source\PSoC4/cyfitter_cfg.c **** ********************************************************************************
  12:Generated_Source\PSoC4/cyfitter_cfg.c **** * Copyright (c) 2007-2016 Cypress Semiconductor.  All rights reserved.
  13:Generated_Source\PSoC4/cyfitter_cfg.c **** * You may use this file only in accordance with the license, terms, conditions, 
  14:Generated_Source\PSoC4/cyfitter_cfg.c **** * disclaimers, and limitations in the end user license agreement accompanying 
  15:Generated_Source\PSoC4/cyfitter_cfg.c **** * the software package with which this file was provided.
  16:Generated_Source\PSoC4/cyfitter_cfg.c **** ********************************************************************************/
  17:Generated_Source\PSoC4/cyfitter_cfg.c **** 
  18:Generated_Source\PSoC4/cyfitter_cfg.c **** #include <string.h>
  19:Generated_Source\PSoC4/cyfitter_cfg.c **** #include "cytypes.h"
  20:Generated_Source\PSoC4/cyfitter_cfg.c **** #include "cydevice_trm.h"
  21:Generated_Source\PSoC4/cyfitter_cfg.c **** #include "cyfitter.h"
  22:Generated_Source\PSoC4/cyfitter_cfg.c **** #include "CyLib.h"
  23:Generated_Source\PSoC4/cyfitter_cfg.c **** #include "cyfitter_cfg.h"
  24:Generated_Source\PSoC4/cyfitter_cfg.c **** #include "cyapicallbacks.h"
  25:Generated_Source\PSoC4/cyfitter_cfg.c **** 
  26:Generated_Source\PSoC4/cyfitter_cfg.c **** 
  27:Generated_Source\PSoC4/cyfitter_cfg.c **** #if defined(__GNUC__) || defined(__ARMCC_VERSION)
  28:Generated_Source\PSoC4/cyfitter_cfg.c ****     #define CYPACKED 
  29:Generated_Source\PSoC4/cyfitter_cfg.c ****     #define CYPACKED_ATTR __attribute__ ((packed))
  30:Generated_Source\PSoC4/cyfitter_cfg.c ****     #define CYALIGNED __attribute__ ((aligned))
  31:Generated_Source\PSoC4/cyfitter_cfg.c ****     #define CY_CFG_UNUSED __attribute__ ((unused))
  32:Generated_Source\PSoC4/cyfitter_cfg.c ****     #ifndef CY_CFG_SECTION
  33:Generated_Source\PSoC4/cyfitter_cfg.c ****         #define CY_CFG_SECTION __attribute__ ((section(".psocinit")))
ARM GAS  C:\Users\GREG~1.PHI\AppData\Local\Temp\cc9aBzLn.s 			page 2


  34:Generated_Source\PSoC4/cyfitter_cfg.c ****     #endif
  35:Generated_Source\PSoC4/cyfitter_cfg.c ****     
  36:Generated_Source\PSoC4/cyfitter_cfg.c ****     #if defined(__ARMCC_VERSION)
  37:Generated_Source\PSoC4/cyfitter_cfg.c ****         #define CY_CFG_MEMORY_BARRIER() __memory_changed()
  38:Generated_Source\PSoC4/cyfitter_cfg.c ****     #else
  39:Generated_Source\PSoC4/cyfitter_cfg.c ****         #define CY_CFG_MEMORY_BARRIER() __sync_synchronize()
  40:Generated_Source\PSoC4/cyfitter_cfg.c ****     #endif
  41:Generated_Source\PSoC4/cyfitter_cfg.c ****     
  42:Generated_Source\PSoC4/cyfitter_cfg.c **** #elif defined(__ICCARM__)
  43:Generated_Source\PSoC4/cyfitter_cfg.c ****     #include <intrinsics.h>
  44:Generated_Source\PSoC4/cyfitter_cfg.c **** 
  45:Generated_Source\PSoC4/cyfitter_cfg.c ****     #define CYPACKED __packed
  46:Generated_Source\PSoC4/cyfitter_cfg.c ****     #define CYPACKED_ATTR 
  47:Generated_Source\PSoC4/cyfitter_cfg.c ****     #define CYALIGNED _Pragma("data_alignment=4")
  48:Generated_Source\PSoC4/cyfitter_cfg.c ****     #define CY_CFG_UNUSED _Pragma("diag_suppress=Pe177")
  49:Generated_Source\PSoC4/cyfitter_cfg.c ****     #define CY_CFG_SECTION _Pragma("location=\".psocinit\"")
  50:Generated_Source\PSoC4/cyfitter_cfg.c ****     
  51:Generated_Source\PSoC4/cyfitter_cfg.c ****     #define CY_CFG_MEMORY_BARRIER() __DMB()
  52:Generated_Source\PSoC4/cyfitter_cfg.c ****     
  53:Generated_Source\PSoC4/cyfitter_cfg.c **** #else
  54:Generated_Source\PSoC4/cyfitter_cfg.c ****     #error Unsupported toolchain
  55:Generated_Source\PSoC4/cyfitter_cfg.c **** #endif
  56:Generated_Source\PSoC4/cyfitter_cfg.c **** 
  57:Generated_Source\PSoC4/cyfitter_cfg.c **** 
  58:Generated_Source\PSoC4/cyfitter_cfg.c **** CY_CFG_UNUSED
  59:Generated_Source\PSoC4/cyfitter_cfg.c **** static void CYMEMZERO(void *s, size_t n);
  60:Generated_Source\PSoC4/cyfitter_cfg.c **** CY_CFG_UNUSED
  61:Generated_Source\PSoC4/cyfitter_cfg.c **** static void CYMEMZERO(void *s, size_t n)
  62:Generated_Source\PSoC4/cyfitter_cfg.c **** {
  25              		.loc 1 62 0
  26              		.cfi_startproc
  27 0000 80B5     		push	{r7, lr}
  28              		.cfi_def_cfa_offset 8
  29              		.cfi_offset 7, -8
  30              		.cfi_offset 14, -4
  31 0002 82B0     		sub	sp, sp, #8
  32              		.cfi_def_cfa_offset 16
  33 0004 00AF     		add	r7, sp, #0
  34              		.cfi_def_cfa_register 7
  35 0006 7860     		str	r0, [r7, #4]
  36 0008 3960     		str	r1, [r7]
  63:Generated_Source\PSoC4/cyfitter_cfg.c **** 	(void)memset(s, 0, n);
  37              		.loc 1 63 0
  38 000a 7A68     		ldr	r2, [r7, #4]
  39 000c 3B68     		ldr	r3, [r7]
  40 000e 101C     		mov	r0, r2
  41 0010 0021     		mov	r1, #0
  42 0012 1A1C     		mov	r2, r3
  43 0014 FFF7FEFF 		bl	memset
  64:Generated_Source\PSoC4/cyfitter_cfg.c **** }
  44              		.loc 1 64 0
  45 0018 BD46     		mov	sp, r7
  46 001a 02B0     		add	sp, sp, #8
  47              		@ sp needed
  48 001c 80BD     		pop	{r7, pc}
  49              		.cfi_endproc
  50              	.LFE1:
ARM GAS  C:\Users\GREG~1.PHI\AppData\Local\Temp\cc9aBzLn.s 			page 3


  51              		.size	CYMEMZERO, .-CYMEMZERO
  52 001e C046     		.section	.text.CYCONFIGCPY,"ax",%progbits
  53              		.align	2
  54              		.code	16
  55              		.thumb_func
  56              		.type	CYCONFIGCPY, %function
  57              	CYCONFIGCPY:
  58              	.LFB2:
  65:Generated_Source\PSoC4/cyfitter_cfg.c **** CY_CFG_UNUSED
  66:Generated_Source\PSoC4/cyfitter_cfg.c **** static void CYCONFIGCPY(void *dest, const void *src, size_t n);
  67:Generated_Source\PSoC4/cyfitter_cfg.c **** CY_CFG_UNUSED
  68:Generated_Source\PSoC4/cyfitter_cfg.c **** static void CYCONFIGCPY(void *dest, const void *src, size_t n)
  69:Generated_Source\PSoC4/cyfitter_cfg.c **** {
  59              		.loc 1 69 0
  60              		.cfi_startproc
  61 0000 80B5     		push	{r7, lr}
  62              		.cfi_def_cfa_offset 8
  63              		.cfi_offset 7, -8
  64              		.cfi_offset 14, -4
  65 0002 84B0     		sub	sp, sp, #16
  66              		.cfi_def_cfa_offset 24
  67 0004 00AF     		add	r7, sp, #0
  68              		.cfi_def_cfa_register 7
  69 0006 F860     		str	r0, [r7, #12]
  70 0008 B960     		str	r1, [r7, #8]
  71 000a 7A60     		str	r2, [r7, #4]
  70:Generated_Source\PSoC4/cyfitter_cfg.c **** 	(void)memcpy(dest, src, n);
  72              		.loc 1 70 0
  73 000c F968     		ldr	r1, [r7, #12]
  74 000e BA68     		ldr	r2, [r7, #8]
  75 0010 7B68     		ldr	r3, [r7, #4]
  76 0012 081C     		mov	r0, r1
  77 0014 111C     		mov	r1, r2
  78 0016 1A1C     		mov	r2, r3
  79 0018 FFF7FEFF 		bl	memcpy
  71:Generated_Source\PSoC4/cyfitter_cfg.c **** }
  80              		.loc 1 71 0
  81 001c BD46     		mov	sp, r7
  82 001e 04B0     		add	sp, sp, #16
  83              		@ sp needed
  84 0020 80BD     		pop	{r7, pc}
  85              		.cfi_endproc
  86              	.LFE2:
  87              		.size	CYCONFIGCPY, .-CYCONFIGCPY
  88 0022 C046     		.section	.text.CYCONFIGCPYCODE,"ax",%progbits
  89              		.align	2
  90              		.code	16
  91              		.thumb_func
  92              		.type	CYCONFIGCPYCODE, %function
  93              	CYCONFIGCPYCODE:
  94              	.LFB3:
  72:Generated_Source\PSoC4/cyfitter_cfg.c **** CY_CFG_UNUSED
  73:Generated_Source\PSoC4/cyfitter_cfg.c **** static void CYCONFIGCPYCODE(void *dest, const void *src, size_t n);
  74:Generated_Source\PSoC4/cyfitter_cfg.c **** CY_CFG_UNUSED
  75:Generated_Source\PSoC4/cyfitter_cfg.c **** static void CYCONFIGCPYCODE(void *dest, const void *src, size_t n)
  76:Generated_Source\PSoC4/cyfitter_cfg.c **** {
  95              		.loc 1 76 0
ARM GAS  C:\Users\GREG~1.PHI\AppData\Local\Temp\cc9aBzLn.s 			page 4


  96              		.cfi_startproc
  97 0000 80B5     		push	{r7, lr}
  98              		.cfi_def_cfa_offset 8
  99              		.cfi_offset 7, -8
 100              		.cfi_offset 14, -4
 101 0002 84B0     		sub	sp, sp, #16
 102              		.cfi_def_cfa_offset 24
 103 0004 00AF     		add	r7, sp, #0
 104              		.cfi_def_cfa_register 7
 105 0006 F860     		str	r0, [r7, #12]
 106 0008 B960     		str	r1, [r7, #8]
 107 000a 7A60     		str	r2, [r7, #4]
  77:Generated_Source\PSoC4/cyfitter_cfg.c **** 	(void)memcpy(dest, src, n);
 108              		.loc 1 77 0
 109 000c F968     		ldr	r1, [r7, #12]
 110 000e BA68     		ldr	r2, [r7, #8]
 111 0010 7B68     		ldr	r3, [r7, #4]
 112 0012 081C     		mov	r0, r1
 113 0014 111C     		mov	r1, r2
 114 0016 1A1C     		mov	r2, r3
 115 0018 FFF7FEFF 		bl	memcpy
  78:Generated_Source\PSoC4/cyfitter_cfg.c **** }
 116              		.loc 1 78 0
 117 001c BD46     		mov	sp, r7
 118 001e 04B0     		add	sp, sp, #16
 119              		@ sp needed
 120 0020 80BD     		pop	{r7, pc}
 121              		.cfi_endproc
 122              	.LFE3:
 123              		.size	CYCONFIGCPYCODE, .-CYCONFIGCPYCODE
 124 0022 C046     		.section	.text.cfg_write_bytes32,"ax",%progbits
 125              		.align	2
 126              		.code	16
 127              		.thumb_func
 128              		.type	cfg_write_bytes32, %function
 129              	cfg_write_bytes32:
 130              	.LFB4:
  79:Generated_Source\PSoC4/cyfitter_cfg.c **** 
  80:Generated_Source\PSoC4/cyfitter_cfg.c **** 
  81:Generated_Source\PSoC4/cyfitter_cfg.c **** 
  82:Generated_Source\PSoC4/cyfitter_cfg.c **** 
  83:Generated_Source\PSoC4/cyfitter_cfg.c **** /* Clock startup error codes                                                   */
  84:Generated_Source\PSoC4/cyfitter_cfg.c **** #define CYCLOCKSTART_NO_ERROR    0u
  85:Generated_Source\PSoC4/cyfitter_cfg.c **** #define CYCLOCKSTART_XTAL_ERROR  1u
  86:Generated_Source\PSoC4/cyfitter_cfg.c **** #define CYCLOCKSTART_32KHZ_ERROR 2u
  87:Generated_Source\PSoC4/cyfitter_cfg.c **** #define CYCLOCKSTART_PLL_ERROR   3u
  88:Generated_Source\PSoC4/cyfitter_cfg.c **** 
  89:Generated_Source\PSoC4/cyfitter_cfg.c **** 
  90:Generated_Source\PSoC4/cyfitter_cfg.c **** #ifdef CY_NEED_CYCLOCKSTARTUPERROR
  91:Generated_Source\PSoC4/cyfitter_cfg.c **** /*******************************************************************************
  92:Generated_Source\PSoC4/cyfitter_cfg.c **** * Function Name: CyClockStartupError
  93:Generated_Source\PSoC4/cyfitter_cfg.c **** ********************************************************************************
  94:Generated_Source\PSoC4/cyfitter_cfg.c **** * Summary:
  95:Generated_Source\PSoC4/cyfitter_cfg.c **** *  If an error is encountered during clock configuration (crystal startup error,
  96:Generated_Source\PSoC4/cyfitter_cfg.c **** *  PLL lock error, etc.), the system will end up here.  Unless reimplemented by
  97:Generated_Source\PSoC4/cyfitter_cfg.c **** *  the customer, this function will stop in an infinite loop.
  98:Generated_Source\PSoC4/cyfitter_cfg.c **** *
ARM GAS  C:\Users\GREG~1.PHI\AppData\Local\Temp\cc9aBzLn.s 			page 5


  99:Generated_Source\PSoC4/cyfitter_cfg.c **** * Parameters:
 100:Generated_Source\PSoC4/cyfitter_cfg.c **** *   void
 101:Generated_Source\PSoC4/cyfitter_cfg.c **** *
 102:Generated_Source\PSoC4/cyfitter_cfg.c **** * Return:
 103:Generated_Source\PSoC4/cyfitter_cfg.c **** *   void
 104:Generated_Source\PSoC4/cyfitter_cfg.c **** *
 105:Generated_Source\PSoC4/cyfitter_cfg.c **** *******************************************************************************/
 106:Generated_Source\PSoC4/cyfitter_cfg.c **** CY_CFG_UNUSED
 107:Generated_Source\PSoC4/cyfitter_cfg.c **** static void CyClockStartupError(uint8 errorCode);
 108:Generated_Source\PSoC4/cyfitter_cfg.c **** CY_CFG_UNUSED
 109:Generated_Source\PSoC4/cyfitter_cfg.c **** static void CyClockStartupError(uint8 errorCode)
 110:Generated_Source\PSoC4/cyfitter_cfg.c **** {
 111:Generated_Source\PSoC4/cyfitter_cfg.c ****     /* To remove the compiler warning if errorCode not used.                */
 112:Generated_Source\PSoC4/cyfitter_cfg.c ****     errorCode = errorCode;
 113:Generated_Source\PSoC4/cyfitter_cfg.c **** 
 114:Generated_Source\PSoC4/cyfitter_cfg.c ****     /* If we have a clock startup error (bad MHz crystal, PLL lock, etc.),  */
 115:Generated_Source\PSoC4/cyfitter_cfg.c ****     /* we will end up here to allow the customer to implement something to  */
 116:Generated_Source\PSoC4/cyfitter_cfg.c ****     /* deal with the clock condition.                                       */
 117:Generated_Source\PSoC4/cyfitter_cfg.c **** 
 118:Generated_Source\PSoC4/cyfitter_cfg.c **** #ifdef CY_CFG_CLOCK_STARTUP_ERROR_CALLBACK
 119:Generated_Source\PSoC4/cyfitter_cfg.c **** 	CY_CFG_Clock_Startup_ErrorCallback();
 120:Generated_Source\PSoC4/cyfitter_cfg.c **** #else
 121:Generated_Source\PSoC4/cyfitter_cfg.c **** 	/*  If not using CY_CFG_CLOCK_STARTUP_ERROR_CALLBACK, place your clock startup code here. */
 122:Generated_Source\PSoC4/cyfitter_cfg.c ****     /* `#START CyClockStartupError` */
 123:Generated_Source\PSoC4/cyfitter_cfg.c **** 
 124:Generated_Source\PSoC4/cyfitter_cfg.c **** 
 125:Generated_Source\PSoC4/cyfitter_cfg.c **** 
 126:Generated_Source\PSoC4/cyfitter_cfg.c ****     /* `#END` */
 127:Generated_Source\PSoC4/cyfitter_cfg.c **** 
 128:Generated_Source\PSoC4/cyfitter_cfg.c ****     /* If nothing else, stop here since the clocks have not started         */
 129:Generated_Source\PSoC4/cyfitter_cfg.c ****     /* correctly.                                                           */
 130:Generated_Source\PSoC4/cyfitter_cfg.c ****     while(1) {}
 131:Generated_Source\PSoC4/cyfitter_cfg.c **** #endif /* CY_CFG_CLOCK_STARTUP_ERROR_CALLBACK */ 
 132:Generated_Source\PSoC4/cyfitter_cfg.c **** }
 133:Generated_Source\PSoC4/cyfitter_cfg.c **** #endif
 134:Generated_Source\PSoC4/cyfitter_cfg.c **** 
 135:Generated_Source\PSoC4/cyfitter_cfg.c **** #define CY_CFG_BASE_ADDR_COUNT 5u
 136:Generated_Source\PSoC4/cyfitter_cfg.c **** CYPACKED typedef struct
 137:Generated_Source\PSoC4/cyfitter_cfg.c **** {
 138:Generated_Source\PSoC4/cyfitter_cfg.c **** 	uint8 offset;
 139:Generated_Source\PSoC4/cyfitter_cfg.c **** 	uint8 value;
 140:Generated_Source\PSoC4/cyfitter_cfg.c **** } CYPACKED_ATTR cy_cfg_addrvalue_t;
 141:Generated_Source\PSoC4/cyfitter_cfg.c **** 
 142:Generated_Source\PSoC4/cyfitter_cfg.c **** 
 143:Generated_Source\PSoC4/cyfitter_cfg.c **** 
 144:Generated_Source\PSoC4/cyfitter_cfg.c **** /*******************************************************************************
 145:Generated_Source\PSoC4/cyfitter_cfg.c **** * Function Name: cfg_write_bytes32
 146:Generated_Source\PSoC4/cyfitter_cfg.c **** ********************************************************************************
 147:Generated_Source\PSoC4/cyfitter_cfg.c **** * Summary:
 148:Generated_Source\PSoC4/cyfitter_cfg.c **** *  This function is used for setting up the chip configuration areas that
 149:Generated_Source\PSoC4/cyfitter_cfg.c **** *  contain relatively sparse data.
 150:Generated_Source\PSoC4/cyfitter_cfg.c **** *
 151:Generated_Source\PSoC4/cyfitter_cfg.c **** * Parameters:
 152:Generated_Source\PSoC4/cyfitter_cfg.c **** *   void
 153:Generated_Source\PSoC4/cyfitter_cfg.c **** *
 154:Generated_Source\PSoC4/cyfitter_cfg.c **** * Return:
 155:Generated_Source\PSoC4/cyfitter_cfg.c **** *   void
ARM GAS  C:\Users\GREG~1.PHI\AppData\Local\Temp\cc9aBzLn.s 			page 6


 156:Generated_Source\PSoC4/cyfitter_cfg.c **** *
 157:Generated_Source\PSoC4/cyfitter_cfg.c **** *******************************************************************************/
 158:Generated_Source\PSoC4/cyfitter_cfg.c **** static void cfg_write_bytes32(const uint32 addr_table[], const cy_cfg_addrvalue_t data_table[]);
 159:Generated_Source\PSoC4/cyfitter_cfg.c **** static void cfg_write_bytes32(const uint32 addr_table[], const cy_cfg_addrvalue_t data_table[])
 160:Generated_Source\PSoC4/cyfitter_cfg.c **** {
 131              		.loc 1 160 0
 132              		.cfi_startproc
 133 0000 80B5     		push	{r7, lr}
 134              		.cfi_def_cfa_offset 8
 135              		.cfi_offset 7, -8
 136              		.cfi_offset 14, -4
 137 0002 86B0     		sub	sp, sp, #24
 138              		.cfi_def_cfa_offset 32
 139 0004 00AF     		add	r7, sp, #0
 140              		.cfi_def_cfa_register 7
 141 0006 7860     		str	r0, [r7, #4]
 142 0008 3960     		str	r1, [r7]
 161:Generated_Source\PSoC4/cyfitter_cfg.c **** 	/* For 32-bit little-endian architectures */
 162:Generated_Source\PSoC4/cyfitter_cfg.c **** 	uint32 i, j = 0u;
 143              		.loc 1 162 0
 144 000a 0023     		mov	r3, #0
 145 000c 3B61     		str	r3, [r7, #16]
 163:Generated_Source\PSoC4/cyfitter_cfg.c **** 	for (i = 0u; i < CY_CFG_BASE_ADDR_COUNT; i++)
 146              		.loc 1 163 0
 147 000e 0023     		mov	r3, #0
 148 0010 7B61     		str	r3, [r7, #20]
 149 0012 2FE0     		b	.L5
 150              	.L8:
 151              	.LBB2:
 164:Generated_Source\PSoC4/cyfitter_cfg.c **** 	{
 165:Generated_Source\PSoC4/cyfitter_cfg.c **** 		uint32 baseAddr = addr_table[i];
 152              		.loc 1 165 0
 153 0014 7B69     		ldr	r3, [r7, #20]
 154 0016 9B00     		lsl	r3, r3, #2
 155 0018 7A68     		ldr	r2, [r7, #4]
 156 001a D318     		add	r3, r2, r3
 157 001c 1B68     		ldr	r3, [r3]
 158 001e BB60     		str	r3, [r7, #8]
 166:Generated_Source\PSoC4/cyfitter_cfg.c **** 		uint8 count = (uint8)baseAddr;
 159              		.loc 1 166 0
 160 0020 0F23     		mov	r3, #15
 161 0022 FB18     		add	r3, r7, r3
 162 0024 BA68     		ldr	r2, [r7, #8]
 163 0026 1A70     		strb	r2, [r3]
 167:Generated_Source\PSoC4/cyfitter_cfg.c **** 		baseAddr &= 0xFFFFFF00u;
 164              		.loc 1 167 0
 165 0028 BB68     		ldr	r3, [r7, #8]
 166 002a FF22     		mov	r2, #255
 167 002c 9343     		bic	r3, r2
 168 002e BB60     		str	r3, [r7, #8]
 168:Generated_Source\PSoC4/cyfitter_cfg.c **** 		while (count != 0u)
 169              		.loc 1 168 0
 170 0030 18E0     		b	.L6
 171              	.L7:
 169:Generated_Source\PSoC4/cyfitter_cfg.c **** 		{
 170:Generated_Source\PSoC4/cyfitter_cfg.c **** 			CY_SET_XTND_REG8((void CYFAR *)(baseAddr + data_table[j].offset), data_table[j].value);
 172              		.loc 1 170 0
ARM GAS  C:\Users\GREG~1.PHI\AppData\Local\Temp\cc9aBzLn.s 			page 7


 173 0032 3B69     		ldr	r3, [r7, #16]
 174 0034 5B00     		lsl	r3, r3, #1
 175 0036 3A68     		ldr	r2, [r7]
 176 0038 D318     		add	r3, r2, r3
 177 003a 1B78     		ldrb	r3, [r3]
 178 003c 1A1C     		mov	r2, r3
 179 003e BB68     		ldr	r3, [r7, #8]
 180 0040 D318     		add	r3, r2, r3
 181 0042 191C     		mov	r1, r3
 182 0044 3B69     		ldr	r3, [r7, #16]
 183 0046 5B00     		lsl	r3, r3, #1
 184 0048 3A68     		ldr	r2, [r7]
 185 004a D318     		add	r3, r2, r3
 186 004c 5B78     		ldrb	r3, [r3, #1]
 187 004e 0B70     		strb	r3, [r1]
 171:Generated_Source\PSoC4/cyfitter_cfg.c **** 			j++;
 188              		.loc 1 171 0
 189 0050 3B69     		ldr	r3, [r7, #16]
 190 0052 0133     		add	r3, r3, #1
 191 0054 3B61     		str	r3, [r7, #16]
 172:Generated_Source\PSoC4/cyfitter_cfg.c **** 			count--;
 192              		.loc 1 172 0
 193 0056 0F23     		mov	r3, #15
 194 0058 FB18     		add	r3, r7, r3
 195 005a 1A78     		ldrb	r2, [r3]
 196 005c 0F23     		mov	r3, #15
 197 005e FB18     		add	r3, r7, r3
 198 0060 013A     		sub	r2, r2, #1
 199 0062 1A70     		strb	r2, [r3]
 200              	.L6:
 168:Generated_Source\PSoC4/cyfitter_cfg.c **** 		{
 201              		.loc 1 168 0
 202 0064 0F23     		mov	r3, #15
 203 0066 FB18     		add	r3, r7, r3
 204 0068 1B78     		ldrb	r3, [r3]
 205 006a 002B     		cmp	r3, #0
 206 006c E1D1     		bne	.L7
 207              	.LBE2:
 163:Generated_Source\PSoC4/cyfitter_cfg.c **** 	{
 208              		.loc 1 163 0 discriminator 2
 209 006e 7B69     		ldr	r3, [r7, #20]
 210 0070 0133     		add	r3, r3, #1
 211 0072 7B61     		str	r3, [r7, #20]
 212              	.L5:
 163:Generated_Source\PSoC4/cyfitter_cfg.c **** 	{
 213              		.loc 1 163 0 is_stmt 0 discriminator 1
 214 0074 7B69     		ldr	r3, [r7, #20]
 215 0076 042B     		cmp	r3, #4
 216 0078 CCD9     		bls	.L8
 173:Generated_Source\PSoC4/cyfitter_cfg.c **** 		}
 174:Generated_Source\PSoC4/cyfitter_cfg.c **** 	}
 175:Generated_Source\PSoC4/cyfitter_cfg.c **** }
 217              		.loc 1 175 0 is_stmt 1
 218 007a BD46     		mov	sp, r7
 219 007c 06B0     		add	sp, sp, #24
 220              		@ sp needed
 221 007e 80BD     		pop	{r7, pc}
ARM GAS  C:\Users\GREG~1.PHI\AppData\Local\Temp\cc9aBzLn.s 			page 8


 222              		.cfi_endproc
 223              	.LFE4:
 224              		.size	cfg_write_bytes32, .-cfg_write_bytes32
 225              		.section	.psocinit,"ax",%progbits
 226              		.align	2
 227              		.code	16
 228              		.thumb_func
 229              		.type	ClockSetup, %function
 230              	ClockSetup:
 231              	.LFB5:
 176:Generated_Source\PSoC4/cyfitter_cfg.c **** 
 177:Generated_Source\PSoC4/cyfitter_cfg.c **** 
 178:Generated_Source\PSoC4/cyfitter_cfg.c **** /*******************************************************************************
 179:Generated_Source\PSoC4/cyfitter_cfg.c **** * Function Name: ClockSetup
 180:Generated_Source\PSoC4/cyfitter_cfg.c **** ********************************************************************************
 181:Generated_Source\PSoC4/cyfitter_cfg.c **** *
 182:Generated_Source\PSoC4/cyfitter_cfg.c **** * Summary:
 183:Generated_Source\PSoC4/cyfitter_cfg.c **** *   Performs the initialization of all of the clocks in the device based on the
 184:Generated_Source\PSoC4/cyfitter_cfg.c **** *   settings in the Clock tab of the DWR.  This includes enabling the requested
 185:Generated_Source\PSoC4/cyfitter_cfg.c **** *   clocks and setting the necessary dividers to produce the desired frequency. 
 186:Generated_Source\PSoC4/cyfitter_cfg.c **** *
 187:Generated_Source\PSoC4/cyfitter_cfg.c **** * Parameters:
 188:Generated_Source\PSoC4/cyfitter_cfg.c **** *   void
 189:Generated_Source\PSoC4/cyfitter_cfg.c **** *
 190:Generated_Source\PSoC4/cyfitter_cfg.c **** * Return:
 191:Generated_Source\PSoC4/cyfitter_cfg.c **** *   void
 192:Generated_Source\PSoC4/cyfitter_cfg.c **** *
 193:Generated_Source\PSoC4/cyfitter_cfg.c **** *******************************************************************************/
 194:Generated_Source\PSoC4/cyfitter_cfg.c **** static void ClockSetup(void);
 195:Generated_Source\PSoC4/cyfitter_cfg.c **** CY_CFG_SECTION
 196:Generated_Source\PSoC4/cyfitter_cfg.c **** static void ClockSetup(void)
 197:Generated_Source\PSoC4/cyfitter_cfg.c **** {
 232              		.loc 1 197 0
 233              		.cfi_startproc
 234 0000 80B5     		push	{r7, lr}
 235              		.cfi_def_cfa_offset 8
 236              		.cfi_offset 7, -8
 237              		.cfi_offset 14, -4
 238 0002 00AF     		add	r7, sp, #0
 239              		.cfi_def_cfa_register 7
 198:Generated_Source\PSoC4/cyfitter_cfg.c **** 
 199:Generated_Source\PSoC4/cyfitter_cfg.c **** 	/* Set Flash Cycles based on max possible frequency in case a glitch occurs during ClockSetup(). *
 200:Generated_Source\PSoC4/cyfitter_cfg.c **** 	CY_SET_REG32((void CYXDATA *)(CYREG_CPUSS_FLASH_CTL), (0x0012u));
 240              		.loc 1 200 0
 241 0004 154B     		ldr	r3, .L10
 242 0006 1222     		mov	r2, #18
 243 0008 1A60     		str	r2, [r3]
 201:Generated_Source\PSoC4/cyfitter_cfg.c **** 	/* Setup and trim IMO based on desired frequency. */
 202:Generated_Source\PSoC4/cyfitter_cfg.c **** 	CySysClkWriteImoFreq(24u);
 244              		.loc 1 202 0
 245 000a 1820     		mov	r0, #24
 246 000c FFF7FEFF 		bl	CySysClkWriteImoFreq
 203:Generated_Source\PSoC4/cyfitter_cfg.c **** 	/* CYDEV_CLK_ILO_CONFIG Starting address: CYDEV_CLK_ILO_CONFIG */
 204:Generated_Source\PSoC4/cyfitter_cfg.c **** 	CY_SET_XTND_REG32((void CYFAR *)(CYREG_CLK_ILO_CONFIG), 0x80000006u);
 247              		.loc 1 204 0
 248 0010 134B     		ldr	r3, .L10+4
 249 0012 144A     		ldr	r2, .L10+8
ARM GAS  C:\Users\GREG~1.PHI\AppData\Local\Temp\cc9aBzLn.s 			page 9


 250 0014 1A60     		str	r2, [r3]
 205:Generated_Source\PSoC4/cyfitter_cfg.c **** 
 206:Generated_Source\PSoC4/cyfitter_cfg.c **** 
 207:Generated_Source\PSoC4/cyfitter_cfg.c **** 	/* Setup phase aligned clocks */
 208:Generated_Source\PSoC4/cyfitter_cfg.c **** 	CY_SET_REG32((void *)CYREG_PERI_DIV_16_CTL1, 0x00000C00u);
 251              		.loc 1 208 0
 252 0016 144B     		ldr	r3, .L10+12
 253 0018 C022     		mov	r2, #192
 254 001a 1201     		lsl	r2, r2, #4
 255 001c 1A60     		str	r2, [r3]
 209:Generated_Source\PSoC4/cyfitter_cfg.c **** 	CY_SET_REG32((void *)CYREG_PERI_DIV_CMD, 0x8000FF41u);
 256              		.loc 1 209 0
 257 001e 134B     		ldr	r3, .L10+16
 258 0020 134A     		ldr	r2, .L10+20
 259 0022 1A60     		str	r2, [r3]
 210:Generated_Source\PSoC4/cyfitter_cfg.c **** 	CY_SET_REG32((void *)CYREG_PERI_DIV_16_CTL0, 0x00000200u);
 260              		.loc 1 210 0
 261 0024 134B     		ldr	r3, .L10+24
 262 0026 8022     		mov	r2, #128
 263 0028 9200     		lsl	r2, r2, #2
 264 002a 1A60     		str	r2, [r3]
 211:Generated_Source\PSoC4/cyfitter_cfg.c **** 	CY_SET_REG32((void *)CYREG_PERI_DIV_CMD, 0x8000FF40u);
 265              		.loc 1 211 0
 266 002c 0F4B     		ldr	r3, .L10+16
 267 002e 124A     		ldr	r2, .L10+28
 268 0030 1A60     		str	r2, [r3]
 212:Generated_Source\PSoC4/cyfitter_cfg.c **** 
 213:Generated_Source\PSoC4/cyfitter_cfg.c **** 	/* CYDEV_CLK_IMO_CONFIG Starting address: CYDEV_CLK_IMO_CONFIG */
 214:Generated_Source\PSoC4/cyfitter_cfg.c **** 	CY_SET_XTND_REG32((void CYFAR *)(CYREG_CLK_IMO_CONFIG), 0x82000000u);
 269              		.loc 1 214 0
 270 0032 124B     		ldr	r3, .L10+32
 271 0034 8222     		mov	r2, #130
 272 0036 1206     		lsl	r2, r2, #24
 273 0038 1A60     		str	r2, [r3]
 215:Generated_Source\PSoC4/cyfitter_cfg.c **** 
 216:Generated_Source\PSoC4/cyfitter_cfg.c **** 	/* CYDEV_CLK_SELECT Starting address: CYDEV_CLK_SELECT */
 217:Generated_Source\PSoC4/cyfitter_cfg.c **** 	CY_SET_XTND_REG32((void CYFAR *)(CYREG_CLK_SELECT), 0x00000000u);
 274              		.loc 1 217 0
 275 003a 114B     		ldr	r3, .L10+36
 276 003c 0022     		mov	r2, #0
 277 003e 1A60     		str	r2, [r3]
 218:Generated_Source\PSoC4/cyfitter_cfg.c **** 
 219:Generated_Source\PSoC4/cyfitter_cfg.c **** 	/* CYDEV_PERI_PCLK_CTL10 Starting address: CYDEV_PERI_PCLK_CTL10 */
 220:Generated_Source\PSoC4/cyfitter_cfg.c **** 	CY_SET_XTND_REG32((void CYFAR *)(CYREG_PERI_PCLK_CTL10), 0x00000041u);
 278              		.loc 1 220 0
 279 0040 104B     		ldr	r3, .L10+40
 280 0042 4122     		mov	r2, #65
 281 0044 1A60     		str	r2, [r3]
 221:Generated_Source\PSoC4/cyfitter_cfg.c **** 
 222:Generated_Source\PSoC4/cyfitter_cfg.c **** 	/* CYDEV_PERI_PCLK_CTL5 Starting address: CYDEV_PERI_PCLK_CTL5 */
 223:Generated_Source\PSoC4/cyfitter_cfg.c **** 	CY_SET_XTND_REG32((void CYFAR *)(CYREG_PERI_PCLK_CTL5), 0x00000040u);
 282              		.loc 1 223 0
 283 0046 104B     		ldr	r3, .L10+44
 284 0048 4022     		mov	r2, #64
 285 004a 1A60     		str	r2, [r3]
 224:Generated_Source\PSoC4/cyfitter_cfg.c **** 
 225:Generated_Source\PSoC4/cyfitter_cfg.c **** 	CY_SET_XTND_REG32((void CYFAR *)(CYREG_WDT_CONFIG), 0x00000000u);
ARM GAS  C:\Users\GREG~1.PHI\AppData\Local\Temp\cc9aBzLn.s 			page 10


 286              		.loc 1 225 0
 287 004c 0F4B     		ldr	r3, .L10+48
 288 004e 0022     		mov	r2, #0
 289 0050 1A60     		str	r2, [r3]
 226:Generated_Source\PSoC4/cyfitter_cfg.c **** 	/* Set Flash Cycles based on newly configured 24.00MHz HFCLK. */
 227:Generated_Source\PSoC4/cyfitter_cfg.c **** 	CY_SET_REG32((void CYXDATA *)(CYREG_CPUSS_FLASH_CTL), (0x0011u));
 290              		.loc 1 227 0
 291 0052 024B     		ldr	r3, .L10
 292 0054 1122     		mov	r2, #17
 293 0056 1A60     		str	r2, [r3]
 228:Generated_Source\PSoC4/cyfitter_cfg.c **** }
 294              		.loc 1 228 0
 295 0058 BD46     		mov	sp, r7
 296              		@ sp needed
 297 005a 80BD     		pop	{r7, pc}
 298              	.L11:
 299              		.align	2
 300              	.L10:
 301 005c 30001040 		.word	1074790448
 302 0060 04010B40 		.word	1074462980
 303 0064 06000080 		.word	-2147483642
 304 0068 04030140 		.word	1073808132
 305 006c 00000140 		.word	1073807360
 306 0070 41FF0080 		.word	-2147418303
 307 0074 00030140 		.word	1073808128
 308 0078 40FF0080 		.word	-2147418304
 309 007c 08010B40 		.word	1074462984
 310 0080 00010B40 		.word	1074462976
 311 0084 28010140 		.word	1073807656
 312 0088 14010140 		.word	1073807636
 313 008c 0C020B40 		.word	1074463244
 314              		.cfi_endproc
 315              	.LFE5:
 316              		.size	ClockSetup, .-ClockSetup
 317              		.section	.text.AnalogSetDefault,"ax",%progbits
 318              		.align	2
 319              		.code	16
 320              		.thumb_func
 321              		.type	AnalogSetDefault, %function
 322              	AnalogSetDefault:
 323              	.LFB6:
 229:Generated_Source\PSoC4/cyfitter_cfg.c **** 
 230:Generated_Source\PSoC4/cyfitter_cfg.c **** 
 231:Generated_Source\PSoC4/cyfitter_cfg.c **** /* Analog API Functions */
 232:Generated_Source\PSoC4/cyfitter_cfg.c **** 
 233:Generated_Source\PSoC4/cyfitter_cfg.c **** 
 234:Generated_Source\PSoC4/cyfitter_cfg.c **** /*******************************************************************************
 235:Generated_Source\PSoC4/cyfitter_cfg.c **** * Function Name: AnalogSetDefault
 236:Generated_Source\PSoC4/cyfitter_cfg.c **** ********************************************************************************
 237:Generated_Source\PSoC4/cyfitter_cfg.c **** *
 238:Generated_Source\PSoC4/cyfitter_cfg.c **** * Summary:
 239:Generated_Source\PSoC4/cyfitter_cfg.c **** *  Sets up the analog portions of the chip to default values based on chip
 240:Generated_Source\PSoC4/cyfitter_cfg.c **** *  configuration options from the project.
 241:Generated_Source\PSoC4/cyfitter_cfg.c **** *
 242:Generated_Source\PSoC4/cyfitter_cfg.c **** * Parameters:
 243:Generated_Source\PSoC4/cyfitter_cfg.c **** *  void
 244:Generated_Source\PSoC4/cyfitter_cfg.c **** *
ARM GAS  C:\Users\GREG~1.PHI\AppData\Local\Temp\cc9aBzLn.s 			page 11


 245:Generated_Source\PSoC4/cyfitter_cfg.c **** * Return:
 246:Generated_Source\PSoC4/cyfitter_cfg.c **** *  void
 247:Generated_Source\PSoC4/cyfitter_cfg.c **** *
 248:Generated_Source\PSoC4/cyfitter_cfg.c **** *******************************************************************************/
 249:Generated_Source\PSoC4/cyfitter_cfg.c **** static void AnalogSetDefault(void);
 250:Generated_Source\PSoC4/cyfitter_cfg.c **** static void AnalogSetDefault(void)
 251:Generated_Source\PSoC4/cyfitter_cfg.c **** {
 324              		.loc 1 251 0
 325              		.cfi_startproc
 326 0000 80B5     		push	{r7, lr}
 327              		.cfi_def_cfa_offset 8
 328              		.cfi_offset 7, -8
 329              		.cfi_offset 14, -4
 330 0002 00AF     		add	r7, sp, #0
 331              		.cfi_def_cfa_register 7
 252:Generated_Source\PSoC4/cyfitter_cfg.c **** 	CY_SET_XTND_REG32((void CYFAR *)CYREG_CTBM0_CTB_CTRL, 0x80000000u);
 332              		.loc 1 252 0
 333 0004 0F4B     		ldr	r3, .L13
 334 0006 8022     		mov	r2, #128
 335 0008 1206     		lsl	r2, r2, #24
 336 000a 1A60     		str	r2, [r3]
 253:Generated_Source\PSoC4/cyfitter_cfg.c **** 	CY_SET_XTND_REG32((void CYFAR *)CYREG_CTBM0_DFT_CTRL, 0x00000003u);
 337              		.loc 1 253 0
 338 000c 0E4B     		ldr	r3, .L13+4
 339 000e 0322     		mov	r2, #3
 340 0010 1A60     		str	r2, [r3]
 254:Generated_Source\PSoC4/cyfitter_cfg.c **** 	CY_SET_XTND_REG32((void CYFAR *)CYREG_CTBM0_OA0_SW, 0x00204004u);
 341              		.loc 1 254 0
 342 0012 0E4B     		ldr	r3, .L13+8
 343 0014 0E4A     		ldr	r2, .L13+12
 344 0016 1A60     		str	r2, [r3]
 255:Generated_Source\PSoC4/cyfitter_cfg.c **** 	CY_SET_XTND_REG32((void CYFAR *)CYREG_CTBM1_DFT_CTRL, 0x00000003u);
 345              		.loc 1 255 0
 346 0018 0E4B     		ldr	r3, .L13+16
 347 001a 0322     		mov	r2, #3
 348 001c 1A60     		str	r2, [r3]
 256:Generated_Source\PSoC4/cyfitter_cfg.c **** 	CY_SET_XTND_REG32((void CYFAR *)CYREG_SAR_CTRL, 0x80000000u);
 349              		.loc 1 256 0
 350 001e 0E4B     		ldr	r3, .L13+20
 351 0020 8022     		mov	r2, #128
 352 0022 1206     		lsl	r2, r2, #24
 353 0024 1A60     		str	r2, [r3]
 257:Generated_Source\PSoC4/cyfitter_cfg.c **** 	CY_SET_XTND_REG32((void CYFAR *)CYREG_SAR_MUX_SWITCH0, 0x0000AA55u);
 354              		.loc 1 257 0
 355 0026 0D4B     		ldr	r3, .L13+24
 356 0028 0D4A     		ldr	r2, .L13+28
 357 002a 1A60     		str	r2, [r3]
 258:Generated_Source\PSoC4/cyfitter_cfg.c **** 	CY_SET_XTND_REG32((void CYFAR *)CYREG_SAR_MUX_SWITCH_HW_CTRL, 0x000000FFu);
 358              		.loc 1 258 0
 359 002c 0D4B     		ldr	r3, .L13+32
 360 002e FF22     		mov	r2, #255
 361 0030 1A60     		str	r2, [r3]
 259:Generated_Source\PSoC4/cyfitter_cfg.c **** 	CY_SET_XTND_REG32((void CYFAR *)CYREG_PASS_DSAB_DSAB_CTRL, 0x00000000u);
 362              		.loc 1 259 0
 363 0032 0D4B     		ldr	r3, .L13+36
 364 0034 0022     		mov	r2, #0
 365 0036 1A60     		str	r2, [r3]
ARM GAS  C:\Users\GREG~1.PHI\AppData\Local\Temp\cc9aBzLn.s 			page 12


 260:Generated_Source\PSoC4/cyfitter_cfg.c **** 	SetAnalogRoutingPumps(1);
 366              		.loc 1 260 0
 367 0038 0120     		mov	r0, #1
 368 003a FFF7FEFF 		bl	SetAnalogRoutingPumps
 261:Generated_Source\PSoC4/cyfitter_cfg.c **** }
 369              		.loc 1 261 0
 370 003e BD46     		mov	sp, r7
 371              		@ sp needed
 372 0040 80BD     		pop	{r7, pc}
 373              	.L14:
 374 0042 C046     		.align	2
 375              	.L13:
 376 0044 00003040 		.word	1076887552
 377 0048 30003040 		.word	1076887600
 378 004c 80003040 		.word	1076887680
 379 0050 04402000 		.word	2113540
 380 0054 30003140 		.word	1076953136
 381 0058 00003A40 		.word	1077542912
 382 005c 00033A40 		.word	1077543680
 383 0060 55AA0000 		.word	43605
 384 0064 40033A40 		.word	1077543744
 385 0068 000E3F40 		.word	1077874176
 386              		.cfi_endproc
 387              	.LFE6:
 388              		.size	AnalogSetDefault, .-AnalogSetDefault
 389              		.section	.text.SetAnalogRoutingPumps,"ax",%progbits
 390              		.align	2
 391              		.global	SetAnalogRoutingPumps
 392              		.code	16
 393              		.thumb_func
 394              		.type	SetAnalogRoutingPumps, %function
 395              	SetAnalogRoutingPumps:
 396              	.LFB7:
 262:Generated_Source\PSoC4/cyfitter_cfg.c **** 
 263:Generated_Source\PSoC4/cyfitter_cfg.c **** 
 264:Generated_Source\PSoC4/cyfitter_cfg.c **** /*******************************************************************************
 265:Generated_Source\PSoC4/cyfitter_cfg.c **** * Function Name: SetAnalogRoutingPumps
 266:Generated_Source\PSoC4/cyfitter_cfg.c **** ********************************************************************************
 267:Generated_Source\PSoC4/cyfitter_cfg.c **** *
 268:Generated_Source\PSoC4/cyfitter_cfg.c **** * Summary:
 269:Generated_Source\PSoC4/cyfitter_cfg.c **** * Enables or disables the analog pumps feeding analog routing switches.
 270:Generated_Source\PSoC4/cyfitter_cfg.c **** * Intended to be called at startup, based on the Vdda system configuration;
 271:Generated_Source\PSoC4/cyfitter_cfg.c **** * may be called during operation when the user informs us that the Vdda voltage crossed the pump th
 272:Generated_Source\PSoC4/cyfitter_cfg.c **** *
 273:Generated_Source\PSoC4/cyfitter_cfg.c **** * Parameters:
 274:Generated_Source\PSoC4/cyfitter_cfg.c **** *  enabled - 1 to enable the pumps, 0 to disable the pumps
 275:Generated_Source\PSoC4/cyfitter_cfg.c **** *
 276:Generated_Source\PSoC4/cyfitter_cfg.c **** * Return:
 277:Generated_Source\PSoC4/cyfitter_cfg.c **** *  void
 278:Generated_Source\PSoC4/cyfitter_cfg.c **** *
 279:Generated_Source\PSoC4/cyfitter_cfg.c **** *******************************************************************************/
 280:Generated_Source\PSoC4/cyfitter_cfg.c **** void SetAnalogRoutingPumps(uint8 enabled)
 281:Generated_Source\PSoC4/cyfitter_cfg.c **** {
 397              		.loc 1 281 0
 398              		.cfi_startproc
 399 0000 80B5     		push	{r7, lr}
 400              		.cfi_def_cfa_offset 8
ARM GAS  C:\Users\GREG~1.PHI\AppData\Local\Temp\cc9aBzLn.s 			page 13


 401              		.cfi_offset 7, -8
 402              		.cfi_offset 14, -4
 403 0002 84B0     		sub	sp, sp, #16
 404              		.cfi_def_cfa_offset 24
 405 0004 00AF     		add	r7, sp, #0
 406              		.cfi_def_cfa_register 7
 407 0006 021C     		mov	r2, r0
 408 0008 FB1D     		add	r3, r7, #7
 409 000a 1A70     		strb	r2, [r3]
 282:Generated_Source\PSoC4/cyfitter_cfg.c **** 	uint32 regValue = CY_GET_XTND_REG32((void *)(CYREG_SAR_PUMP_CTRL));
 410              		.loc 1 282 0
 411 000c 0B4B     		ldr	r3, .L18
 412 000e 1B68     		ldr	r3, [r3]
 413 0010 FB60     		str	r3, [r7, #12]
 283:Generated_Source\PSoC4/cyfitter_cfg.c **** 	if (enabled != 0u)
 414              		.loc 1 283 0
 415 0012 FB1D     		add	r3, r7, #7
 416 0014 1B78     		ldrb	r3, [r3]
 417 0016 002B     		cmp	r3, #0
 418 0018 05D0     		beq	.L16
 284:Generated_Source\PSoC4/cyfitter_cfg.c **** 	{
 285:Generated_Source\PSoC4/cyfitter_cfg.c **** 		regValue |= 0x80000000u;
 419              		.loc 1 285 0
 420 001a FB68     		ldr	r3, [r7, #12]
 421 001c 8022     		mov	r2, #128
 422 001e 1206     		lsl	r2, r2, #24
 423 0020 1343     		orr	r3, r2
 424 0022 FB60     		str	r3, [r7, #12]
 425 0024 03E0     		b	.L17
 426              	.L16:
 286:Generated_Source\PSoC4/cyfitter_cfg.c **** 	}
 287:Generated_Source\PSoC4/cyfitter_cfg.c **** 	else
 288:Generated_Source\PSoC4/cyfitter_cfg.c **** 	{
 289:Generated_Source\PSoC4/cyfitter_cfg.c **** 		regValue &= ~0x80000000u;
 427              		.loc 1 289 0
 428 0026 FB68     		ldr	r3, [r7, #12]
 429 0028 5B00     		lsl	r3, r3, #1
 430 002a 5B08     		lsr	r3, r3, #1
 431 002c FB60     		str	r3, [r7, #12]
 432              	.L17:
 290:Generated_Source\PSoC4/cyfitter_cfg.c **** 	}
 291:Generated_Source\PSoC4/cyfitter_cfg.c **** 	CY_SET_XTND_REG32((void *)(CYREG_SAR_PUMP_CTRL), regValue);
 433              		.loc 1 291 0
 434 002e 034B     		ldr	r3, .L18
 435 0030 FA68     		ldr	r2, [r7, #12]
 436 0032 1A60     		str	r2, [r3]
 292:Generated_Source\PSoC4/cyfitter_cfg.c **** }
 437              		.loc 1 292 0
 438 0034 BD46     		mov	sp, r7
 439 0036 04B0     		add	sp, sp, #16
 440              		@ sp needed
 441 0038 80BD     		pop	{r7, pc}
 442              	.L19:
 443 003a C046     		.align	2
 444              	.L18:
 445 003c 80033A40 		.word	1077543808
 446              		.cfi_endproc
ARM GAS  C:\Users\GREG~1.PHI\AppData\Local\Temp\cc9aBzLn.s 			page 14


 447              	.LFE7:
 448              		.size	SetAnalogRoutingPumps, .-SetAnalogRoutingPumps
 449              		.section	.psocinit
 450              		.align	2
 451              		.global	cyfitter_cfg
 452              		.code	16
 453              		.thumb_func
 454              		.type	cyfitter_cfg, %function
 455              	cyfitter_cfg:
 456              	.LFB8:
 293:Generated_Source\PSoC4/cyfitter_cfg.c **** 
 294:Generated_Source\PSoC4/cyfitter_cfg.c **** #define CY_AMUX_UNUSED CYREG_CM0_ROM_DWT
 295:Generated_Source\PSoC4/cyfitter_cfg.c **** 
 296:Generated_Source\PSoC4/cyfitter_cfg.c **** 
 297:Generated_Source\PSoC4/cyfitter_cfg.c **** /*******************************************************************************
 298:Generated_Source\PSoC4/cyfitter_cfg.c **** * Function Name: cyfitter_cfg
 299:Generated_Source\PSoC4/cyfitter_cfg.c **** ********************************************************************************
 300:Generated_Source\PSoC4/cyfitter_cfg.c **** * Summary:
 301:Generated_Source\PSoC4/cyfitter_cfg.c **** *  This function is called by the start-up code for the selected device. It
 302:Generated_Source\PSoC4/cyfitter_cfg.c **** *  performs all of the necessary device configuration based on the design
 303:Generated_Source\PSoC4/cyfitter_cfg.c **** *  settings.  This includes settings from the Design Wide Resources (DWR) such
 304:Generated_Source\PSoC4/cyfitter_cfg.c **** *  as Clocks and Pins as well as any component configuration that is necessary.
 305:Generated_Source\PSoC4/cyfitter_cfg.c **** *
 306:Generated_Source\PSoC4/cyfitter_cfg.c **** * Parameters:  
 307:Generated_Source\PSoC4/cyfitter_cfg.c **** *   void
 308:Generated_Source\PSoC4/cyfitter_cfg.c **** *
 309:Generated_Source\PSoC4/cyfitter_cfg.c **** * Return:
 310:Generated_Source\PSoC4/cyfitter_cfg.c **** *   void
 311:Generated_Source\PSoC4/cyfitter_cfg.c **** *
 312:Generated_Source\PSoC4/cyfitter_cfg.c **** *******************************************************************************/
 313:Generated_Source\PSoC4/cyfitter_cfg.c **** CY_CFG_SECTION
 314:Generated_Source\PSoC4/cyfitter_cfg.c **** void cyfitter_cfg(void)
 315:Generated_Source\PSoC4/cyfitter_cfg.c **** {
 457              		.loc 1 315 0
 458              		.cfi_startproc
 459 0090 80B5     		push	{r7, lr}
 460              		.cfi_def_cfa_offset 8
 461              		.cfi_offset 7, -8
 462              		.cfi_offset 14, -4
 463 0092 82B0     		sub	sp, sp, #8
 464              		.cfi_def_cfa_offset 16
 465 0094 00AF     		add	r7, sp, #0
 466              		.cfi_def_cfa_register 7
 316:Generated_Source\PSoC4/cyfitter_cfg.c **** 	/* Disable interrupts by default. Let user enable if/when they want. */
 317:Generated_Source\PSoC4/cyfitter_cfg.c **** 	CyGlobalIntDisable;
 467              		.loc 1 317 0
 468              	@ 317 "Generated_Source\PSoC4\cyfitter_cfg.c" 1
 469 0096 72B6     		CPSID   i
 470              	@ 0 "" 2
 471              		.code	16
 472              	.LBB3:
 318:Generated_Source\PSoC4/cyfitter_cfg.c **** 
 319:Generated_Source\PSoC4/cyfitter_cfg.c **** 	{
 320:Generated_Source\PSoC4/cyfitter_cfg.c **** 		static const uint32 CYCODE cy_cfg_addr_table[] = {
 321:Generated_Source\PSoC4/cyfitter_cfg.c **** 			0x400F3204u, /* Base address: 0x400F3200 Count: 4 */
 322:Generated_Source\PSoC4/cyfitter_cfg.c **** 			0x400F3301u, /* Base address: 0x400F3300 Count: 1 */
 323:Generated_Source\PSoC4/cyfitter_cfg.c **** 			0x400F3501u, /* Base address: 0x400F3500 Count: 1 */
ARM GAS  C:\Users\GREG~1.PHI\AppData\Local\Temp\cc9aBzLn.s 			page 15


 324:Generated_Source\PSoC4/cyfitter_cfg.c **** 			0x400F4502u, /* Base address: 0x400F4500 Count: 2 */
 325:Generated_Source\PSoC4/cyfitter_cfg.c **** 			0x400F4602u, /* Base address: 0x400F4600 Count: 2 */
 326:Generated_Source\PSoC4/cyfitter_cfg.c **** 		};
 327:Generated_Source\PSoC4/cyfitter_cfg.c **** 
 328:Generated_Source\PSoC4/cyfitter_cfg.c **** 		static const cy_cfg_addrvalue_t CYCODE cy_cfg_data_table[] = {
 329:Generated_Source\PSoC4/cyfitter_cfg.c **** 			{0xB8u, 0x02u},
 330:Generated_Source\PSoC4/cyfitter_cfg.c **** 			{0xBEu, 0x01u},
 331:Generated_Source\PSoC4/cyfitter_cfg.c **** 			{0xD8u, 0x04u},
 332:Generated_Source\PSoC4/cyfitter_cfg.c **** 			{0xDFu, 0x01u},
 333:Generated_Source\PSoC4/cyfitter_cfg.c **** 			{0x18u, 0x80u},
 334:Generated_Source\PSoC4/cyfitter_cfg.c **** 			{0xB4u, 0x40u},
 335:Generated_Source\PSoC4/cyfitter_cfg.c **** 			{0x38u, 0x01u},
 336:Generated_Source\PSoC4/cyfitter_cfg.c **** 			{0xCEu, 0x02u},
 337:Generated_Source\PSoC4/cyfitter_cfg.c **** 			{0xB4u, 0x01u},
 338:Generated_Source\PSoC4/cyfitter_cfg.c **** 			{0xECu, 0x08u},
 339:Generated_Source\PSoC4/cyfitter_cfg.c **** 		};
 340:Generated_Source\PSoC4/cyfitter_cfg.c **** 
 341:Generated_Source\PSoC4/cyfitter_cfg.c **** 
 342:Generated_Source\PSoC4/cyfitter_cfg.c **** 
 343:Generated_Source\PSoC4/cyfitter_cfg.c **** 		CYPACKED typedef struct {
 344:Generated_Source\PSoC4/cyfitter_cfg.c **** 			void CYFAR *address;
 345:Generated_Source\PSoC4/cyfitter_cfg.c **** 			uint16 size;
 346:Generated_Source\PSoC4/cyfitter_cfg.c **** 		} CYPACKED_ATTR cfg_memset_t;
 347:Generated_Source\PSoC4/cyfitter_cfg.c **** 
 348:Generated_Source\PSoC4/cyfitter_cfg.c **** 		static const cfg_memset_t CYCODE cfg_memset_list [] = {
 349:Generated_Source\PSoC4/cyfitter_cfg.c **** 			/* address, size */
 350:Generated_Source\PSoC4/cyfitter_cfg.c **** 			{(void CYFAR *)(CYDEV_UDB_P0_U0_BASE), 2048u},
 351:Generated_Source\PSoC4/cyfitter_cfg.c **** 			{(void CYFAR *)(CYDEV_UDB_DSI0_BASE), 2048u},
 352:Generated_Source\PSoC4/cyfitter_cfg.c **** 		};
 353:Generated_Source\PSoC4/cyfitter_cfg.c **** 
 354:Generated_Source\PSoC4/cyfitter_cfg.c **** 		uint8 CYDATA i;
 355:Generated_Source\PSoC4/cyfitter_cfg.c **** 
 356:Generated_Source\PSoC4/cyfitter_cfg.c **** 		/* Zero out critical memory blocks before beginning configuration */
 357:Generated_Source\PSoC4/cyfitter_cfg.c **** 		for (i = 0u; i < (sizeof(cfg_memset_list)/sizeof(cfg_memset_list[0])); i++)
 473              		.loc 1 357 0
 474 0098 FB1D     		add	r3, r7, #7
 475 009a 0022     		mov	r2, #0
 476 009c 1A70     		strb	r2, [r3]
 477 009e 23E0     		b	.L21
 478              	.L22:
 479              	.LBB4:
 358:Generated_Source\PSoC4/cyfitter_cfg.c **** 		{
 359:Generated_Source\PSoC4/cyfitter_cfg.c **** 			const cfg_memset_t CYCODE * CYDATA ms = &cfg_memset_list[i];
 480              		.loc 1 359 0 discriminator 3
 481 00a0 FB1D     		add	r3, r7, #7
 482 00a2 1A78     		ldrb	r2, [r3]
 483 00a4 131C     		mov	r3, r2
 484 00a6 5B00     		lsl	r3, r3, #1
 485 00a8 9B18     		add	r3, r3, r2
 486 00aa 5B00     		lsl	r3, r3, #1
 487 00ac 4E4A     		ldr	r2, .L23
 488 00ae 9B18     		add	r3, r3, r2
 489 00b0 3B60     		str	r3, [r7]
 360:Generated_Source\PSoC4/cyfitter_cfg.c **** 			CYMEMZERO(ms->address, (size_t)(uint32)(ms->size));
 490              		.loc 1 360 0 discriminator 3
 491 00b2 3B68     		ldr	r3, [r7]
 492 00b4 1A78     		ldrb	r2, [r3]
ARM GAS  C:\Users\GREG~1.PHI\AppData\Local\Temp\cc9aBzLn.s 			page 16


 493 00b6 5978     		ldrb	r1, [r3, #1]
 494 00b8 0902     		lsl	r1, r1, #8
 495 00ba 0A43     		orr	r2, r1
 496 00bc 9978     		ldrb	r1, [r3, #2]
 497 00be 0904     		lsl	r1, r1, #16
 498 00c0 0A43     		orr	r2, r1
 499 00c2 DB78     		ldrb	r3, [r3, #3]
 500 00c4 1B06     		lsl	r3, r3, #24
 501 00c6 1343     		orr	r3, r2
 502 00c8 191C     		mov	r1, r3
 503 00ca 3B68     		ldr	r3, [r7]
 504 00cc 1A79     		ldrb	r2, [r3, #4]
 505 00ce 5B79     		ldrb	r3, [r3, #5]
 506 00d0 1B02     		lsl	r3, r3, #8
 507 00d2 1343     		orr	r3, r2
 508 00d4 9BB2     		uxth	r3, r3
 509 00d6 081C     		mov	r0, r1
 510 00d8 191C     		mov	r1, r3
 511 00da FFF7FEFF 		bl	CYMEMZERO
 512              	.LBE4:
 357:Generated_Source\PSoC4/cyfitter_cfg.c **** 		{
 513              		.loc 1 357 0 discriminator 3
 514 00de FB1D     		add	r3, r7, #7
 515 00e0 1A78     		ldrb	r2, [r3]
 516 00e2 FB1D     		add	r3, r7, #7
 517 00e4 0132     		add	r2, r2, #1
 518 00e6 1A70     		strb	r2, [r3]
 519              	.L21:
 357:Generated_Source\PSoC4/cyfitter_cfg.c **** 		{
 520              		.loc 1 357 0 is_stmt 0 discriminator 1
 521 00e8 FB1D     		add	r3, r7, #7
 522 00ea 1B78     		ldrb	r3, [r3]
 523 00ec 012B     		cmp	r3, #1
 524 00ee D7D9     		bls	.L22
 361:Generated_Source\PSoC4/cyfitter_cfg.c **** 		}
 362:Generated_Source\PSoC4/cyfitter_cfg.c **** 
 363:Generated_Source\PSoC4/cyfitter_cfg.c **** 		cfg_write_bytes32(cy_cfg_addr_table, cy_cfg_data_table);
 525              		.loc 1 363 0 is_stmt 1
 526 00f0 3E4A     		ldr	r2, .L23+4
 527 00f2 3F4B     		ldr	r3, .L23+8
 528 00f4 101C     		mov	r0, r2
 529 00f6 191C     		mov	r1, r3
 530 00f8 FFF7FEFF 		bl	cfg_write_bytes32
 364:Generated_Source\PSoC4/cyfitter_cfg.c **** 
 365:Generated_Source\PSoC4/cyfitter_cfg.c **** 		/* HSIOM Starting address: CYDEV_HSIOM_BASE */
 366:Generated_Source\PSoC4/cyfitter_cfg.c **** 		CY_SET_XTND_REG32((void CYFAR *)(CYREG_HSIOM_PORT_SEL3), 0x0000EE00u);
 531              		.loc 1 366 0
 532 00fc 3D4B     		ldr	r3, .L23+12
 533 00fe EE22     		mov	r2, #238
 534 0100 1202     		lsl	r2, r2, #8
 535 0102 1A60     		str	r2, [r3]
 367:Generated_Source\PSoC4/cyfitter_cfg.c **** 		CY_SET_XTND_REG32((void CYFAR *)(CYREG_HSIOM_PORT_SEL6), 0x0000FFFFu);
 536              		.loc 1 367 0
 537 0104 3C4B     		ldr	r3, .L23+16
 538 0106 3D4A     		ldr	r2, .L23+20
 539 0108 1A60     		str	r2, [r3]
 368:Generated_Source\PSoC4/cyfitter_cfg.c **** 		CY_SET_XTND_REG32((void CYFAR *)(CYREG_HSIOM_PORT_SEL8), 0x00000600u);
ARM GAS  C:\Users\GREG~1.PHI\AppData\Local\Temp\cc9aBzLn.s 			page 17


 540              		.loc 1 368 0
 541 010a 3D4B     		ldr	r3, .L23+24
 542 010c C022     		mov	r2, #192
 543 010e D200     		lsl	r2, r2, #3
 544 0110 1A60     		str	r2, [r3]
 369:Generated_Source\PSoC4/cyfitter_cfg.c **** 
 370:Generated_Source\PSoC4/cyfitter_cfg.c **** 		/* UDB_PA_0 Starting address: CYDEV_UDB_PA0_BASE */
 371:Generated_Source\PSoC4/cyfitter_cfg.c **** 		CY_SET_XTND_REG32((void CYFAR *)(CYDEV_UDB_PA0_BASE), 0x00990000u);
 545              		.loc 1 371 0
 546 0112 3C4B     		ldr	r3, .L23+28
 547 0114 9922     		mov	r2, #153
 548 0116 1204     		lsl	r2, r2, #16
 549 0118 1A60     		str	r2, [r3]
 372:Generated_Source\PSoC4/cyfitter_cfg.c **** 
 373:Generated_Source\PSoC4/cyfitter_cfg.c **** 		/* UDB_PA_1 Starting address: CYDEV_UDB_PA1_BASE */
 374:Generated_Source\PSoC4/cyfitter_cfg.c **** 		CY_SET_XTND_REG32((void CYFAR *)(CYDEV_UDB_PA1_BASE), 0x00990000u);
 550              		.loc 1 374 0
 551 011a 3B4B     		ldr	r3, .L23+32
 552 011c 9922     		mov	r2, #153
 553 011e 1204     		lsl	r2, r2, #16
 554 0120 1A60     		str	r2, [r3]
 375:Generated_Source\PSoC4/cyfitter_cfg.c **** 
 376:Generated_Source\PSoC4/cyfitter_cfg.c **** 		/* UDB_PA_2 Starting address: CYDEV_UDB_PA2_BASE */
 377:Generated_Source\PSoC4/cyfitter_cfg.c **** 		CY_SET_XTND_REG32((void CYFAR *)(CYDEV_UDB_PA2_BASE), 0x00990000u);
 555              		.loc 1 377 0
 556 0122 3A4B     		ldr	r3, .L23+36
 557 0124 9922     		mov	r2, #153
 558 0126 1204     		lsl	r2, r2, #16
 559 0128 1A60     		str	r2, [r3]
 378:Generated_Source\PSoC4/cyfitter_cfg.c **** 
 379:Generated_Source\PSoC4/cyfitter_cfg.c **** 		/* UDB_PA_4 Starting address: CYDEV_UDB_PA4_BASE */
 380:Generated_Source\PSoC4/cyfitter_cfg.c **** 		CY_SET_XTND_REG32((void CYFAR *)(CYDEV_UDB_PA4_BASE), 0x00990000u);
 560              		.loc 1 380 0
 561 012a 394B     		ldr	r3, .L23+40
 562 012c 9922     		mov	r2, #153
 563 012e 1204     		lsl	r2, r2, #16
 564 0130 1A60     		str	r2, [r3]
 381:Generated_Source\PSoC4/cyfitter_cfg.c **** 
 382:Generated_Source\PSoC4/cyfitter_cfg.c **** 		/* UDB_PA_7 Starting address: CYDEV_UDB_PA7_BASE */
 383:Generated_Source\PSoC4/cyfitter_cfg.c **** 		CY_SET_XTND_REG32((void CYFAR *)(CYDEV_UDB_PA7_BASE), 0x00990000u);
 565              		.loc 1 383 0
 566 0132 384B     		ldr	r3, .L23+44
 567 0134 9922     		mov	r2, #153
 568 0136 1204     		lsl	r2, r2, #16
 569 0138 1A60     		str	r2, [r3]
 384:Generated_Source\PSoC4/cyfitter_cfg.c **** 
 385:Generated_Source\PSoC4/cyfitter_cfg.c **** 		/* Enable digital routing */
 386:Generated_Source\PSoC4/cyfitter_cfg.c **** 		CY_SET_XTND_REG8((void *)CYREG_UDB_UDB_BANK_CTL, CY_GET_XTND_REG8((void *)CYREG_UDB_UDB_BANK_CTL)
 570              		.loc 1 386 0
 571 013a 374A     		ldr	r2, .L23+48
 572 013c 364B     		ldr	r3, .L23+48
 573 013e 1B78     		ldrb	r3, [r3]
 574 0140 DBB2     		uxtb	r3, r3
 575 0142 0221     		mov	r1, #2
 576 0144 0B43     		orr	r3, r1
 577 0146 DBB2     		uxtb	r3, r3
 578 0148 1370     		strb	r3, [r2]
ARM GAS  C:\Users\GREG~1.PHI\AppData\Local\Temp\cc9aBzLn.s 			page 18


 387:Generated_Source\PSoC4/cyfitter_cfg.c **** 
 388:Generated_Source\PSoC4/cyfitter_cfg.c **** 		/* Enable UDB array */
 389:Generated_Source\PSoC4/cyfitter_cfg.c **** 		CY_SET_XTND_REG8((void *)CYREG_UDB_UDB_WAIT_CFG, (uint8)((CY_GET_XTND_REG8((void *)CYREG_UDB_UDB_
 579              		.loc 1 389 0
 580 014a 344A     		ldr	r2, .L23+52
 581 014c 334B     		ldr	r3, .L23+52
 582 014e 1B78     		ldrb	r3, [r3]
 583 0150 DBB2     		uxtb	r3, r3
 584 0152 3C21     		mov	r1, #60
 585 0154 8B43     		bic	r3, r1
 586 0156 DBB2     		uxtb	r3, r3
 587 0158 1421     		mov	r1, #20
 588 015a 0B43     		orr	r3, r1
 589 015c DBB2     		uxtb	r3, r3
 590 015e 1370     		strb	r3, [r2]
 390:Generated_Source\PSoC4/cyfitter_cfg.c **** 		CY_SET_XTND_REG8((void *)CYREG_UDB_UDB_BANK_CTL, (uint8)(CY_GET_XTND_REG8((void *)CYREG_UDB_UDB_B
 591              		.loc 1 390 0
 592 0160 2D4A     		ldr	r2, .L23+48
 593 0162 2D4B     		ldr	r3, .L23+48
 594 0164 1B78     		ldrb	r3, [r3]
 595 0166 DBB2     		uxtb	r3, r3
 596 0168 1621     		mov	r1, #22
 597 016a 0B43     		orr	r3, r1
 598 016c DBB2     		uxtb	r3, r3
 599 016e 1370     		strb	r3, [r2]
 600              	.LBE3:
 391:Generated_Source\PSoC4/cyfitter_cfg.c **** 	}
 392:Generated_Source\PSoC4/cyfitter_cfg.c **** 
 393:Generated_Source\PSoC4/cyfitter_cfg.c **** 	/* Perform second pass device configuration. These items must be configured in specific order afte
 394:Generated_Source\PSoC4/cyfitter_cfg.c **** 	/* IOPINS0_0 Starting address: CYDEV_GPIO_PRT0_BASE */
 395:Generated_Source\PSoC4/cyfitter_cfg.c **** 	CY_SET_XTND_REG32((void CYFAR *)(CYDEV_GPIO_PRT0_BASE), 0x00000080u);
 601              		.loc 1 395 0
 602 0170 2B4B     		ldr	r3, .L23+56
 603 0172 8022     		mov	r2, #128
 604 0174 1A60     		str	r2, [r3]
 396:Generated_Source\PSoC4/cyfitter_cfg.c **** 	CY_SET_XTND_REG32((void CYFAR *)(CYREG_GPIO_PRT0_PC), 0x00400000u);
 605              		.loc 1 396 0
 606 0176 2B4B     		ldr	r3, .L23+60
 607 0178 8022     		mov	r2, #128
 608 017a D203     		lsl	r2, r2, #15
 609 017c 1A60     		str	r2, [r3]
 397:Generated_Source\PSoC4/cyfitter_cfg.c **** 
 398:Generated_Source\PSoC4/cyfitter_cfg.c **** 	/* IOPINS0_1 Starting address: CYDEV_GPIO_PRT1_BASE */
 399:Generated_Source\PSoC4/cyfitter_cfg.c **** 	CY_SET_XTND_REG32((void CYFAR *)(CYDEV_GPIO_PRT1_BASE), 0x00000005u);
 610              		.loc 1 399 0
 611 017e 2A4B     		ldr	r3, .L23+64
 612 0180 0522     		mov	r2, #5
 613 0182 1A60     		str	r2, [r3]
 400:Generated_Source\PSoC4/cyfitter_cfg.c **** 	CY_SET_XTND_REG32((void CYFAR *)(CYREG_GPIO_PRT1_PC), 0x00000186u);
 614              		.loc 1 400 0
 615 0184 294B     		ldr	r3, .L23+68
 616 0186 C322     		mov	r2, #195
 617 0188 5200     		lsl	r2, r2, #1
 618 018a 1A60     		str	r2, [r3]
 401:Generated_Source\PSoC4/cyfitter_cfg.c **** 	CY_SET_XTND_REG32((void CYFAR *)(CYREG_GPIO_PRT1_PC2), 0x00000005u);
 619              		.loc 1 401 0
 620 018c 284B     		ldr	r3, .L23+72
ARM GAS  C:\Users\GREG~1.PHI\AppData\Local\Temp\cc9aBzLn.s 			page 19


 621 018e 0522     		mov	r2, #5
 622 0190 1A60     		str	r2, [r3]
 402:Generated_Source\PSoC4/cyfitter_cfg.c **** 
 403:Generated_Source\PSoC4/cyfitter_cfg.c **** 	/* IOPINS0_2 Starting address: CYDEV_GPIO_PRT2_BASE */
 404:Generated_Source\PSoC4/cyfitter_cfg.c **** 	CY_SET_XTND_REG32((void CYFAR *)(CYDEV_GPIO_PRT2_BASE), 0x000000BEu);
 623              		.loc 1 404 0
 624 0192 284B     		ldr	r3, .L23+76
 625 0194 BE22     		mov	r2, #190
 626 0196 1A60     		str	r2, [r3]
 405:Generated_Source\PSoC4/cyfitter_cfg.c **** 	CY_SET_XTND_REG32((void CYFAR *)(CYREG_GPIO_PRT2_PC2), 0x000000FFu);
 627              		.loc 1 405 0
 628 0198 274B     		ldr	r3, .L23+80
 629 019a FF22     		mov	r2, #255
 630 019c 1A60     		str	r2, [r3]
 406:Generated_Source\PSoC4/cyfitter_cfg.c **** 
 407:Generated_Source\PSoC4/cyfitter_cfg.c **** 	/* IOPINS0_3 Starting address: CYDEV_GPIO_PRT3_BASE */
 408:Generated_Source\PSoC4/cyfitter_cfg.c **** 	CY_SET_XTND_REG32((void CYFAR *)(CYREG_GPIO_PRT3_PC), 0x00000D80u);
 631              		.loc 1 408 0
 632 019e 274B     		ldr	r3, .L23+84
 633 01a0 D822     		mov	r2, #216
 634 01a2 1201     		lsl	r2, r2, #4
 635 01a4 1A60     		str	r2, [r3]
 409:Generated_Source\PSoC4/cyfitter_cfg.c **** 
 410:Generated_Source\PSoC4/cyfitter_cfg.c **** 	/* IOPINS0_5 Starting address: CYDEV_GPIO_PRT5_BASE */
 411:Generated_Source\PSoC4/cyfitter_cfg.c **** 	CY_SET_XTND_REG32((void CYFAR *)(CYDEV_GPIO_PRT5_BASE), 0x0000001Cu);
 636              		.loc 1 411 0
 637 01a6 264B     		ldr	r3, .L23+88
 638 01a8 1C22     		mov	r2, #28
 639 01aa 1A60     		str	r2, [r3]
 412:Generated_Source\PSoC4/cyfitter_cfg.c **** 	CY_SET_XTND_REG32((void CYFAR *)(CYREG_GPIO_PRT5_PC), 0x00006D80u);
 640              		.loc 1 412 0
 641 01ac 254B     		ldr	r3, .L23+92
 642 01ae DB22     		mov	r2, #219
 643 01b0 D201     		lsl	r2, r2, #7
 644 01b2 1A60     		str	r2, [r3]
 413:Generated_Source\PSoC4/cyfitter_cfg.c **** 
 414:Generated_Source\PSoC4/cyfitter_cfg.c **** 	/* IOPINS0_6 Starting address: CYDEV_GPIO_PRT6_BASE */
 415:Generated_Source\PSoC4/cyfitter_cfg.c **** 	CY_SET_XTND_REG32((void CYFAR *)(CYDEV_GPIO_PRT6_BASE), 0x00000002u);
 645              		.loc 1 415 0
 646 01b4 244B     		ldr	r3, .L23+96
 647 01b6 0222     		mov	r2, #2
 648 01b8 1A60     		str	r2, [r3]
 416:Generated_Source\PSoC4/cyfitter_cfg.c **** 	CY_SET_XTND_REG32((void CYFAR *)(CYREG_GPIO_PRT6_PC), 0x00000271u);
 649              		.loc 1 416 0
 650 01ba 244B     		ldr	r3, .L23+100
 651 01bc 244A     		ldr	r2, .L23+104
 652 01be 1A60     		str	r2, [r3]
 417:Generated_Source\PSoC4/cyfitter_cfg.c **** 	CY_SET_XTND_REG32((void CYFAR *)(CYREG_GPIO_PRT6_PC2), 0x00000002u);
 653              		.loc 1 417 0
 654 01c0 244B     		ldr	r3, .L23+108
 655 01c2 0222     		mov	r2, #2
 656 01c4 1A60     		str	r2, [r3]
 418:Generated_Source\PSoC4/cyfitter_cfg.c **** 
 419:Generated_Source\PSoC4/cyfitter_cfg.c **** 	/* IOPINS0_8 Starting address: CYDEV_GPIO_PRT8_BASE */
 420:Generated_Source\PSoC4/cyfitter_cfg.c **** 	CY_SET_XTND_REG32((void CYFAR *)(CYDEV_GPIO_PRT8_BASE), 0x00000004u);
 657              		.loc 1 420 0
 658 01c6 244B     		ldr	r3, .L23+112
ARM GAS  C:\Users\GREG~1.PHI\AppData\Local\Temp\cc9aBzLn.s 			page 20


 659 01c8 0422     		mov	r2, #4
 660 01ca 1A60     		str	r2, [r3]
 421:Generated_Source\PSoC4/cyfitter_cfg.c **** 	CY_SET_XTND_REG32((void CYFAR *)(CYREG_GPIO_PRT8_PC), 0x00000180u);
 661              		.loc 1 421 0
 662 01cc 234B     		ldr	r3, .L23+116
 663 01ce C022     		mov	r2, #192
 664 01d0 5200     		lsl	r2, r2, #1
 665 01d2 1A60     		str	r2, [r3]
 422:Generated_Source\PSoC4/cyfitter_cfg.c **** 	CY_SET_XTND_REG32((void CYFAR *)(CYREG_GPIO_PRT8_PC2), 0x00000004u);
 666              		.loc 1 422 0
 667 01d4 224B     		ldr	r3, .L23+120
 668 01d6 0422     		mov	r2, #4
 669 01d8 1A60     		str	r2, [r3]
 423:Generated_Source\PSoC4/cyfitter_cfg.c **** 
 424:Generated_Source\PSoC4/cyfitter_cfg.c **** 
 425:Generated_Source\PSoC4/cyfitter_cfg.c **** 	/* Setup clocks based on selections from Clock DWR */
 426:Generated_Source\PSoC4/cyfitter_cfg.c **** 	ClockSetup();
 670              		.loc 1 426 0
 671 01da FFF711FF 		bl	ClockSetup
 427:Generated_Source\PSoC4/cyfitter_cfg.c **** 
 428:Generated_Source\PSoC4/cyfitter_cfg.c **** 	/* Perform basic analog initialization to defaults */
 429:Generated_Source\PSoC4/cyfitter_cfg.c **** 	AnalogSetDefault();
 672              		.loc 1 429 0
 673 01de FFF7FEFF 		bl	AnalogSetDefault
 430:Generated_Source\PSoC4/cyfitter_cfg.c **** 
 431:Generated_Source\PSoC4/cyfitter_cfg.c **** }
 674              		.loc 1 431 0
 675 01e2 BD46     		mov	sp, r7
 676 01e4 02B0     		add	sp, sp, #8
 677              		@ sp needed
 678 01e6 80BD     		pop	{r7, pc}
 679              	.L24:
 680              		.align	2
 681              	.L23:
 682 01e8 00000000 		.word	cfg_memset_list.4855
 683 01ec 0C000000 		.word	cy_cfg_addr_table.4849
 684 01f0 20000000 		.word	cy_cfg_data_table.4850
 685 01f4 00030240 		.word	1073873664
 686 01f8 00060240 		.word	1073874432
 687 01fc FFFF0000 		.word	65535
 688 0200 00080240 		.word	1073874944
 689 0204 00500F40 		.word	1074745344
 690 0208 10500F40 		.word	1074745360
 691 020c 20500F40 		.word	1074745376
 692 0210 40500F40 		.word	1074745408
 693 0214 70500F40 		.word	1074745456
 694 0218 00700F40 		.word	1074753536
 695 021c 01700F40 		.word	1074753537
 696 0220 00000440 		.word	1074003968
 697 0224 08000440 		.word	1074003976
 698 0228 00010440 		.word	1074004224
 699 022c 08010440 		.word	1074004232
 700 0230 18010440 		.word	1074004248
 701 0234 00020440 		.word	1074004480
 702 0238 18020440 		.word	1074004504
 703 023c 08030440 		.word	1074004744
 704 0240 00050440 		.word	1074005248
ARM GAS  C:\Users\GREG~1.PHI\AppData\Local\Temp\cc9aBzLn.s 			page 21


 705 0244 08050440 		.word	1074005256
 706 0248 00060440 		.word	1074005504
 707 024c 08060440 		.word	1074005512
 708 0250 71020000 		.word	625
 709 0254 18060440 		.word	1074005528
 710 0258 00080440 		.word	1074006016
 711 025c 08080440 		.word	1074006024
 712 0260 18080440 		.word	1074006040
 713              		.cfi_endproc
 714              	.LFE8:
 715              		.size	cyfitter_cfg, .-cyfitter_cfg
 716              		.section	.rodata
 717              		.align	2
 718              		.type	cfg_memset_list.4855, %object
 719              		.size	cfg_memset_list.4855, 12
 720              	cfg_memset_list.4855:
 721 0000 00300F40 		.word	1074737152
 722 0004 0008     		.short	2048
 723 0006 00400F40 		.4byte	1074741248
 724 000a 0008     		.short	2048
 725              		.align	2
 726              		.type	cy_cfg_addr_table.4849, %object
 727              		.size	cy_cfg_addr_table.4849, 20
 728              	cy_cfg_addr_table.4849:
 729 000c 04320F40 		.word	1074737668
 730 0010 01330F40 		.word	1074737921
 731 0014 01350F40 		.word	1074738433
 732 0018 02450F40 		.word	1074742530
 733 001c 02460F40 		.word	1074742786
 734              		.align	2
 735              		.type	cy_cfg_data_table.4850, %object
 736              		.size	cy_cfg_data_table.4850, 20
 737              	cy_cfg_data_table.4850:
 738 0020 B8       		.byte	-72
 739 0021 02       		.byte	2
 740 0022 BE       		.byte	-66
 741 0023 01       		.byte	1
 742 0024 D8       		.byte	-40
 743 0025 04       		.byte	4
 744 0026 DF       		.byte	-33
 745 0027 01       		.byte	1
 746 0028 18       		.byte	24
 747 0029 80       		.byte	-128
 748 002a B4       		.byte	-76
 749 002b 40       		.byte	64
 750 002c 38       		.byte	56
 751 002d 01       		.byte	1
 752 002e CE       		.byte	-50
 753 002f 02       		.byte	2
 754 0030 B4       		.byte	-76
 755 0031 01       		.byte	1
 756 0032 EC       		.byte	-20
 757 0033 08       		.byte	8
 758              		.text
 759              	.Letext0:
 760              		.file 2 "c:\\program files (x86)\\cypress\\psoc creator\\4.0\\psoc creator\\import\\gnu\\arm\\4.9.
 761              		.file 3 "Generated_Source\\PSoC4\\cytypes.h"
ARM GAS  C:\Users\GREG~1.PHI\AppData\Local\Temp\cc9aBzLn.s 			page 22

