ARM GAS  C:\Users\GREG~1.PHI\AppData\Local\Temp\cc70RmjF.s 			page 1


   1              		.cpu cortex-m0
   2              		.fpu softvfp
   3              		.eabi_attribute 20, 1
   4              		.eabi_attribute 21, 1
   5              		.eabi_attribute 23, 3
   6              		.eabi_attribute 24, 1
   7              		.eabi_attribute 25, 1
   8              		.eabi_attribute 26, 1
   9              		.eabi_attribute 30, 6
  10              		.eabi_attribute 34, 0
  11              		.eabi_attribute 18, 4
  12              		.code	16
  13              		.file	"CyLib.c"
  14              		.text
  15              	.Ltext0:
  16              		.cfi_sections	.debug_frame
  17              		.global	cydelayFreqHz
  18              		.data
  19              		.align	2
  20              		.type	cydelayFreqHz, %object
  21              		.size	cydelayFreqHz, 4
  22              	cydelayFreqHz:
  23 0000 00366E01 		.word	24000000
  24              		.global	cydelayFreqKhz
  25              		.align	2
  26              		.type	cydelayFreqKhz, %object
  27              		.size	cydelayFreqKhz, 4
  28              	cydelayFreqKhz:
  29 0004 C05D0000 		.word	24000
  30              		.global	cydelayFreqMhz
  31              		.type	cydelayFreqMhz, %object
  32              		.size	cydelayFreqMhz, 1
  33              	cydelayFreqMhz:
  34 0008 18       		.byte	24
  35              		.global	cydelay32kMs
  36 0009 000000   		.align	2
  37              		.type	cydelay32kMs, %object
  38              		.size	cydelay32kMs, 4
  39              	cydelay32kMs:
  40 000c 0000E02E 		.word	786432000
  41              		.bss
  42              		.align	2
  43              	CySysTickCallbacks:
  44 0000 00000000 		.space	20
  44      00000000 
  44      00000000 
  44      00000000 
  44      00000000 
  45              		.global	CySysTickInitVar
  46              		.align	2
  47              		.type	CySysTickInitVar, %object
  48              		.size	CySysTickInitVar, 4
  49              	CySysTickInitVar:
  50 0014 00000000 		.space	4
  51              		.global	cyImoFreqMhz2Reg
  52              		.section	.rodata
  53              		.align	2
ARM GAS  C:\Users\GREG~1.PHI\AppData\Local\Temp\cc70RmjF.s 			page 2


  54              		.type	cyImoFreqMhz2Reg, %object
  55              		.size	cyImoFreqMhz2Reg, 46
  56              	cyImoFreqMhz2Reg:
  57 0000 03       		.byte	3
  58 0001 04       		.byte	4
  59 0002 05       		.byte	5
  60 0003 06       		.byte	6
  61 0004 07       		.byte	7
  62 0005 08       		.byte	8
  63 0006 09       		.byte	9
  64 0007 0A       		.byte	10
  65 0008 0B       		.byte	11
  66 0009 0C       		.byte	12
  67 000a 0E       		.byte	14
  68 000b 0F       		.byte	15
  69 000c 10       		.byte	16
  70 000d 11       		.byte	17
  71 000e 12       		.byte	18
  72 000f 13       		.byte	19
  73 0010 14       		.byte	20
  74 0011 15       		.byte	21
  75 0012 16       		.byte	22
  76 0013 17       		.byte	23
  77 0014 18       		.byte	24
  78 0015 19       		.byte	25
  79 0016 1B       		.byte	27
  80 0017 1C       		.byte	28
  81 0018 1D       		.byte	29
  82 0019 1E       		.byte	30
  83 001a 1F       		.byte	31
  84 001b 20       		.byte	32
  85 001c 21       		.byte	33
  86 001d 22       		.byte	34
  87 001e 23       		.byte	35
  88 001f 25       		.byte	37
  89 0020 26       		.byte	38
  90 0021 27       		.byte	39
  91 0022 28       		.byte	40
  92 0023 29       		.byte	41
  93 0024 2A       		.byte	42
  94 0025 2B       		.byte	43
  95 0026 2E       		.byte	46
  96 0027 2F       		.byte	47
  97 0028 30       		.byte	48
  98 0029 31       		.byte	49
  99 002a 32       		.byte	50
 100 002b 33       		.byte	51
 101 002c 34       		.byte	52
 102 002d 35       		.byte	53
 103              		.global	cyImoFreqMhz2DpllOffset
 104 002e 0000     		.align	2
 105              		.type	cyImoFreqMhz2DpllOffset, %object
 106              		.size	cyImoFreqMhz2DpllOffset, 23
 107              	cyImoFreqMhz2DpllOffset:
 108 0030 EE       		.byte	-18
 109 0031 DB       		.byte	-37
 110 0032 C9       		.byte	-55
ARM GAS  C:\Users\GREG~1.PHI\AppData\Local\Temp\cc70RmjF.s 			page 3


 111 0033 B9       		.byte	-71
 112 0034 AA       		.byte	-86
 113 0035 9B       		.byte	-101
 114 0036 8E       		.byte	-114
 115 0037 82       		.byte	-126
 116 0038 76       		.byte	118
 117 0039 6B       		.byte	107
 118 003a 60       		.byte	96
 119 003b 56       		.byte	86
 120 003c 4D       		.byte	77
 121 003d 44       		.byte	68
 122 003e 3B       		.byte	59
 123 003f 33       		.byte	51
 124 0040 2C       		.byte	44
 125 0041 24       		.byte	36
 126 0042 1D       		.byte	29
 127 0043 17       		.byte	23
 128 0044 10       		.byte	16
 129 0045 0A       		.byte	10
 130 0046 04       		.byte	4
 131              		.global	CySysClkImoTrim4
 132 0047 00       		.bss
 133              		.align	2
 134              		.type	CySysClkImoTrim4, %object
 135              		.size	CySysClkImoTrim4, 4
 136              	CySysClkImoTrim4:
 137 0018 00000000 		.space	4
 138              		.global	CySysClkPumpConfig
 139              		.data
 140              		.align	2
 141              		.type	CySysClkPumpConfig, %object
 142              		.size	CySysClkPumpConfig, 4
 143              	CySysClkPumpConfig:
 144 0010 01000000 		.word	1
 145              		.section	.text.CySysClkImoStart,"ax",%progbits
 146              		.align	2
 147              		.global	CySysClkImoStart
 148              		.code	16
 149              		.thumb_func
 150              		.type	CySysClkImoStart, %function
 151              	CySysClkImoStart:
 152              	.LFB1:
 153              		.file 1 "Generated_Source\\PSoC4\\CyLib.c"
   1:Generated_Source\PSoC4/CyLib.c **** /***************************************************************************//**
   2:Generated_Source\PSoC4/CyLib.c **** * \file CyLib.c
   3:Generated_Source\PSoC4/CyLib.c **** * \version 5.50
   4:Generated_Source\PSoC4/CyLib.c **** *
   5:Generated_Source\PSoC4/CyLib.c **** * \brief Provides a system API for the Clocking, Interrupts, SysTick, and
   6:Generated_Source\PSoC4/CyLib.c **** * Voltage Detect.
   7:Generated_Source\PSoC4/CyLib.c **** *
   8:Generated_Source\PSoC4/CyLib.c **** * \note Documentation of the API's in this file is located in the PSoC 4 System
   9:Generated_Source\PSoC4/CyLib.c **** * Reference Guide provided with PSoC Creator.
  10:Generated_Source\PSoC4/CyLib.c **** *
  11:Generated_Source\PSoC4/CyLib.c **** ********************************************************************************
  12:Generated_Source\PSoC4/CyLib.c **** * \copyright
  13:Generated_Source\PSoC4/CyLib.c **** * Copyright 2010-2016, Cypress Semiconductor Corporation.  All rights reserved.
  14:Generated_Source\PSoC4/CyLib.c **** * You may use this file only in accordance with the license, terms, conditions,
ARM GAS  C:\Users\GREG~1.PHI\AppData\Local\Temp\cc70RmjF.s 			page 4


  15:Generated_Source\PSoC4/CyLib.c **** * disclaimers, and limitations in the end user license agreement accompanying
  16:Generated_Source\PSoC4/CyLib.c **** * the software package with which this file was provided.
  17:Generated_Source\PSoC4/CyLib.c **** *******************************************************************************/
  18:Generated_Source\PSoC4/CyLib.c **** 
  19:Generated_Source\PSoC4/CyLib.c **** #include "CyLib.h"
  20:Generated_Source\PSoC4/CyLib.c **** 
  21:Generated_Source\PSoC4/CyLib.c **** /* CySysClkWriteImoFreq() || CySysClkImoEnableWcoLock() */
  22:Generated_Source\PSoC4/CyLib.c **** #if ((CY_IP_SRSSV2 && CY_IP_FMLT) || CY_IP_IMO_TRIMMABLE_BY_WCO)
  23:Generated_Source\PSoC4/CyLib.c ****     #include "CyFlash.h"
  24:Generated_Source\PSoC4/CyLib.c **** #endif /* (CY_IP_SRSSV2 && CY_IP_FMLT) */
  25:Generated_Source\PSoC4/CyLib.c **** 
  26:Generated_Source\PSoC4/CyLib.c **** /* Do not use these definitions directly in your application */
  27:Generated_Source\PSoC4/CyLib.c **** uint32 cydelayFreqHz  = CYDEV_BCLK__SYSCLK__HZ;
  28:Generated_Source\PSoC4/CyLib.c **** uint32 cydelayFreqKhz = (CYDEV_BCLK__SYSCLK__HZ + CY_DELAY_1K_MINUS_1_THRESHOLD) / CY_DELAY_1K_THRE
  29:Generated_Source\PSoC4/CyLib.c **** uint8  cydelayFreqMhz = (uint8)((CYDEV_BCLK__SYSCLK__HZ + CY_DELAY_1M_MINUS_1_THRESHOLD) / CY_DELAY
  30:Generated_Source\PSoC4/CyLib.c **** uint32 cydelay32kMs   = CY_DELAY_MS_OVERFLOW * ((CYDEV_BCLK__SYSCLK__HZ + CY_DELAY_1K_MINUS_1_THRES
  31:Generated_Source\PSoC4/CyLib.c ****                         CY_DELAY_1K_THRESHOLD);
  32:Generated_Source\PSoC4/CyLib.c **** 
  33:Generated_Source\PSoC4/CyLib.c **** 
  34:Generated_Source\PSoC4/CyLib.c **** static cySysTickCallback CySysTickCallbacks[CY_SYS_SYST_NUM_OF_CALLBACKS];
  35:Generated_Source\PSoC4/CyLib.c **** static void CySysTickServiceCallbacks(void);
  36:Generated_Source\PSoC4/CyLib.c **** 
  37:Generated_Source\PSoC4/CyLib.c **** #if (CY_IP_SRSSV2 && CY_IP_PLL)
  38:Generated_Source\PSoC4/CyLib.c ****     static uint32 CySysClkPllGetBypassMode(uint32 pll);
  39:Generated_Source\PSoC4/CyLib.c ****     static cystatus CySysClkPllConfigChangeAllowed(uint32 pll);
  40:Generated_Source\PSoC4/CyLib.c **** #endif /* #if (CY_IP_SRSSV2 && CY_IP_PLL) */
  41:Generated_Source\PSoC4/CyLib.c **** 
  42:Generated_Source\PSoC4/CyLib.c **** 
  43:Generated_Source\PSoC4/CyLib.c **** /***************************************************************************//**
  44:Generated_Source\PSoC4/CyLib.c **** * Indicates whether or not the SysTick has been initialized. The variable is
  45:Generated_Source\PSoC4/CyLib.c **** * initialized to 0 and set to 1 the first time CySysTickStart() is called.
  46:Generated_Source\PSoC4/CyLib.c **** *
  47:Generated_Source\PSoC4/CyLib.c **** * This allows the component to restart without reinitialization after the first
  48:Generated_Source\PSoC4/CyLib.c **** * call to the CySysTickStart() routine.
  49:Generated_Source\PSoC4/CyLib.c **** *
  50:Generated_Source\PSoC4/CyLib.c **** * If reinitialization of the SysTick is required, call CySysTickInit() before
  51:Generated_Source\PSoC4/CyLib.c **** * calling CySysTickStart(). Alternatively, the SysTick can be reinitialized by
  52:Generated_Source\PSoC4/CyLib.c **** * calling the CySysTickInit() and CySysTickEnable() functions.
  53:Generated_Source\PSoC4/CyLib.c **** *******************************************************************************/
  54:Generated_Source\PSoC4/CyLib.c **** uint32 CySysTickInitVar = 0u;
  55:Generated_Source\PSoC4/CyLib.c **** 
  56:Generated_Source\PSoC4/CyLib.c **** 
  57:Generated_Source\PSoC4/CyLib.c **** #if(CY_IP_SRSSV2)
  58:Generated_Source\PSoC4/CyLib.c ****         /* Conversion between CySysClkWriteImoFreq() parameter and register's value */
  59:Generated_Source\PSoC4/CyLib.c ****         const uint8 cyImoFreqMhz2Reg[CY_SYS_CLK_IMO_FREQ_TABLE_SIZE] = {
  60:Generated_Source\PSoC4/CyLib.c ****             /*  3 MHz */ 0x03u,  /*  4 MHz */ 0x04u,  /*  5 MHz */ 0x05u,  /*  6 MHz */ 0x06u,
  61:Generated_Source\PSoC4/CyLib.c ****             /*  7 MHz */ 0x07u,  /*  8 MHz */ 0x08u,  /*  9 MHz */ 0x09u,  /* 10 MHz */ 0x0Au,
  62:Generated_Source\PSoC4/CyLib.c ****             /* 11 MHz */ 0x0Bu,  /* 12 MHz */ 0x0Cu,  /* 13 MHz */ 0x0Eu,  /* 14 MHz */ 0x0Fu,
  63:Generated_Source\PSoC4/CyLib.c ****             /* 15 MHz */ 0x10u,  /* 16 MHz */ 0x11u,  /* 17 MHz */ 0x12u,  /* 18 MHz */ 0x13u,
  64:Generated_Source\PSoC4/CyLib.c ****             /* 19 MHz */ 0x14u,  /* 20 MHz */ 0x15u,  /* 21 MHz */ 0x16u,  /* 22 MHz */ 0x17u,
  65:Generated_Source\PSoC4/CyLib.c ****             /* 23 MHz */ 0x18u,  /* 24 MHz */ 0x19u,  /* 25 MHz */ 0x1Bu,  /* 26 MHz */ 0x1Cu,
  66:Generated_Source\PSoC4/CyLib.c ****             /* 27 MHz */ 0x1Du,  /* 28 MHz */ 0x1Eu,  /* 29 MHz */ 0x1Fu,  /* 30 MHz */ 0x20u,
  67:Generated_Source\PSoC4/CyLib.c ****             /* 31 MHz */ 0x21u,  /* 32 MHz */ 0x22u,  /* 33 MHz */ 0x23u,  /* 34 MHz */ 0x25u,
  68:Generated_Source\PSoC4/CyLib.c ****             /* 35 MHz */ 0x26u,  /* 36 MHz */ 0x27u,  /* 37 MHz */ 0x28u,  /* 38 MHz */ 0x29u,
  69:Generated_Source\PSoC4/CyLib.c ****             /* 39 MHz */ 0x2Au,  /* 40 MHz */ 0x2Bu,  /* 41 MHz */ 0x2Eu,  /* 42 MHz */ 0x2Fu,
  70:Generated_Source\PSoC4/CyLib.c ****             /* 43 MHz */ 0x30u,  /* 44 MHz */ 0x31u,  /* 45 MHz */ 0x32u,  /* 46 MHz */ 0x33u,
  71:Generated_Source\PSoC4/CyLib.c ****             /* 47 MHz */ 0x34u,  /* 48 MHz */ 0x35u };
ARM GAS  C:\Users\GREG~1.PHI\AppData\Local\Temp\cc70RmjF.s 			page 5


  72:Generated_Source\PSoC4/CyLib.c **** #endif /* (CY_IP_SRSSV2) */
  73:Generated_Source\PSoC4/CyLib.c **** 
  74:Generated_Source\PSoC4/CyLib.c **** #if (CY_IP_IMO_TRIMMABLE_BY_WCO)
  75:Generated_Source\PSoC4/CyLib.c ****         /* Conversion between IMO frequency and WCO DPLL max offset steps */
  76:Generated_Source\PSoC4/CyLib.c ****         const uint8 cyImoFreqMhz2DpllOffset[CY_SYS_CLK_IMO_FREQ_WCO_DPLL_TABLE_SIZE] = {
  77:Generated_Source\PSoC4/CyLib.c ****             /* 26 MHz */  238u, /* 27 MHz */  219u, /* 28 MHz */  201u, /* 29 MHz */  185u,
  78:Generated_Source\PSoC4/CyLib.c ****             /* 30 MHz */  170u, /* 31 MHz */  155u, /* 32 MHz */  142u, /* 33 MHz */  130u,
  79:Generated_Source\PSoC4/CyLib.c ****             /* 34 MHz */  118u, /* 35 MHz */  107u, /* 36 MHz */   96u, /* 37 MHz */  86u,
  80:Generated_Source\PSoC4/CyLib.c ****             /* 38 MHz */   77u, /* 39 MHz */   68u, /* 40 MHz */   59u, /* 41 MHz */  51u,
  81:Generated_Source\PSoC4/CyLib.c ****             /* 42 MHz */   44u, /* 43 MHz */   36u, /* 44 MHz */   29u, /* 45 MHz */  23u,
  82:Generated_Source\PSoC4/CyLib.c ****             /* 46 MHz */   16u, /* 47 MHz */   10u, /* 48 MHz */   4u };
  83:Generated_Source\PSoC4/CyLib.c **** #endif /* (CY_IP_IMO_TRIMMABLE_BY_WCO) */
  84:Generated_Source\PSoC4/CyLib.c **** 
  85:Generated_Source\PSoC4/CyLib.c **** /* Stored CY_SYS_CLK_IMO_TRIM4_REG when modified for USB lock */
  86:Generated_Source\PSoC4/CyLib.c **** #if (CY_IP_IMO_TRIMMABLE_BY_USB && CY_IP_SRSSV2)
  87:Generated_Source\PSoC4/CyLib.c ****     uint32 CySysClkImoTrim4 = 0u;
  88:Generated_Source\PSoC4/CyLib.c **** #endif /* (CY_IP_IMO_TRIMMABLE_BY_USB && CY_IP_SRSSV2) */
  89:Generated_Source\PSoC4/CyLib.c **** 
  90:Generated_Source\PSoC4/CyLib.c **** /* Stored PUMP_SEL configuration during disable (IMO output by default) */
  91:Generated_Source\PSoC4/CyLib.c **** uint32 CySysClkPumpConfig = CY_SYS_CLK_PUMP_ENABLE;
  92:Generated_Source\PSoC4/CyLib.c **** 
  93:Generated_Source\PSoC4/CyLib.c **** /*******************************************************************************
  94:Generated_Source\PSoC4/CyLib.c **** * Function Name: CySysClkImoStart
  95:Generated_Source\PSoC4/CyLib.c **** ****************************************************************************//**
  96:Generated_Source\PSoC4/CyLib.c **** *
  97:Generated_Source\PSoC4/CyLib.c **** * Enables the IMO.
  98:Generated_Source\PSoC4/CyLib.c **** *
  99:Generated_Source\PSoC4/CyLib.c **** * For PSoC 4100M / PSoC 4200M / PSoC 4000S / PSoC 4100S / PSoC 4400 devices,
 100:Generated_Source\PSoC4/CyLib.c **** * this function will also enable WCO lock if selected in the Design Wide
 101:Generated_Source\PSoC4/CyLib.c **** * Resources tab.
 102:Generated_Source\PSoC4/CyLib.c **** *
 103:Generated_Source\PSoC4/CyLib.c **** * For PSoC 4200L / devices, this function will also enable USB lock if selected
 104:Generated_Source\PSoC4/CyLib.c **** * in the Design Wide Resources tab.
 105:Generated_Source\PSoC4/CyLib.c **** *
 106:Generated_Source\PSoC4/CyLib.c **** *******************************************************************************/
 107:Generated_Source\PSoC4/CyLib.c **** void CySysClkImoStart(void)
 108:Generated_Source\PSoC4/CyLib.c **** {
 154              		.loc 1 108 0
 155              		.cfi_startproc
 156 0000 80B5     		push	{r7, lr}
 157              		.cfi_def_cfa_offset 8
 158              		.cfi_offset 7, -8
 159              		.cfi_offset 14, -4
 160 0002 00AF     		add	r7, sp, #0
 161              		.cfi_def_cfa_register 7
 109:Generated_Source\PSoC4/CyLib.c ****     CY_SYS_CLK_IMO_CONFIG_REG |= CY_SYS_CLK_IMO_CONFIG_ENABLE;
 162              		.loc 1 109 0
 163 0004 044B     		ldr	r3, .L2
 164 0006 044A     		ldr	r2, .L2
 165 0008 1268     		ldr	r2, [r2]
 166 000a 8021     		mov	r1, #128
 167 000c 0906     		lsl	r1, r1, #24
 168 000e 0A43     		orr	r2, r1
 169 0010 1A60     		str	r2, [r3]
 110:Generated_Source\PSoC4/CyLib.c **** 
 111:Generated_Source\PSoC4/CyLib.c ****     #if (CY_IP_IMO_TRIMMABLE_BY_WCO)
 112:Generated_Source\PSoC4/CyLib.c ****         #if (CYDEV_IMO_TRIMMED_BY_WCO == 1u)
ARM GAS  C:\Users\GREG~1.PHI\AppData\Local\Temp\cc70RmjF.s 			page 6


 113:Generated_Source\PSoC4/CyLib.c ****             CySysClkImoEnableWcoLock();
 114:Generated_Source\PSoC4/CyLib.c ****         #endif  /* (CYDEV_IMO_TRIMMED_BY_WCO == 1u) */
 115:Generated_Source\PSoC4/CyLib.c ****     #endif  /* (CY_IP_IMO_TRIMMABLE_BY_WCO) */
 116:Generated_Source\PSoC4/CyLib.c **** 
 117:Generated_Source\PSoC4/CyLib.c **** 
 118:Generated_Source\PSoC4/CyLib.c ****     #if (CY_IP_IMO_TRIMMABLE_BY_USB)
 119:Generated_Source\PSoC4/CyLib.c ****         #if (CYDEV_IMO_TRIMMED_BY_USB == 1u)
 120:Generated_Source\PSoC4/CyLib.c ****             CySysClkImoEnableUsbLock();
 121:Generated_Source\PSoC4/CyLib.c ****         #endif  /* (CYDEV_IMO_TRIMMED_BY_USB == 1u) */
 122:Generated_Source\PSoC4/CyLib.c ****     #endif  /* (CY_IP_IMO_TRIMMABLE_BY_USB) */
 123:Generated_Source\PSoC4/CyLib.c **** 
 124:Generated_Source\PSoC4/CyLib.c **** }
 170              		.loc 1 124 0
 171 0012 BD46     		mov	sp, r7
 172              		@ sp needed
 173 0014 80BD     		pop	{r7, pc}
 174              	.L3:
 175 0016 C046     		.align	2
 176              	.L2:
 177 0018 08010B40 		.word	1074462984
 178              		.cfi_endproc
 179              	.LFE1:
 180              		.size	CySysClkImoStart, .-CySysClkImoStart
 181              		.section	.text.CySysClkImoStop,"ax",%progbits
 182              		.align	2
 183              		.global	CySysClkImoStop
 184              		.code	16
 185              		.thumb_func
 186              		.type	CySysClkImoStop, %function
 187              	CySysClkImoStop:
 188              	.LFB2:
 125:Generated_Source\PSoC4/CyLib.c **** 
 126:Generated_Source\PSoC4/CyLib.c **** 
 127:Generated_Source\PSoC4/CyLib.c **** /*******************************************************************************
 128:Generated_Source\PSoC4/CyLib.c **** * Function Name: CySysClkImoStop
 129:Generated_Source\PSoC4/CyLib.c **** ****************************************************************************//**
 130:Generated_Source\PSoC4/CyLib.c **** *
 131:Generated_Source\PSoC4/CyLib.c **** * Disables the IMO.
 132:Generated_Source\PSoC4/CyLib.c **** *
 133:Generated_Source\PSoC4/CyLib.c **** * For PSoC 4100M / PSoC 4200M / PSoC 4000S / PSoC 4100S / PSoC 4400 devices,
 134:Generated_Source\PSoC4/CyLib.c **** * this function will also disable WCO lock.
 135:Generated_Source\PSoC4/CyLib.c **** *
 136:Generated_Source\PSoC4/CyLib.c **** * For PSoC PSoC 4200L devices, this function will also disable USB lock.
 137:Generated_Source\PSoC4/CyLib.c **** *
 138:Generated_Source\PSoC4/CyLib.c **** *******************************************************************************/
 139:Generated_Source\PSoC4/CyLib.c **** void CySysClkImoStop(void)
 140:Generated_Source\PSoC4/CyLib.c **** {
 189              		.loc 1 140 0
 190              		.cfi_startproc
 191 0000 80B5     		push	{r7, lr}
 192              		.cfi_def_cfa_offset 8
 193              		.cfi_offset 7, -8
 194              		.cfi_offset 14, -4
 195 0002 00AF     		add	r7, sp, #0
 196              		.cfi_def_cfa_register 7
 141:Generated_Source\PSoC4/CyLib.c ****     #if (CY_IP_IMO_TRIMMABLE_BY_WCO)
 142:Generated_Source\PSoC4/CyLib.c ****         CySysClkImoDisableWcoLock();
ARM GAS  C:\Users\GREG~1.PHI\AppData\Local\Temp\cc70RmjF.s 			page 7


 197              		.loc 1 142 0
 198 0004 FFF7FEFF 		bl	CySysClkImoDisableWcoLock
 143:Generated_Source\PSoC4/CyLib.c ****     #endif  /* (CY_IP_IMO_TRIMMABLE_BY_WCO) */
 144:Generated_Source\PSoC4/CyLib.c **** 
 145:Generated_Source\PSoC4/CyLib.c ****     #if (CY_IP_IMO_TRIMMABLE_BY_USB)
 146:Generated_Source\PSoC4/CyLib.c ****         CySysClkImoDisableUsbLock();
 199              		.loc 1 146 0
 200 0008 FFF7FEFF 		bl	CySysClkImoDisableUsbLock
 147:Generated_Source\PSoC4/CyLib.c ****     #endif  /* (CY_IP_IMO_TRIMMABLE_BY_USB) */
 148:Generated_Source\PSoC4/CyLib.c **** 
 149:Generated_Source\PSoC4/CyLib.c ****     CY_SYS_CLK_IMO_CONFIG_REG &= ( uint32 ) ( ~( uint32 )CY_SYS_CLK_IMO_CONFIG_ENABLE);
 201              		.loc 1 149 0
 202 000c 034B     		ldr	r3, .L5
 203 000e 034A     		ldr	r2, .L5
 204 0010 1268     		ldr	r2, [r2]
 205 0012 5200     		lsl	r2, r2, #1
 206 0014 5208     		lsr	r2, r2, #1
 207 0016 1A60     		str	r2, [r3]
 150:Generated_Source\PSoC4/CyLib.c **** }
 208              		.loc 1 150 0
 209 0018 BD46     		mov	sp, r7
 210              		@ sp needed
 211 001a 80BD     		pop	{r7, pc}
 212              	.L6:
 213              		.align	2
 214              	.L5:
 215 001c 08010B40 		.word	1074462984
 216              		.cfi_endproc
 217              	.LFE2:
 218              		.size	CySysClkImoStop, .-CySysClkImoStop
 219              		.section	.text.CySysClkImoEnableWcoLock,"ax",%progbits
 220              		.align	2
 221              		.global	CySysClkImoEnableWcoLock
 222              		.code	16
 223              		.thumb_func
 224              		.type	CySysClkImoEnableWcoLock, %function
 225              	CySysClkImoEnableWcoLock:
 226              	.LFB3:
 151:Generated_Source\PSoC4/CyLib.c **** 
 152:Generated_Source\PSoC4/CyLib.c **** #if (CY_IP_IMO_TRIMMABLE_BY_WCO)
 153:Generated_Source\PSoC4/CyLib.c **** 
 154:Generated_Source\PSoC4/CyLib.c ****     /*******************************************************************************
 155:Generated_Source\PSoC4/CyLib.c ****     * Function Name: CySysClkImoEnableWcoLock
 156:Generated_Source\PSoC4/CyLib.c ****     ****************************************************************************//**
 157:Generated_Source\PSoC4/CyLib.c ****     *
 158:Generated_Source\PSoC4/CyLib.c ****     * Enables the IMO to WCO lock feature. This function works only if the WCO is
 159:Generated_Source\PSoC4/CyLib.c ****     * already enabled. If the WCO is not enabled then this function returns
 160:Generated_Source\PSoC4/CyLib.c ****     * without enabling the lock feature.
 161:Generated_Source\PSoC4/CyLib.c ****     *
 162:Generated_Source\PSoC4/CyLib.c ****     * It takes up to 20 ms for the IMO to stabilize. The delay is implemented with
 163:Generated_Source\PSoC4/CyLib.c ****     * CyDelay() function. The delay interval is measured based on the system
 164:Generated_Source\PSoC4/CyLib.c ****     * frequency defined by PSoC Creator at build time. If System clock frequency
 165:Generated_Source\PSoC4/CyLib.c ****     * is changed in runtime, the CyDelayFreq() with the appropriate parameter
 166:Generated_Source\PSoC4/CyLib.c ****     * should be called.
 167:Generated_Source\PSoC4/CyLib.c ****     *
 168:Generated_Source\PSoC4/CyLib.c ****     * For PSoC 4200L devices, note that the IMO can lock to either WCO or USB
 169:Generated_Source\PSoC4/CyLib.c ****     * but not both.
ARM GAS  C:\Users\GREG~1.PHI\AppData\Local\Temp\cc70RmjF.s 			page 8


 170:Generated_Source\PSoC4/CyLib.c ****     *
 171:Generated_Source\PSoC4/CyLib.c ****     * This function is applicable for PSoC 4100M / PSoC 4200M / PSoC 4000S /
 172:Generated_Source\PSoC4/CyLib.c ****     * PSoC 4100S / PSoC 4400 / PSoC 4200L.
 173:Generated_Source\PSoC4/CyLib.c ****     *
 174:Generated_Source\PSoC4/CyLib.c ****     *******************************************************************************/
 175:Generated_Source\PSoC4/CyLib.c ****     void CySysClkImoEnableWcoLock(void)
 176:Generated_Source\PSoC4/CyLib.c ****     {
 227              		.loc 1 176 0
 228              		.cfi_startproc
 229 0000 90B5     		push	{r4, r7, lr}
 230              		.cfi_def_cfa_offset 12
 231              		.cfi_offset 4, -12
 232              		.cfi_offset 7, -8
 233              		.cfi_offset 14, -4
 234 0002 87B0     		sub	sp, sp, #28
 235              		.cfi_def_cfa_offset 40
 236 0004 00AF     		add	r7, sp, #0
 237              		.cfi_def_cfa_register 7
 177:Generated_Source\PSoC4/CyLib.c ****         #if(CY_IP_SRSSV2)
 178:Generated_Source\PSoC4/CyLib.c ****             uint32 i;
 179:Generated_Source\PSoC4/CyLib.c ****         #endif  /* (CY_IP_SRSSV2) */
 180:Generated_Source\PSoC4/CyLib.c **** 
 181:Generated_Source\PSoC4/CyLib.c ****         uint32 freq;
 182:Generated_Source\PSoC4/CyLib.c ****         uint8  interruptState;
 183:Generated_Source\PSoC4/CyLib.c ****         uint32 regTmp;
 184:Generated_Source\PSoC4/CyLib.c ****         uint32 lfLimit = 0u;
 238              		.loc 1 184 0
 239 0006 0023     		mov	r3, #0
 240 0008 BB60     		str	r3, [r7, #8]
 185:Generated_Source\PSoC4/CyLib.c ****         volatile uint32 flashCtlReg;
 186:Generated_Source\PSoC4/CyLib.c **** 
 187:Generated_Source\PSoC4/CyLib.c ****         if (0u != CySysClkWcoEnabled())
 241              		.loc 1 187 0
 242 000a FFF7FEFF 		bl	CySysClkWcoEnabled
 243 000e 031E     		sub	r3, r0, #0
 244 0010 00D1     		bne	.LCB80
 245 0012 85E0     		b	.L7	@long jump
 246              	.LCB80:
 188:Generated_Source\PSoC4/CyLib.c ****         {
 189:Generated_Source\PSoC4/CyLib.c ****             interruptState = CyEnterCriticalSection();
 247              		.loc 1 189 0
 248 0014 FC1D     		add	r4, r7, #7
 249 0016 FFF7FEFF 		bl	CyEnterCriticalSection
 250 001a 031C     		mov	r3, r0
 251 001c 2370     		strb	r3, [r4]
 190:Generated_Source\PSoC4/CyLib.c **** 
 191:Generated_Source\PSoC4/CyLib.c ****             /* Set oscillator interface control port to WCO */
 192:Generated_Source\PSoC4/CyLib.c ****             #if (CY_IP_IMO_TRIMMABLE_BY_WCO && CY_IP_IMO_TRIMMABLE_BY_USB)
 193:Generated_Source\PSoC4/CyLib.c ****                 CY_SYS_CLK_OSCINTF_CTL_REG =
 252              		.loc 1 193 0
 253 001e 424B     		ldr	r3, .L17
 194:Generated_Source\PSoC4/CyLib.c ****                     (CY_SYS_CLK_OSCINTF_CTL_REG & (uint32) ~CY_SYS_CLK_OSCINTF_CTL_PORT_SEL_MASK) |
 254              		.loc 1 194 0
 255 0020 414A     		ldr	r2, .L17
 256 0022 1268     		ldr	r2, [r2]
 257 0024 0121     		mov	r1, #1
 258 0026 0A43     		orr	r2, r1
ARM GAS  C:\Users\GREG~1.PHI\AppData\Local\Temp\cc70RmjF.s 			page 9


 193:Generated_Source\PSoC4/CyLib.c ****                     (CY_SYS_CLK_OSCINTF_CTL_REG & (uint32) ~CY_SYS_CLK_OSCINTF_CTL_PORT_SEL_MASK) |
 259              		.loc 1 193 0
 260 0028 1A60     		str	r2, [r3]
 195:Generated_Source\PSoC4/CyLib.c ****                     CY_SYS_CLK_OSCINTF_CTL_PORT_SEL_WCO;
 196:Generated_Source\PSoC4/CyLib.c ****             #endif /* (CY_IP_IMO_TRIMMABLE_BY_WCO && CY_IP_IMO_TRIMMABLE_BY_USB) */
 197:Generated_Source\PSoC4/CyLib.c **** 
 198:Generated_Source\PSoC4/CyLib.c ****             /* Get current IMO frequency based on the register value */
 199:Generated_Source\PSoC4/CyLib.c ****             #if(CY_IP_SRSSV2)
 200:Generated_Source\PSoC4/CyLib.c ****                 freq = CY_SYS_CLK_IMO_MIN_FREQ_MHZ;
 261              		.loc 1 200 0
 262 002a 0323     		mov	r3, #3
 263 002c 3B61     		str	r3, [r7, #16]
 201:Generated_Source\PSoC4/CyLib.c ****                 for(i = 0u; i < CY_SYS_CLK_IMO_FREQ_TABLE_SIZE; i++)
 264              		.loc 1 201 0
 265 002e 0023     		mov	r3, #0
 266 0030 7B61     		str	r3, [r7, #20]
 267 0032 12E0     		b	.L9
 268              	.L12:
 202:Generated_Source\PSoC4/CyLib.c ****                 {
 203:Generated_Source\PSoC4/CyLib.c ****                     if ((uint8) (CY_SYS_CLK_IMO_TRIM2_REG & CY_SYS_CLK_IMO_FREQ_BITS_MASK) == cyImo
 269              		.loc 1 203 0
 270 0034 3D4B     		ldr	r3, .L17+4
 271 0036 1B68     		ldr	r3, [r3]
 272 0038 DBB2     		uxtb	r3, r3
 273 003a 1A1C     		mov	r2, r3
 274 003c 3F23     		mov	r3, #63
 275 003e 1340     		and	r3, r2
 276 0040 3B49     		ldr	r1, .L17+8
 277 0042 7A69     		ldr	r2, [r7, #20]
 278 0044 8A18     		add	r2, r1, r2
 279 0046 1278     		ldrb	r2, [r2]
 280 0048 9342     		cmp	r3, r2
 281 004a 03D1     		bne	.L10
 204:Generated_Source\PSoC4/CyLib.c ****                     {
 205:Generated_Source\PSoC4/CyLib.c ****                         freq = i + CY_SYS_CLK_IMO_FREQ_TABLE_OFFSET;
 282              		.loc 1 205 0
 283 004c 7B69     		ldr	r3, [r7, #20]
 284 004e 0333     		add	r3, r3, #3
 285 0050 3B61     		str	r3, [r7, #16]
 206:Generated_Source\PSoC4/CyLib.c ****                         break;
 286              		.loc 1 206 0
 287 0052 05E0     		b	.L11
 288              	.L10:
 201:Generated_Source\PSoC4/CyLib.c ****                 {
 289              		.loc 1 201 0 discriminator 2
 290 0054 7B69     		ldr	r3, [r7, #20]
 291 0056 0133     		add	r3, r3, #1
 292 0058 7B61     		str	r3, [r7, #20]
 293              	.L9:
 201:Generated_Source\PSoC4/CyLib.c ****                 {
 294              		.loc 1 201 0 is_stmt 0 discriminator 1
 295 005a 7B69     		ldr	r3, [r7, #20]
 296 005c 2D2B     		cmp	r3, #45
 297 005e E9D9     		bls	.L12
 298              	.L11:
 207:Generated_Source\PSoC4/CyLib.c ****                     }
 208:Generated_Source\PSoC4/CyLib.c ****                 }
ARM GAS  C:\Users\GREG~1.PHI\AppData\Local\Temp\cc70RmjF.s 			page 10


 209:Generated_Source\PSoC4/CyLib.c ****             #else
 210:Generated_Source\PSoC4/CyLib.c ****                 /* Calculate frequency by shifting register field value and adding constant. */
 211:Generated_Source\PSoC4/CyLib.c ****                 #if(CY_IP_SRSSLT)
 212:Generated_Source\PSoC4/CyLib.c ****                     freq = (((uint32) ((CY_SYS_CLK_IMO_SELECT_REG & ((uint32) CY_SYS_CLK_IMO_SELECT
 213:Generated_Source\PSoC4/CyLib.c ****                                         CY_SYS_CLK_IMO_SELECT_FREQ_SHIFT) + CY_SYS_CLK_IMO_MIN_FREQ
 214:Generated_Source\PSoC4/CyLib.c ****                                       ((CY_SYS_CLK_SELECT_REG >> CY_SYS_CLK_SELECT_HFCLK_DIV_SHIFT)
 215:Generated_Source\PSoC4/CyLib.c ****                                        (uint32) CY_SYS_CLK_SELECT_HFCLK_DIV_MASK));
 216:Generated_Source\PSoC4/CyLib.c ****                 #else
 217:Generated_Source\PSoC4/CyLib.c ****                     freq = ((uint32) ((CY_SYS_CLK_IMO_SELECT_REG & ((uint32) CY_SYS_CLK_IMO_SELECT_
 218:Generated_Source\PSoC4/CyLib.c ****                                        CY_SYS_CLK_IMO_SELECT_FREQ_SHIFT) + CY_SYS_CLK_IMO_MIN_FREQ_
 219:Generated_Source\PSoC4/CyLib.c ****                 #endif  /* (CY_IP_SRSSLT) */
 220:Generated_Source\PSoC4/CyLib.c **** 
 221:Generated_Source\PSoC4/CyLib.c ****             #endif  /* (CY_IP_SRSSV2) */
 222:Generated_Source\PSoC4/CyLib.c **** 
 223:Generated_Source\PSoC4/CyLib.c ****             /* For the WCO locking mode, the IMO gain needs to be CY_SYS_CLK_IMO_TRIM4_GAIN */
 224:Generated_Source\PSoC4/CyLib.c ****             #if(CY_IP_SRSSV2)
 225:Generated_Source\PSoC4/CyLib.c ****                 if ((CY_SYS_CLK_IMO_TRIM4_REG & CY_SYS_CLK_IMO_TRIM4_GAIN_MASK) == 0u)
 299              		.loc 1 225 0 is_stmt 1
 300 0060 344B     		ldr	r3, .L17+12
 301 0062 1B68     		ldr	r3, [r3]
 302 0064 1F22     		mov	r2, #31
 303 0066 1340     		and	r3, r2
 304 0068 07D1     		bne	.L13
 226:Generated_Source\PSoC4/CyLib.c ****                 {
 227:Generated_Source\PSoC4/CyLib.c **** 			         CY_SYS_CLK_IMO_TRIM4_REG = (CY_SYS_CLK_IMO_TRIM4_REG & (uint32) ~CY_SYS_CLK_IMO_TRIM4_G
 305              		.loc 1 227 0
 306 006a 324B     		ldr	r3, .L17+12
 307 006c 314A     		ldr	r2, .L17+12
 308 006e 1268     		ldr	r2, [r2]
 309 0070 1F21     		mov	r1, #31
 310 0072 8A43     		bic	r2, r1
 311 0074 0C21     		mov	r1, #12
 312 0076 0A43     		orr	r2, r1
 313 0078 1A60     		str	r2, [r3]
 314              	.L13:
 228:Generated_Source\PSoC4/CyLib.c **** 			                  				     CY_SYS_CLK_IMO_TRIM4_WCO_GAIN;
 229:Generated_Source\PSoC4/CyLib.c ****                 }
 230:Generated_Source\PSoC4/CyLib.c ****             #endif /* (CY_IP_SRSSV2) */
 231:Generated_Source\PSoC4/CyLib.c **** 
 232:Generated_Source\PSoC4/CyLib.c ****             regTmp  = CY_SYS_CLK_WCO_DPLL_REG & ~(CY_SYS_CLK_WCO_DPLL_MULT_MASK |
 315              		.loc 1 232 0
 316 007a 2F4B     		ldr	r3, .L17+16
 317 007c 1B68     		ldr	r3, [r3]
 318 007e 2F4A     		ldr	r2, .L17+20
 319 0080 1340     		and	r3, r2
 320 0082 FB60     		str	r3, [r7, #12]
 233:Generated_Source\PSoC4/CyLib.c ****                                                   CY_SYS_CLK_WCO_CONFIG_DPLL_LF_IGAIN_MASK |
 234:Generated_Source\PSoC4/CyLib.c ****                                                   CY_SYS_CLK_WCO_CONFIG_DPLL_LF_PGAIN_MASK |
 235:Generated_Source\PSoC4/CyLib.c ****                                                   CY_SYS_CLK_WCO_CONFIG_DPLL_LF_LIMIT_MASK);
 236:Generated_Source\PSoC4/CyLib.c **** 
 237:Generated_Source\PSoC4/CyLib.c ****             /* Set multiplier to determine IMO frequency in multiples of the WCO frequency */
 238:Generated_Source\PSoC4/CyLib.c ****             regTmp |= (CY_SYS_CLK_WCO_DPLL_MULT_VALUE(freq) & CY_SYS_CLK_WCO_DPLL_MULT_MASK);
 321              		.loc 1 238 0
 322 0084 3B69     		ldr	r3, [r7, #16]
 323 0086 2E4A     		ldr	r2, .L17+24
 324 0088 5343     		mul	r3, r2
 325 008a 8022     		mov	r2, #128
ARM GAS  C:\Users\GREG~1.PHI\AppData\Local\Temp\cc70RmjF.s 			page 11


 326 008c D201     		lsl	r2, r2, #7
 327 008e 9446     		mov	ip, r2
 328 0090 6344     		add	r3, r3, ip
 329 0092 DB0B     		lsr	r3, r3, #15
 330 0094 013B     		sub	r3, r3, #1
 331 0096 5B05     		lsl	r3, r3, #21
 332 0098 5B0D     		lsr	r3, r3, #21
 333 009a FA68     		ldr	r2, [r7, #12]
 334 009c 1343     		orr	r3, r2
 335 009e FB60     		str	r3, [r7, #12]
 239:Generated_Source\PSoC4/CyLib.c **** 
 240:Generated_Source\PSoC4/CyLib.c ****             /* Set DPLL Loop Filter Integral and Proportional Gains Setting */
 241:Generated_Source\PSoC4/CyLib.c ****             regTmp |= (CY_SYS_CLK_WCO_CONFIG_DPLL_LF_IGAIN | CY_SYS_CLK_WCO_CONFIG_DPLL_LF_PGAIN);
 336              		.loc 1 241 0
 337 00a0 FB68     		ldr	r3, [r7, #12]
 338 00a2 A022     		mov	r2, #160
 339 00a4 5203     		lsl	r2, r2, #13
 340 00a6 1343     		orr	r3, r2
 341 00a8 FB60     		str	r3, [r7, #12]
 242:Generated_Source\PSoC4/CyLib.c **** 
 243:Generated_Source\PSoC4/CyLib.c ****             /* Set maximum allowed IMO offset */
 244:Generated_Source\PSoC4/CyLib.c ****             if (freq < CY_SYS_CLK_IMO_FREQ_WCO_DPLL_SAFE_POINT)
 342              		.loc 1 244 0
 343 00aa 3B69     		ldr	r3, [r7, #16]
 344 00ac 192B     		cmp	r3, #25
 345 00ae 05D8     		bhi	.L14
 245:Generated_Source\PSoC4/CyLib.c ****             {
 246:Generated_Source\PSoC4/CyLib.c ****                 regTmp |= (CY_SYS_CLK_WCO_CONFIG_DPLL_LF_LIMIT_MAX << CY_SYS_CLK_WCO_CONFIG_DPLL_LF
 346              		.loc 1 246 0
 347 00b0 FB68     		ldr	r3, [r7, #12]
 348 00b2 FF22     		mov	r2, #255
 349 00b4 9205     		lsl	r2, r2, #22
 350 00b6 1343     		orr	r3, r2
 351 00b8 FB60     		str	r3, [r7, #12]
 352 00ba 16E0     		b	.L15
 353              	.L14:
 247:Generated_Source\PSoC4/CyLib.c ****             }
 248:Generated_Source\PSoC4/CyLib.c ****             else
 249:Generated_Source\PSoC4/CyLib.c ****             {
 250:Generated_Source\PSoC4/CyLib.c ****                 lfLimit = (uint32) CY_SFLASH_IMO_TRIM_REG(freq - CY_SYS_CLK_IMO_MIN_FREQ_MHZ) +
 354              		.loc 1 250 0
 355 00bc 3B69     		ldr	r3, [r7, #16]
 356 00be 214A     		ldr	r2, .L17+28
 357 00c0 9446     		mov	ip, r2
 358 00c2 6344     		add	r3, r3, ip
 359 00c4 1B78     		ldrb	r3, [r3]
 360 00c6 DBB2     		uxtb	r3, r3
 361 00c8 191C     		mov	r1, r3
 251:Generated_Source\PSoC4/CyLib.c ****                     cyImoFreqMhz2DpllOffset[freq - CY_SYS_CLK_IMO_FREQ_WCO_DPLL_TABLE_OFFSET];
 362              		.loc 1 251 0
 363 00ca 3B69     		ldr	r3, [r7, #16]
 364 00cc 1A3B     		sub	r3, r3, #26
 365 00ce 1E4A     		ldr	r2, .L17+32
 366 00d0 D35C     		ldrb	r3, [r2, r3]
 250:Generated_Source\PSoC4/CyLib.c ****                     cyImoFreqMhz2DpllOffset[freq - CY_SYS_CLK_IMO_FREQ_WCO_DPLL_TABLE_OFFSET];
 367              		.loc 1 250 0
 368 00d2 CB18     		add	r3, r1, r3
ARM GAS  C:\Users\GREG~1.PHI\AppData\Local\Temp\cc70RmjF.s 			page 12


 369 00d4 BB60     		str	r3, [r7, #8]
 252:Generated_Source\PSoC4/CyLib.c **** 
 253:Generated_Source\PSoC4/CyLib.c ****                 lfLimit = (lfLimit > CY_SYS_CLK_WCO_CONFIG_DPLL_LF_LIMIT_MAX) ?
 370              		.loc 1 253 0
 371 00d6 BB68     		ldr	r3, [r7, #8]
 372 00d8 FF2B     		cmp	r3, #255
 373 00da 00D9     		bls	.L16
 374 00dc FF23     		mov	r3, #255
 375              	.L16:
 376 00de BB60     		str	r3, [r7, #8]
 254:Generated_Source\PSoC4/CyLib.c ****                     CY_SYS_CLK_WCO_CONFIG_DPLL_LF_LIMIT_MAX : lfLimit;
 255:Generated_Source\PSoC4/CyLib.c **** 
 256:Generated_Source\PSoC4/CyLib.c ****                 regTmp |= (lfLimit << CY_SYS_CLK_WCO_CONFIG_DPLL_LF_LIMIT_SHIFT);
 377              		.loc 1 256 0
 378 00e0 BB68     		ldr	r3, [r7, #8]
 379 00e2 9B05     		lsl	r3, r3, #22
 380 00e4 FA68     		ldr	r2, [r7, #12]
 381 00e6 1343     		orr	r3, r2
 382 00e8 FB60     		str	r3, [r7, #12]
 383              	.L15:
 257:Generated_Source\PSoC4/CyLib.c ****             }
 258:Generated_Source\PSoC4/CyLib.c **** 
 259:Generated_Source\PSoC4/CyLib.c ****             CY_SYS_CLK_WCO_DPLL_REG = regTmp;
 384              		.loc 1 259 0
 385 00ea 134B     		ldr	r3, .L17+16
 386 00ec FA68     		ldr	r2, [r7, #12]
 387 00ee 1A60     		str	r2, [r3]
 260:Generated_Source\PSoC4/CyLib.c **** 
 261:Generated_Source\PSoC4/CyLib.c ****             flashCtlReg = CY_FLASH_CTL_REG;
 388              		.loc 1 261 0
 389 00f0 164B     		ldr	r3, .L17+36
 390 00f2 1B68     		ldr	r3, [r3]
 391 00f4 3B60     		str	r3, [r7]
 262:Generated_Source\PSoC4/CyLib.c ****             CySysFlashSetWaitCycles(CY_SYS_CLK_IMO_MAX_FREQ_MHZ);
 392              		.loc 1 262 0
 393 00f6 3020     		mov	r0, #48
 394 00f8 FFF7FEFF 		bl	CySysFlashSetWaitCycles
 263:Generated_Source\PSoC4/CyLib.c ****             CY_SYS_CLK_WCO_CONFIG_REG |= CY_SYS_CLK_WCO_CONFIG_DPLL_ENABLE;
 395              		.loc 1 263 0
 396 00fc 144B     		ldr	r3, .L17+40
 397 00fe 144A     		ldr	r2, .L17+40
 398 0100 1268     		ldr	r2, [r2]
 399 0102 8021     		mov	r1, #128
 400 0104 C905     		lsl	r1, r1, #23
 401 0106 0A43     		orr	r2, r1
 402 0108 1A60     		str	r2, [r3]
 264:Generated_Source\PSoC4/CyLib.c ****             CyDelay(CY_SYS_CLK_WCO_IMO_TIMEOUT_MS);
 403              		.loc 1 264 0
 404 010a 1420     		mov	r0, #20
 405 010c FFF7FEFF 		bl	CyDelay
 265:Generated_Source\PSoC4/CyLib.c ****             CY_FLASH_CTL_REG = flashCtlReg;
 406              		.loc 1 265 0
 407 0110 0E4B     		ldr	r3, .L17+36
 408 0112 3A68     		ldr	r2, [r7]
 409 0114 1A60     		str	r2, [r3]
 266:Generated_Source\PSoC4/CyLib.c **** 
 267:Generated_Source\PSoC4/CyLib.c ****             CyExitCriticalSection(interruptState);
ARM GAS  C:\Users\GREG~1.PHI\AppData\Local\Temp\cc70RmjF.s 			page 13


 410              		.loc 1 267 0
 411 0116 FB1D     		add	r3, r7, #7
 412 0118 1B78     		ldrb	r3, [r3]
 413 011a 181C     		mov	r0, r3
 414 011c FFF7FEFF 		bl	CyExitCriticalSection
 415              	.L7:
 268:Generated_Source\PSoC4/CyLib.c ****         }
 269:Generated_Source\PSoC4/CyLib.c ****     }
 416              		.loc 1 269 0
 417 0120 BD46     		mov	sp, r7
 418 0122 07B0     		add	sp, sp, #28
 419              		@ sp needed
 420 0124 90BD     		pop	{r4, r7, pc}
 421              	.L18:
 422 0126 C046     		.align	2
 423              	.L17:
 424 0128 50000C40 		.word	1074528336
 425 012c 2CFF0B40 		.word	1074528044
 426 0130 00000000 		.word	cyImoFreqMhz2Reg
 427 0134 34FF0B40 		.word	1074528052
 428 0138 08002240 		.word	1075970056
 429 013c 00F800C0 		.word	-1073678336
 430 0140 40420F00 		.word	1000000
 431 0144 4DF3FF0F 		.word	268432205
 432 0148 00000000 		.word	cyImoFreqMhz2DpllOffset
 433 014c 30001040 		.word	1074790448
 434 0150 00002240 		.word	1075970048
 435              		.cfi_endproc
 436              	.LFE3:
 437              		.size	CySysClkImoEnableWcoLock, .-CySysClkImoEnableWcoLock
 438              		.section	.text.CySysClkImoDisableWcoLock,"ax",%progbits
 439              		.align	2
 440              		.global	CySysClkImoDisableWcoLock
 441              		.code	16
 442              		.thumb_func
 443              		.type	CySysClkImoDisableWcoLock, %function
 444              	CySysClkImoDisableWcoLock:
 445              	.LFB4:
 270:Generated_Source\PSoC4/CyLib.c **** 
 271:Generated_Source\PSoC4/CyLib.c **** 
 272:Generated_Source\PSoC4/CyLib.c ****     /*******************************************************************************
 273:Generated_Source\PSoC4/CyLib.c ****     * Function Name: CySysClkImoDisableWcoLock
 274:Generated_Source\PSoC4/CyLib.c ****     ****************************************************************************//**
 275:Generated_Source\PSoC4/CyLib.c ****     *
 276:Generated_Source\PSoC4/CyLib.c ****     * Disables the IMO to WCO lock feature.
 277:Generated_Source\PSoC4/CyLib.c ****     *
 278:Generated_Source\PSoC4/CyLib.c ****     * For PSoC 4200L devices, note that the IMO can lock to either WCO or USB
 279:Generated_Source\PSoC4/CyLib.c ****     * but not both.
 280:Generated_Source\PSoC4/CyLib.c ****     *
 281:Generated_Source\PSoC4/CyLib.c ****     * This function is applicable for PSoC 4100M / PSoC 4200M / PSoC 4000S /
 282:Generated_Source\PSoC4/CyLib.c ****     * PSoC 4100S / PSoC 4400 / PSoC 4200L.
 283:Generated_Source\PSoC4/CyLib.c ****     *
 284:Generated_Source\PSoC4/CyLib.c ****     *******************************************************************************/
 285:Generated_Source\PSoC4/CyLib.c ****     void CySysClkImoDisableWcoLock(void)
 286:Generated_Source\PSoC4/CyLib.c ****     {
 446              		.loc 1 286 0
 447              		.cfi_startproc
ARM GAS  C:\Users\GREG~1.PHI\AppData\Local\Temp\cc70RmjF.s 			page 14


 448 0000 80B5     		push	{r7, lr}
 449              		.cfi_def_cfa_offset 8
 450              		.cfi_offset 7, -8
 451              		.cfi_offset 14, -4
 452 0002 00AF     		add	r7, sp, #0
 453              		.cfi_def_cfa_register 7
 287:Generated_Source\PSoC4/CyLib.c ****         CY_SYS_CLK_WCO_CONFIG_REG &= (uint32) ~CY_SYS_CLK_WCO_CONFIG_DPLL_ENABLE;
 454              		.loc 1 287 0
 455 0004 034B     		ldr	r3, .L20
 456 0006 034A     		ldr	r2, .L20
 457 0008 1268     		ldr	r2, [r2]
 458 000a 0349     		ldr	r1, .L20+4
 459 000c 0A40     		and	r2, r1
 460 000e 1A60     		str	r2, [r3]
 288:Generated_Source\PSoC4/CyLib.c ****     }
 461              		.loc 1 288 0
 462 0010 BD46     		mov	sp, r7
 463              		@ sp needed
 464 0012 80BD     		pop	{r7, pc}
 465              	.L21:
 466              		.align	2
 467              	.L20:
 468 0014 00002240 		.word	1075970048
 469 0018 FFFFFFBF 		.word	-1073741825
 470              		.cfi_endproc
 471              	.LFE4:
 472              		.size	CySysClkImoDisableWcoLock, .-CySysClkImoDisableWcoLock
 473              		.section	.text.CySysClkImoGetWcoLock,"ax",%progbits
 474              		.align	2
 475              		.global	CySysClkImoGetWcoLock
 476              		.code	16
 477              		.thumb_func
 478              		.type	CySysClkImoGetWcoLock, %function
 479              	CySysClkImoGetWcoLock:
 480              	.LFB5:
 289:Generated_Source\PSoC4/CyLib.c **** 
 290:Generated_Source\PSoC4/CyLib.c **** 
 291:Generated_Source\PSoC4/CyLib.c ****     /*******************************************************************************
 292:Generated_Source\PSoC4/CyLib.c ****     * Function Name: CySysClkImoGetWcoLock
 293:Generated_Source\PSoC4/CyLib.c ****     ****************************************************************************//**
 294:Generated_Source\PSoC4/CyLib.c ****     *
 295:Generated_Source\PSoC4/CyLib.c ****     * Reports the IMO to WCO lock enable state.
 296:Generated_Source\PSoC4/CyLib.c ****     *
 297:Generated_Source\PSoC4/CyLib.c ****     * This function is applicable for PSoC 4100M / PSoC 4200M / PSoC 4000S /
 298:Generated_Source\PSoC4/CyLib.c ****     * PSoC 4100S / PSoC 4400 / PSoC 4200L.
 299:Generated_Source\PSoC4/CyLib.c ****     *
 300:Generated_Source\PSoC4/CyLib.c ****     * \return 1 if IMO to WCO lock is enabled.
 301:Generated_Source\PSoC4/CyLib.c ****     * \return 0 if IMO to WCO lock is disabled.
 302:Generated_Source\PSoC4/CyLib.c ****     *
 303:Generated_Source\PSoC4/CyLib.c ****     *******************************************************************************/
 304:Generated_Source\PSoC4/CyLib.c ****     uint32 CySysClkImoGetWcoLock(void)
 305:Generated_Source\PSoC4/CyLib.c ****     {
 481              		.loc 1 305 0
 482              		.cfi_startproc
 483 0000 80B5     		push	{r7, lr}
 484              		.cfi_def_cfa_offset 8
 485              		.cfi_offset 7, -8
ARM GAS  C:\Users\GREG~1.PHI\AppData\Local\Temp\cc70RmjF.s 			page 15


 486              		.cfi_offset 14, -4
 487 0002 00AF     		add	r7, sp, #0
 488              		.cfi_def_cfa_register 7
 306:Generated_Source\PSoC4/CyLib.c ****         return ((0u != (CY_SYS_CLK_WCO_CONFIG_REG & CY_SYS_CLK_WCO_CONFIG_DPLL_ENABLE)) ?
 489              		.loc 1 306 0
 490 0004 054B     		ldr	r3, .L26
 491 0006 1A68     		ldr	r2, [r3]
 492 0008 8023     		mov	r3, #128
 493 000a DB05     		lsl	r3, r3, #23
 494 000c 1340     		and	r3, r2
 307:Generated_Source\PSoC4/CyLib.c ****                 (uint32) 1u :
 495              		.loc 1 307 0
 496 000e 01D0     		beq	.L23
 497              		.loc 1 307 0 is_stmt 0 discriminator 1
 498 0010 0123     		mov	r3, #1
 499 0012 00E0     		b	.L24
 500              	.L23:
 501              		.loc 1 307 0 discriminator 2
 502 0014 0023     		mov	r3, #0
 503              	.L24:
 308:Generated_Source\PSoC4/CyLib.c ****                 (uint32) 0u);
 309:Generated_Source\PSoC4/CyLib.c ****     }
 504              		.loc 1 309 0 is_stmt 1
 505 0016 181C     		mov	r0, r3
 506 0018 BD46     		mov	sp, r7
 507              		@ sp needed
 508 001a 80BD     		pop	{r7, pc}
 509              	.L27:
 510              		.align	2
 511              	.L26:
 512 001c 00002240 		.word	1075970048
 513              		.cfi_endproc
 514              	.LFE5:
 515              		.size	CySysClkImoGetWcoLock, .-CySysClkImoGetWcoLock
 516              		.section	.text.CySysClkImoEnableUsbLock,"ax",%progbits
 517              		.align	2
 518              		.global	CySysClkImoEnableUsbLock
 519              		.code	16
 520              		.thumb_func
 521              		.type	CySysClkImoEnableUsbLock, %function
 522              	CySysClkImoEnableUsbLock:
 523              	.LFB6:
 310:Generated_Source\PSoC4/CyLib.c **** 
 311:Generated_Source\PSoC4/CyLib.c **** #endif /* (CY_IP_IMO_TRIMMABLE_BY_WCO) */
 312:Generated_Source\PSoC4/CyLib.c **** 
 313:Generated_Source\PSoC4/CyLib.c **** 
 314:Generated_Source\PSoC4/CyLib.c **** #if (CY_IP_IMO_TRIMMABLE_BY_USB)
 315:Generated_Source\PSoC4/CyLib.c **** 
 316:Generated_Source\PSoC4/CyLib.c ****     /*******************************************************************************
 317:Generated_Source\PSoC4/CyLib.c ****     * Function Name: CySysClkImoEnableUsbLock
 318:Generated_Source\PSoC4/CyLib.c ****     ****************************************************************************//**
 319:Generated_Source\PSoC4/CyLib.c ****     *
 320:Generated_Source\PSoC4/CyLib.c ****     * Enables the IMO to USB lock feature.
 321:Generated_Source\PSoC4/CyLib.c ****     *
 322:Generated_Source\PSoC4/CyLib.c ****     * This function must be called before CySysClkWriteImoFreq().
 323:Generated_Source\PSoC4/CyLib.c ****     *
 324:Generated_Source\PSoC4/CyLib.c ****     * This function is called from CySysClkImoStart() function if USB lock
ARM GAS  C:\Users\GREG~1.PHI\AppData\Local\Temp\cc70RmjF.s 			page 16


 325:Generated_Source\PSoC4/CyLib.c ****     * selected in the Design Wide Resources tab.
 326:Generated_Source\PSoC4/CyLib.c ****     *
 327:Generated_Source\PSoC4/CyLib.c ****     * This is applicable for PSoC 4200L family of devices only. For PSoC 4200L
 328:Generated_Source\PSoC4/CyLib.c ****     * devices, the IMO can lock to either WCO or USB, but not both.
 329:Generated_Source\PSoC4/CyLib.c ****     *
 330:Generated_Source\PSoC4/CyLib.c ****     *******************************************************************************/
 331:Generated_Source\PSoC4/CyLib.c ****     void CySysClkImoEnableUsbLock(void)
 332:Generated_Source\PSoC4/CyLib.c ****     {
 524              		.loc 1 332 0
 525              		.cfi_startproc
 526 0000 80B5     		push	{r7, lr}
 527              		.cfi_def_cfa_offset 8
 528              		.cfi_offset 7, -8
 529              		.cfi_offset 14, -4
 530 0002 00AF     		add	r7, sp, #0
 531              		.cfi_def_cfa_register 7
 333:Generated_Source\PSoC4/CyLib.c ****         /* Set oscillator interface control port to USB */
 334:Generated_Source\PSoC4/CyLib.c ****         #if (CY_IP_IMO_TRIMMABLE_BY_WCO && CY_IP_IMO_TRIMMABLE_BY_USB)
 335:Generated_Source\PSoC4/CyLib.c ****             CY_SYS_CLK_OSCINTF_CTL_REG = (CY_SYS_CLK_OSCINTF_CTL_REG & (uint32) ~CY_SYS_CLK_OSCINTF
 532              		.loc 1 335 0
 533 0004 0E4B     		ldr	r3, .L29
 534 0006 0E4A     		ldr	r2, .L29
 535 0008 1268     		ldr	r2, [r2]
 536 000a 0121     		mov	r1, #1
 537 000c 8A43     		bic	r2, r1
 538 000e 1A60     		str	r2, [r3]
 336:Generated_Source\PSoC4/CyLib.c ****                                           CY_SYS_CLK_OSCINTF_CTL_PORT_SEL_USB;
 337:Generated_Source\PSoC4/CyLib.c ****         #endif /* (CY_IP_IMO_TRIMMABLE_BY_WCO && CY_IP_IMO_TRIMMABLE_BY_USB) */
 338:Generated_Source\PSoC4/CyLib.c **** 
 339:Generated_Source\PSoC4/CyLib.c ****         #if(CY_IP_SRSSV2)
 340:Generated_Source\PSoC4/CyLib.c ****             /* Save CY_SYS_CLK_IMO_TRIM4_REG and set IMO gain for USB lock */
 341:Generated_Source\PSoC4/CyLib.c ****             CySysClkImoTrim4 = CY_SYS_CLK_IMO_TRIM4_REG & (uint32) ~CY_SYS_CLK_IMO_TRIM4_GAIN_MASK;
 539              		.loc 1 341 0
 540 0010 0C4B     		ldr	r3, .L29+4
 541 0012 1B68     		ldr	r3, [r3]
 542 0014 1F22     		mov	r2, #31
 543 0016 9343     		bic	r3, r2
 544 0018 1A1C     		mov	r2, r3
 545 001a 0B4B     		ldr	r3, .L29+8
 546 001c 1A60     		str	r2, [r3]
 342:Generated_Source\PSoC4/CyLib.c ****             CY_SYS_CLK_IMO_TRIM4_REG = (CY_SYS_CLK_IMO_TRIM4_REG & (uint32) ~CY_SYS_CLK_IMO_TRIM4_G
 547              		.loc 1 342 0
 548 001e 094B     		ldr	r3, .L29+4
 549 0020 084A     		ldr	r2, .L29+4
 550 0022 1268     		ldr	r2, [r2]
 551 0024 1F21     		mov	r1, #31
 552 0026 8A43     		bic	r2, r1
 553 0028 0821     		mov	r1, #8
 554 002a 0A43     		orr	r2, r1
 555 002c 1A60     		str	r2, [r3]
 343:Generated_Source\PSoC4/CyLib.c ****                                         CY_SYS_CLK_IMO_TRIM4_USB_GAIN;
 344:Generated_Source\PSoC4/CyLib.c ****         #endif  /* (CY_IP_SRSSV2) */
 345:Generated_Source\PSoC4/CyLib.c **** 
 346:Generated_Source\PSoC4/CyLib.c ****         CY_SYS_CLK_USBDEVv2_CR1_REG |= CY_SYS_CLK_USBDEVv2_CR1_ENABLE_LOCK;
 556              		.loc 1 346 0
 557 002e 074B     		ldr	r3, .L29+12
 558 0030 064A     		ldr	r2, .L29+12
ARM GAS  C:\Users\GREG~1.PHI\AppData\Local\Temp\cc70RmjF.s 			page 17


 559 0032 1268     		ldr	r2, [r2]
 560 0034 0221     		mov	r1, #2
 561 0036 0A43     		orr	r2, r1
 562 0038 1A60     		str	r2, [r3]
 347:Generated_Source\PSoC4/CyLib.c ****     }
 563              		.loc 1 347 0
 564 003a BD46     		mov	sp, r7
 565              		@ sp needed
 566 003c 80BD     		pop	{r7, pc}
 567              	.L30:
 568 003e C046     		.align	2
 569              	.L29:
 570 0040 50000C40 		.word	1074528336
 571 0044 34FF0B40 		.word	1074528052
 572 0048 00000000 		.word	CySysClkImoTrim4
 573 004c 24002C40 		.word	1076625444
 574              		.cfi_endproc
 575              	.LFE6:
 576              		.size	CySysClkImoEnableUsbLock, .-CySysClkImoEnableUsbLock
 577              		.section	.text.CySysClkImoDisableUsbLock,"ax",%progbits
 578              		.align	2
 579              		.global	CySysClkImoDisableUsbLock
 580              		.code	16
 581              		.thumb_func
 582              		.type	CySysClkImoDisableUsbLock, %function
 583              	CySysClkImoDisableUsbLock:
 584              	.LFB7:
 348:Generated_Source\PSoC4/CyLib.c **** 
 349:Generated_Source\PSoC4/CyLib.c **** 
 350:Generated_Source\PSoC4/CyLib.c ****     /*******************************************************************************
 351:Generated_Source\PSoC4/CyLib.c ****     * Function Name: CySysClkImoDisableUsbLock
 352:Generated_Source\PSoC4/CyLib.c ****     ****************************************************************************//**
 353:Generated_Source\PSoC4/CyLib.c ****     *
 354:Generated_Source\PSoC4/CyLib.c ****     * Disables the IMO to USB lock feature.
 355:Generated_Source\PSoC4/CyLib.c ****     *
 356:Generated_Source\PSoC4/CyLib.c ****     * This function is called from CySysClkImoStop() function if USB lock selected
 357:Generated_Source\PSoC4/CyLib.c ****     * in the Design Wide Resources tab.
 358:Generated_Source\PSoC4/CyLib.c ****     *
 359:Generated_Source\PSoC4/CyLib.c ****     * This is applicable for PSoC 4200L family of devices only. For PSoC 4200L
 360:Generated_Source\PSoC4/CyLib.c ****     * devices, the IMO can lock to either WCO or USB, but not both.
 361:Generated_Source\PSoC4/CyLib.c ****     *
 362:Generated_Source\PSoC4/CyLib.c ****     *******************************************************************************/
 363:Generated_Source\PSoC4/CyLib.c ****     void CySysClkImoDisableUsbLock(void)
 364:Generated_Source\PSoC4/CyLib.c ****     {
 585              		.loc 1 364 0
 586              		.cfi_startproc
 587 0000 80B5     		push	{r7, lr}
 588              		.cfi_def_cfa_offset 8
 589              		.cfi_offset 7, -8
 590              		.cfi_offset 14, -4
 591 0002 00AF     		add	r7, sp, #0
 592              		.cfi_def_cfa_register 7
 365:Generated_Source\PSoC4/CyLib.c ****         CY_SYS_CLK_USBDEVv2_CR1_REG &= (uint32) ~CY_SYS_CLK_USBDEVv2_CR1_ENABLE_LOCK;
 593              		.loc 1 365 0
 594 0004 084B     		ldr	r3, .L32
 595 0006 084A     		ldr	r2, .L32
 596 0008 1268     		ldr	r2, [r2]
ARM GAS  C:\Users\GREG~1.PHI\AppData\Local\Temp\cc70RmjF.s 			page 18


 597 000a 0221     		mov	r1, #2
 598 000c 8A43     		bic	r2, r1
 599 000e 1A60     		str	r2, [r3]
 366:Generated_Source\PSoC4/CyLib.c **** 
 367:Generated_Source\PSoC4/CyLib.c ****         #if(CY_IP_SRSSV2)
 368:Generated_Source\PSoC4/CyLib.c ****             /* Restore CY_SYS_CLK_IMO_TRIM4_REG */
 369:Generated_Source\PSoC4/CyLib.c ****             CY_SYS_CLK_IMO_TRIM4_REG = (CY_SYS_CLK_IMO_TRIM4_REG & (uint32) ~CY_SYS_CLK_IMO_TRIM4_G
 600              		.loc 1 369 0
 601 0010 064A     		ldr	r2, .L32+4
 602 0012 064B     		ldr	r3, .L32+4
 603 0014 1B68     		ldr	r3, [r3]
 604 0016 1F21     		mov	r1, #31
 605 0018 8B43     		bic	r3, r1
 606 001a 191C     		mov	r1, r3
 607 001c 044B     		ldr	r3, .L32+8
 608 001e 1B68     		ldr	r3, [r3]
 609 0020 0B43     		orr	r3, r1
 610 0022 1360     		str	r3, [r2]
 370:Generated_Source\PSoC4/CyLib.c ****                                     CySysClkImoTrim4;
 371:Generated_Source\PSoC4/CyLib.c ****         #endif  /* (CY_IP_SRSSV2) */
 372:Generated_Source\PSoC4/CyLib.c ****     }
 611              		.loc 1 372 0
 612 0024 BD46     		mov	sp, r7
 613              		@ sp needed
 614 0026 80BD     		pop	{r7, pc}
 615              	.L33:
 616              		.align	2
 617              	.L32:
 618 0028 24002C40 		.word	1076625444
 619 002c 34FF0B40 		.word	1074528052
 620 0030 00000000 		.word	CySysClkImoTrim4
 621              		.cfi_endproc
 622              	.LFE7:
 623              		.size	CySysClkImoDisableUsbLock, .-CySysClkImoDisableUsbLock
 624              		.section	.text.CySysClkImoGetUsbLock,"ax",%progbits
 625              		.align	2
 626              		.global	CySysClkImoGetUsbLock
 627              		.code	16
 628              		.thumb_func
 629              		.type	CySysClkImoGetUsbLock, %function
 630              	CySysClkImoGetUsbLock:
 631              	.LFB8:
 373:Generated_Source\PSoC4/CyLib.c **** 
 374:Generated_Source\PSoC4/CyLib.c **** 
 375:Generated_Source\PSoC4/CyLib.c ****     /*******************************************************************************
 376:Generated_Source\PSoC4/CyLib.c ****     * Function Name: CySysClkImoGetUsbLock
 377:Generated_Source\PSoC4/CyLib.c ****     ****************************************************************************//**
 378:Generated_Source\PSoC4/CyLib.c ****     *
 379:Generated_Source\PSoC4/CyLib.c ****     * Reports the IMO to USB lock enable state.
 380:Generated_Source\PSoC4/CyLib.c ****     *
 381:Generated_Source\PSoC4/CyLib.c ****     * This is applicable for PSoC 4200L family of devices only. For PSoC 4200L
 382:Generated_Source\PSoC4/CyLib.c ****     * devices, the IMO can lock to either WCO or USB, but not both.
 383:Generated_Source\PSoC4/CyLib.c ****     *
 384:Generated_Source\PSoC4/CyLib.c ****     * \return 1 if IMO to USB lock is enabled.
 385:Generated_Source\PSoC4/CyLib.c ****     * \return 0 if IMO to USB lock is disabled.
 386:Generated_Source\PSoC4/CyLib.c ****     *
 387:Generated_Source\PSoC4/CyLib.c ****     *******************************************************************************/
ARM GAS  C:\Users\GREG~1.PHI\AppData\Local\Temp\cc70RmjF.s 			page 19


 388:Generated_Source\PSoC4/CyLib.c ****     uint32 CySysClkImoGetUsbLock(void)
 389:Generated_Source\PSoC4/CyLib.c ****     {
 632              		.loc 1 389 0
 633              		.cfi_startproc
 634 0000 80B5     		push	{r7, lr}
 635              		.cfi_def_cfa_offset 8
 636              		.cfi_offset 7, -8
 637              		.cfi_offset 14, -4
 638 0002 00AF     		add	r7, sp, #0
 639              		.cfi_def_cfa_register 7
 390:Generated_Source\PSoC4/CyLib.c ****         return ((0u != (CY_SYS_CLK_USBDEVv2_CR1_REG & CY_SYS_CLK_USBDEVv2_CR1_ENABLE_LOCK)) ?
 640              		.loc 1 390 0
 641 0004 054B     		ldr	r3, .L38
 642 0006 1B68     		ldr	r3, [r3]
 643 0008 0222     		mov	r2, #2
 644 000a 1340     		and	r3, r2
 391:Generated_Source\PSoC4/CyLib.c ****                 (uint32) 1u :
 645              		.loc 1 391 0
 646 000c 01D0     		beq	.L35
 647              		.loc 1 391 0 is_stmt 0 discriminator 1
 648 000e 0123     		mov	r3, #1
 649 0010 00E0     		b	.L36
 650              	.L35:
 651              		.loc 1 391 0 discriminator 2
 652 0012 0023     		mov	r3, #0
 653              	.L36:
 392:Generated_Source\PSoC4/CyLib.c ****                 (uint32) 0u);
 393:Generated_Source\PSoC4/CyLib.c ****     }
 654              		.loc 1 393 0 is_stmt 1
 655 0014 181C     		mov	r0, r3
 656 0016 BD46     		mov	sp, r7
 657              		@ sp needed
 658 0018 80BD     		pop	{r7, pc}
 659              	.L39:
 660 001a C046     		.align	2
 661              	.L38:
 662 001c 24002C40 		.word	1076625444
 663              		.cfi_endproc
 664              	.LFE8:
 665              		.size	CySysClkImoGetUsbLock, .-CySysClkImoGetUsbLock
 666              		.section	.text.CySysClkWriteHfclkDirect,"ax",%progbits
 667              		.align	2
 668              		.global	CySysClkWriteHfclkDirect
 669              		.code	16
 670              		.thumb_func
 671              		.type	CySysClkWriteHfclkDirect, %function
 672              	CySysClkWriteHfclkDirect:
 673              	.LFB9:
 394:Generated_Source\PSoC4/CyLib.c **** #endif  /* (CY_IP_IMO_TRIMMABLE_BY_USB) */
 395:Generated_Source\PSoC4/CyLib.c **** 
 396:Generated_Source\PSoC4/CyLib.c **** 
 397:Generated_Source\PSoC4/CyLib.c **** 
 398:Generated_Source\PSoC4/CyLib.c **** /*******************************************************************************
 399:Generated_Source\PSoC4/CyLib.c **** * Function Name: CySysClkWriteHfclkDirect
 400:Generated_Source\PSoC4/CyLib.c **** ****************************************************************************//**
 401:Generated_Source\PSoC4/CyLib.c **** *
 402:Generated_Source\PSoC4/CyLib.c **** * Selects the direct source for the HFCLK.
ARM GAS  C:\Users\GREG~1.PHI\AppData\Local\Temp\cc70RmjF.s 			page 20


 403:Generated_Source\PSoC4/CyLib.c **** *
 404:Generated_Source\PSoC4/CyLib.c **** * The new source must be running and stable before calling this function.
 405:Generated_Source\PSoC4/CyLib.c **** *
 406:Generated_Source\PSoC4/CyLib.c **** * PSoC 4000:
 407:Generated_Source\PSoC4/CyLib.c **** * The SYSCLK has a maximum speed of 16 MHz, so HFCLK and SYSCLK dividers should
 408:Generated_Source\PSoC4/CyLib.c **** * be selected in a way to not to exceed 16 MHz for the System clock.
 409:Generated_Source\PSoC4/CyLib.c **** *
 410:Generated_Source\PSoC4/CyLib.c **** * If the SYSCLK clock frequency increases during device operation, call
 411:Generated_Source\PSoC4/CyLib.c **** * CySysFlashSetWaitCycles() with the appropriate parameter to adjust the number
 412:Generated_Source\PSoC4/CyLib.c **** * of clock cycles the cache will wait before sampling data comes back from
 413:Generated_Source\PSoC4/CyLib.c **** * Flash. If the SYSCLK clock frequency decreases, you can call
 414:Generated_Source\PSoC4/CyLib.c **** * CySysFlashSetWaitCycles() to improve the CPU performance. See
 415:Generated_Source\PSoC4/CyLib.c **** * CySysFlashSetWaitCycles() description for more information.
 416:Generated_Source\PSoC4/CyLib.c **** *
 417:Generated_Source\PSoC4/CyLib.c **** * Do not select PLL as the source for HFCLK if PLL output frequency exceeds
 418:Generated_Source\PSoC4/CyLib.c **** * maximum permissible value for HFCLK.
 419:Generated_Source\PSoC4/CyLib.c **** *
 420:Generated_Source\PSoC4/CyLib.c **** * \param clkSelect One of the available HFCLK direct sources.
 421:Generated_Source\PSoC4/CyLib.c **** * CY_SYS_CLK_HFCLK_IMO     IMO.
 422:Generated_Source\PSoC4/CyLib.c **** * CY_SYS_CLK_HFCLK_EXTCLK  External clock pin.
 423:Generated_Source\PSoC4/CyLib.c **** * CY_SYS_CLK_HFCLK_ECO     External crystal oscillator. Applicable for
 424:Generated_Source\PSoC4/CyLib.c **** *                          PSoC 4100 BLE / PSoC 4200 BLE / PSoC 4200L.
 425:Generated_Source\PSoC4/CyLib.c **** * CY_SYS_CLK_HFCLK_PLL0    PLL#0. Applicable for PSoC 4200L.
 426:Generated_Source\PSoC4/CyLib.c **** * CY_SYS_CLK_HFCLK_PLL1    PLL#1. Applicable for PSoC 4200L.
 427:Generated_Source\PSoC4/CyLib.c **** *
 428:Generated_Source\PSoC4/CyLib.c **** *******************************************************************************/
 429:Generated_Source\PSoC4/CyLib.c **** void CySysClkWriteHfclkDirect(uint32 clkSelect)
 430:Generated_Source\PSoC4/CyLib.c **** {
 674              		.loc 1 430 0
 675              		.cfi_startproc
 676 0000 90B5     		push	{r4, r7, lr}
 677              		.cfi_def_cfa_offset 12
 678              		.cfi_offset 4, -12
 679              		.cfi_offset 7, -8
 680              		.cfi_offset 14, -4
 681 0002 85B0     		sub	sp, sp, #20
 682              		.cfi_def_cfa_offset 32
 683 0004 00AF     		add	r7, sp, #0
 684              		.cfi_def_cfa_register 7
 685 0006 7860     		str	r0, [r7, #4]
 431:Generated_Source\PSoC4/CyLib.c ****     uint8  interruptState;
 432:Generated_Source\PSoC4/CyLib.c ****     uint32 tmpReg;
 433:Generated_Source\PSoC4/CyLib.c **** 
 434:Generated_Source\PSoC4/CyLib.c ****     interruptState = CyEnterCriticalSection();
 686              		.loc 1 434 0
 687 0008 0B23     		mov	r3, #11
 688 000a FC18     		add	r4, r7, r3
 689 000c FFF7FEFF 		bl	CyEnterCriticalSection
 690 0010 031C     		mov	r3, r0
 691 0012 2370     		strb	r3, [r4]
 435:Generated_Source\PSoC4/CyLib.c **** 
 436:Generated_Source\PSoC4/CyLib.c **** 
 437:Generated_Source\PSoC4/CyLib.c ****     tmpReg = CY_SYS_CLK_SELECT_REG & ~(CY_SYS_CLK_SELECT_DIRECT_SEL_MASK |
 692              		.loc 1 437 0
 693 0014 144B     		ldr	r3, .L44
 694 0016 1B68     		ldr	r3, [r3]
 695 0018 144A     		ldr	r2, .L44+4
ARM GAS  C:\Users\GREG~1.PHI\AppData\Local\Temp\cc70RmjF.s 			page 21


 696 001a 1340     		and	r3, r2
 697 001c FB60     		str	r3, [r7, #12]
 438:Generated_Source\PSoC4/CyLib.c ****                                        CY_SYS_CLK_SELECT_HFCLK_SEL_MASK);
 439:Generated_Source\PSoC4/CyLib.c **** 
 440:Generated_Source\PSoC4/CyLib.c **** #if (CY_IP_SRSSV2 && CY_IP_PLL)
 441:Generated_Source\PSoC4/CyLib.c ****     if ((CY_SYS_CLK_HFCLK_PLL0 == clkSelect) || (CY_SYS_CLK_HFCLK_PLL1 == clkSelect))
 698              		.loc 1 441 0
 699 001e 7A68     		ldr	r2, [r7, #4]
 700 0020 8023     		mov	r3, #128
 701 0022 9B02     		lsl	r3, r3, #10
 702 0024 9A42     		cmp	r2, r3
 703 0026 04D0     		beq	.L41
 704              		.loc 1 441 0 is_stmt 0 discriminator 1
 705 0028 7A68     		ldr	r2, [r7, #4]
 706 002a 8023     		mov	r3, #128
 707 002c 5B02     		lsl	r3, r3, #9
 708 002e 9A42     		cmp	r2, r3
 709 0030 07D1     		bne	.L42
 710              	.L41:
 442:Generated_Source\PSoC4/CyLib.c ****     {
 443:Generated_Source\PSoC4/CyLib.c ****         tmpReg |= (clkSelect & CY_SYS_CLK_SELECT_HFCLK_SEL_MASK);
 711              		.loc 1 443 0 is_stmt 1
 712 0032 7A68     		ldr	r2, [r7, #4]
 713 0034 C023     		mov	r3, #192
 714 0036 9B02     		lsl	r3, r3, #10
 715 0038 1340     		and	r3, r2
 716 003a FA68     		ldr	r2, [r7, #12]
 717 003c 1343     		orr	r3, r2
 718 003e FB60     		str	r3, [r7, #12]
 719 0040 05E0     		b	.L43
 720              	.L42:
 444:Generated_Source\PSoC4/CyLib.c ****     }
 445:Generated_Source\PSoC4/CyLib.c ****     else
 446:Generated_Source\PSoC4/CyLib.c **** #endif /* (CY_IP_SRSSV2 && CY_IP_PLL) */
 447:Generated_Source\PSoC4/CyLib.c ****     {
 448:Generated_Source\PSoC4/CyLib.c ****         tmpReg |= (clkSelect & CY_SYS_CLK_SELECT_DIRECT_SEL_MASK);
 721              		.loc 1 448 0
 722 0042 7B68     		ldr	r3, [r7, #4]
 723 0044 0722     		mov	r2, #7
 724 0046 1340     		and	r3, r2
 725 0048 FA68     		ldr	r2, [r7, #12]
 726 004a 1343     		orr	r3, r2
 727 004c FB60     		str	r3, [r7, #12]
 728              	.L43:
 449:Generated_Source\PSoC4/CyLib.c ****     }
 450:Generated_Source\PSoC4/CyLib.c **** 
 451:Generated_Source\PSoC4/CyLib.c ****     CY_SYS_CLK_SELECT_REG = tmpReg;
 729              		.loc 1 451 0
 730 004e 064B     		ldr	r3, .L44
 731 0050 FA68     		ldr	r2, [r7, #12]
 732 0052 1A60     		str	r2, [r3]
 452:Generated_Source\PSoC4/CyLib.c **** 
 453:Generated_Source\PSoC4/CyLib.c ****     CyExitCriticalSection(interruptState);
 733              		.loc 1 453 0
 734 0054 0B23     		mov	r3, #11
 735 0056 FB18     		add	r3, r7, r3
 736 0058 1B78     		ldrb	r3, [r3]
ARM GAS  C:\Users\GREG~1.PHI\AppData\Local\Temp\cc70RmjF.s 			page 22


 737 005a 181C     		mov	r0, r3
 738 005c FFF7FEFF 		bl	CyExitCriticalSection
 454:Generated_Source\PSoC4/CyLib.c **** }
 739              		.loc 1 454 0
 740 0060 BD46     		mov	sp, r7
 741 0062 05B0     		add	sp, sp, #20
 742              		@ sp needed
 743 0064 90BD     		pop	{r4, r7, pc}
 744              	.L45:
 745 0066 C046     		.align	2
 746              	.L44:
 747 0068 00010B40 		.word	1074462976
 748 006c F8FFFCFF 		.word	-196616
 749              		.cfi_endproc
 750              	.LFE9:
 751              		.size	CySysClkWriteHfclkDirect, .-CySysClkWriteHfclkDirect
 752              		.section	.text.CySysEnablePumpClock,"ax",%progbits
 753              		.align	2
 754              		.global	CySysEnablePumpClock
 755              		.code	16
 756              		.thumb_func
 757              		.type	CySysEnablePumpClock, %function
 758              	CySysEnablePumpClock:
 759              	.LFB10:
 455:Generated_Source\PSoC4/CyLib.c **** 
 456:Generated_Source\PSoC4/CyLib.c **** 
 457:Generated_Source\PSoC4/CyLib.c **** /*******************************************************************************
 458:Generated_Source\PSoC4/CyLib.c **** * Function Name: CySysEnablePumpClock
 459:Generated_Source\PSoC4/CyLib.c **** ****************************************************************************//**
 460:Generated_Source\PSoC4/CyLib.c **** *
 461:Generated_Source\PSoC4/CyLib.c **** * Enables / disables the pump clock.
 462:Generated_Source\PSoC4/CyLib.c **** *
 463:Generated_Source\PSoC4/CyLib.c **** * \param enable  
 464:Generated_Source\PSoC4/CyLib.c **** * CY_SYS_CLK_PUMP_DISABLE - Disables the pump clock
 465:Generated_Source\PSoC4/CyLib.c **** * CY_SYS_CLK_PUMP_ENABLE - Enables and restores the operating source of 
 466:Generated_Source\PSoC4/CyLib.c **** * the pump clock.
 467:Generated_Source\PSoC4/CyLib.c **** *
 468:Generated_Source\PSoC4/CyLib.c **** * \sideeffect
 469:Generated_Source\PSoC4/CyLib.c **** *  Enabling/disabling the pump clock does not guarantee glitch free operation 
 470:Generated_Source\PSoC4/CyLib.c **** *  when changing the IMO parameters or clock divider settings.
 471:Generated_Source\PSoC4/CyLib.c **** *
 472:Generated_Source\PSoC4/CyLib.c **** *******************************************************************************/
 473:Generated_Source\PSoC4/CyLib.c **** void CySysEnablePumpClock(uint32 enable)
 474:Generated_Source\PSoC4/CyLib.c **** {
 760              		.loc 1 474 0
 761              		.cfi_startproc
 762 0000 80B5     		push	{r7, lr}
 763              		.cfi_def_cfa_offset 8
 764              		.cfi_offset 7, -8
 765              		.cfi_offset 14, -4
 766 0002 82B0     		sub	sp, sp, #8
 767              		.cfi_def_cfa_offset 16
 768 0004 00AF     		add	r7, sp, #0
 769              		.cfi_def_cfa_register 7
 770 0006 7860     		str	r0, [r7, #4]
 475:Generated_Source\PSoC4/CyLib.c ****     #if(CY_IP_SRSSV2)
 476:Generated_Source\PSoC4/CyLib.c ****         if (0u != (CY_SYS_CLK_PUMP_ENABLE & enable))
ARM GAS  C:\Users\GREG~1.PHI\AppData\Local\Temp\cc70RmjF.s 			page 23


 771              		.loc 1 476 0
 772 0008 7B68     		ldr	r3, [r7, #4]
 773 000a 0122     		mov	r2, #1
 774 000c 1340     		and	r3, r2
 775 000e 08D0     		beq	.L47
 477:Generated_Source\PSoC4/CyLib.c ****         {
 478:Generated_Source\PSoC4/CyLib.c ****             CY_SYS_CLK_IMO_CONFIG_REG |= (CySysClkPumpConfig << CY_SYS_CLK_IMO_CONFIG_PUMP_SEL_SHIF
 776              		.loc 1 478 0
 777 0010 0C4A     		ldr	r2, .L49
 778 0012 0C4B     		ldr	r3, .L49
 779 0014 1968     		ldr	r1, [r3]
 780 0016 0C4B     		ldr	r3, .L49+4
 781 0018 1B68     		ldr	r3, [r3]
 782 001a 5B06     		lsl	r3, r3, #25
 783 001c 0B43     		orr	r3, r1
 784 001e 1360     		str	r3, [r2]
 785 0020 0CE0     		b	.L46
 786              	.L47:
 479:Generated_Source\PSoC4/CyLib.c ****         }
 480:Generated_Source\PSoC4/CyLib.c ****         else
 481:Generated_Source\PSoC4/CyLib.c ****         {
 482:Generated_Source\PSoC4/CyLib.c ****             CySysClkPumpConfig = (CY_SYS_CLK_IMO_CONFIG_REG >> CY_SYS_CLK_IMO_CONFIG_PUMP_SEL_SHIFT
 787              		.loc 1 482 0
 788 0022 084B     		ldr	r3, .L49
 789 0024 1B68     		ldr	r3, [r3]
 790 0026 5B0E     		lsr	r3, r3, #25
 791 0028 0722     		mov	r2, #7
 792 002a 1A40     		and	r2, r3
 793 002c 064B     		ldr	r3, .L49+4
 794 002e 1A60     		str	r2, [r3]
 483:Generated_Source\PSoC4/CyLib.c ****                                   CY_SYS_CLK_IMO_CONFIG_PUMP_SEL_MASK;
 484:Generated_Source\PSoC4/CyLib.c ****             CY_SYS_CLK_IMO_CONFIG_REG &= ~(CY_SYS_CLK_IMO_CONFIG_PUMP_SEL_MASK << CY_SYS_CLK_IMO_CO
 795              		.loc 1 484 0
 796 0030 044B     		ldr	r3, .L49
 797 0032 044A     		ldr	r2, .L49
 798 0034 1268     		ldr	r2, [r2]
 799 0036 0549     		ldr	r1, .L49+8
 800 0038 0A40     		and	r2, r1
 801 003a 1A60     		str	r2, [r3]
 802              	.L46:
 485:Generated_Source\PSoC4/CyLib.c ****         }
 486:Generated_Source\PSoC4/CyLib.c ****     #else /* CY_IP_SRSSLT */
 487:Generated_Source\PSoC4/CyLib.c ****         if (0u != (CY_SYS_CLK_PUMP_ENABLE & enable))
 488:Generated_Source\PSoC4/CyLib.c ****         {
 489:Generated_Source\PSoC4/CyLib.c ****             CY_SYS_CLK_SELECT_REG |= (CySysClkPumpConfig << CY_SYS_CLK_SELECT_PUMP_SEL_SHIFT);
 490:Generated_Source\PSoC4/CyLib.c ****         }
 491:Generated_Source\PSoC4/CyLib.c ****         else
 492:Generated_Source\PSoC4/CyLib.c ****         {
 493:Generated_Source\PSoC4/CyLib.c ****             CySysClkPumpConfig = (CY_SYS_CLK_SELECT_REG >> CY_SYS_CLK_SELECT_PUMP_SEL_SHIFT) & 
 494:Generated_Source\PSoC4/CyLib.c ****                                   CY_SYS_CLK_SELECT_PUMP_SEL_MASK;
 495:Generated_Source\PSoC4/CyLib.c ****             CY_SYS_CLK_SELECT_REG &= ~(CY_SYS_CLK_SELECT_PUMP_SEL_MASK << CY_SYS_CLK_SELECT_PUMP_SE
 496:Generated_Source\PSoC4/CyLib.c ****         }
 497:Generated_Source\PSoC4/CyLib.c ****     #endif  /* (CY_IP_SRSSV2) */
 498:Generated_Source\PSoC4/CyLib.c **** }
 803              		.loc 1 498 0
 804 003c BD46     		mov	sp, r7
 805 003e 02B0     		add	sp, sp, #8
ARM GAS  C:\Users\GREG~1.PHI\AppData\Local\Temp\cc70RmjF.s 			page 24


 806              		@ sp needed
 807 0040 80BD     		pop	{r7, pc}
 808              	.L50:
 809 0042 C046     		.align	2
 810              	.L49:
 811 0044 08010B40 		.word	1074462984
 812 0048 00000000 		.word	CySysClkPumpConfig
 813 004c FFFFFFF1 		.word	-234881025
 814              		.cfi_endproc
 815              	.LFE10:
 816              		.size	CySysEnablePumpClock, .-CySysEnablePumpClock
 817              		.section	.text.CySysClkGetSysclkSource,"ax",%progbits
 818              		.align	2
 819              		.global	CySysClkGetSysclkSource
 820              		.code	16
 821              		.thumb_func
 822              		.type	CySysClkGetSysclkSource, %function
 823              	CySysClkGetSysclkSource:
 824              	.LFB11:
 499:Generated_Source\PSoC4/CyLib.c **** 
 500:Generated_Source\PSoC4/CyLib.c **** 
 501:Generated_Source\PSoC4/CyLib.c **** /*******************************************************************************
 502:Generated_Source\PSoC4/CyLib.c **** * Function Name: CySysClkGetSysclkSource
 503:Generated_Source\PSoC4/CyLib.c **** ****************************************************************************//**
 504:Generated_Source\PSoC4/CyLib.c **** *
 505:Generated_Source\PSoC4/CyLib.c **** * Returns the source of the System clock.
 506:Generated_Source\PSoC4/CyLib.c **** *
 507:Generated_Source\PSoC4/CyLib.c **** * \return The same as \ref CySysClkWriteHfclkDirect() function parameters.
 508:Generated_Source\PSoC4/CyLib.c **** *
 509:Generated_Source\PSoC4/CyLib.c **** *******************************************************************************/
 510:Generated_Source\PSoC4/CyLib.c **** uint32 CySysClkGetSysclkSource(void)
 511:Generated_Source\PSoC4/CyLib.c **** {
 825              		.loc 1 511 0
 826              		.cfi_startproc
 827 0000 90B5     		push	{r4, r7, lr}
 828              		.cfi_def_cfa_offset 12
 829              		.cfi_offset 4, -12
 830              		.cfi_offset 7, -8
 831              		.cfi_offset 14, -4
 832 0002 83B0     		sub	sp, sp, #12
 833              		.cfi_def_cfa_offset 24
 834 0004 00AF     		add	r7, sp, #0
 835              		.cfi_def_cfa_register 7
 512:Generated_Source\PSoC4/CyLib.c ****     uint8  interruptState;
 513:Generated_Source\PSoC4/CyLib.c ****     uint32 sysclkSource;
 514:Generated_Source\PSoC4/CyLib.c **** 
 515:Generated_Source\PSoC4/CyLib.c ****     interruptState = CyEnterCriticalSection();
 836              		.loc 1 515 0
 837 0006 FC1C     		add	r4, r7, #3
 838 0008 FFF7FEFF 		bl	CyEnterCriticalSection
 839 000c 031C     		mov	r3, r0
 840 000e 2370     		strb	r3, [r4]
 516:Generated_Source\PSoC4/CyLib.c **** 
 517:Generated_Source\PSoC4/CyLib.c **** #if (CY_IP_SRSSV2 && CY_IP_PLL)
 518:Generated_Source\PSoC4/CyLib.c ****     if ((CY_SYS_CLK_SELECT_REG & CY_SYS_CLK_SELECT_HFCLK_SEL_MASK) != 0u)
 841              		.loc 1 518 0
 842 0010 0D4B     		ldr	r3, .L55
ARM GAS  C:\Users\GREG~1.PHI\AppData\Local\Temp\cc70RmjF.s 			page 25


 843 0012 1A68     		ldr	r2, [r3]
 844 0014 C023     		mov	r3, #192
 845 0016 9B02     		lsl	r3, r3, #10
 846 0018 1340     		and	r3, r2
 847 001a 06D0     		beq	.L52
 519:Generated_Source\PSoC4/CyLib.c ****     {
 520:Generated_Source\PSoC4/CyLib.c ****         sysclkSource = (CY_SYS_CLK_SELECT_REG & CY_SYS_CLK_SELECT_HFCLK_SEL_MASK);
 848              		.loc 1 520 0
 849 001c 0A4B     		ldr	r3, .L55
 850 001e 1A68     		ldr	r2, [r3]
 851 0020 C023     		mov	r3, #192
 852 0022 9B02     		lsl	r3, r3, #10
 853 0024 1340     		and	r3, r2
 854 0026 7B60     		str	r3, [r7, #4]
 855 0028 04E0     		b	.L53
 856              	.L52:
 521:Generated_Source\PSoC4/CyLib.c ****     }
 522:Generated_Source\PSoC4/CyLib.c ****     else
 523:Generated_Source\PSoC4/CyLib.c **** #endif /* (CY_IP_SRSSV2 && CY_IP_PLL) */
 524:Generated_Source\PSoC4/CyLib.c ****     {
 525:Generated_Source\PSoC4/CyLib.c ****         sysclkSource = (CY_SYS_CLK_SELECT_REG & CY_SYS_CLK_SELECT_DIRECT_SEL_MASK);
 857              		.loc 1 525 0
 858 002a 074B     		ldr	r3, .L55
 859 002c 1B68     		ldr	r3, [r3]
 860 002e 0722     		mov	r2, #7
 861 0030 1340     		and	r3, r2
 862 0032 7B60     		str	r3, [r7, #4]
 863              	.L53:
 526:Generated_Source\PSoC4/CyLib.c ****     }
 527:Generated_Source\PSoC4/CyLib.c **** 
 528:Generated_Source\PSoC4/CyLib.c ****     CyExitCriticalSection(interruptState);
 864              		.loc 1 528 0
 865 0034 FB1C     		add	r3, r7, #3
 866 0036 1B78     		ldrb	r3, [r3]
 867 0038 181C     		mov	r0, r3
 868 003a FFF7FEFF 		bl	CyExitCriticalSection
 529:Generated_Source\PSoC4/CyLib.c **** 
 530:Generated_Source\PSoC4/CyLib.c ****     return (sysclkSource);
 869              		.loc 1 530 0
 870 003e 7B68     		ldr	r3, [r7, #4]
 531:Generated_Source\PSoC4/CyLib.c **** }
 871              		.loc 1 531 0
 872 0040 181C     		mov	r0, r3
 873 0042 BD46     		mov	sp, r7
 874 0044 03B0     		add	sp, sp, #12
 875              		@ sp needed
 876 0046 90BD     		pop	{r4, r7, pc}
 877              	.L56:
 878              		.align	2
 879              	.L55:
 880 0048 00010B40 		.word	1074462976
 881              		.cfi_endproc
 882              	.LFE11:
 883              		.size	CySysClkGetSysclkSource, .-CySysClkGetSysclkSource
 884              		.section	.text.CySysClkWriteSysclkDiv,"ax",%progbits
 885              		.align	2
 886              		.global	CySysClkWriteSysclkDiv
ARM GAS  C:\Users\GREG~1.PHI\AppData\Local\Temp\cc70RmjF.s 			page 26


 887              		.code	16
 888              		.thumb_func
 889              		.type	CySysClkWriteSysclkDiv, %function
 890              	CySysClkWriteSysclkDiv:
 891              	.LFB12:
 532:Generated_Source\PSoC4/CyLib.c **** 
 533:Generated_Source\PSoC4/CyLib.c **** 
 534:Generated_Source\PSoC4/CyLib.c **** /*******************************************************************************
 535:Generated_Source\PSoC4/CyLib.c **** * Function Name: CySysClkWriteSysclkDiv
 536:Generated_Source\PSoC4/CyLib.c **** ****************************************************************************//**
 537:Generated_Source\PSoC4/CyLib.c **** *
 538:Generated_Source\PSoC4/CyLib.c **** * Selects the prescaler divide amount for SYSCLK from HFCLK.
 539:Generated_Source\PSoC4/CyLib.c **** *
 540:Generated_Source\PSoC4/CyLib.c **** * PSoC 4000: The SYSCLK has the speed of 16 MHz, so HFCLK and SYSCLK dividers
 541:Generated_Source\PSoC4/CyLib.c **** * should be selected in a way, not to exceed 16 MHz for SYSCLK.
 542:Generated_Source\PSoC4/CyLib.c **** *
 543:Generated_Source\PSoC4/CyLib.c **** * PSoC 4100 \ PSoC 4100 BLE \ PSoC 4100M: The SYSCLK has the speed of 24 MHz,
 544:Generated_Source\PSoC4/CyLib.c **** * so HFCLK and SYSCLK dividers should be selected in a way, not to exceed 24 MHz
 545:Generated_Source\PSoC4/CyLib.c **** * for SYSCLK.
 546:Generated_Source\PSoC4/CyLib.c **** *
 547:Generated_Source\PSoC4/CyLib.c **** * If the SYSCLK clock frequency increases during the device operation, call
 548:Generated_Source\PSoC4/CyLib.c **** * \ref CySysFlashSetWaitCycles() with the appropriate parameter to adjust the
 549:Generated_Source\PSoC4/CyLib.c **** * number of clock cycles the cache will wait before sampling data comes back
 550:Generated_Source\PSoC4/CyLib.c **** * from Flash. If the SYSCLK clock frequency decreases, you can call
 551:Generated_Source\PSoC4/CyLib.c **** * \ref CySysFlashSetWaitCycles() to improve the CPU performance. See
 552:Generated_Source\PSoC4/CyLib.c **** * \ref CySysFlashSetWaitCycles() description for more information.
 553:Generated_Source\PSoC4/CyLib.c **** *
 554:Generated_Source\PSoC4/CyLib.c **** * \param divider Power of 2 prescaler selection
 555:Generated_Source\PSoC4/CyLib.c **** *  CY_SYS_CLK_SYSCLK_DIV1        SYSCLK = HFCLK / 1
 556:Generated_Source\PSoC4/CyLib.c **** *  CY_SYS_CLK_SYSCLK_DIV2        SYSCLK = HFCLK / 2
 557:Generated_Source\PSoC4/CyLib.c **** *  CY_SYS_CLK_SYSCLK_DIV4        SYSCLK = HFCLK / 4
 558:Generated_Source\PSoC4/CyLib.c **** *  CY_SYS_CLK_SYSCLK_DIV8        SYSCLK = HFCLK / 8
 559:Generated_Source\PSoC4/CyLib.c **** *  CY_SYS_CLK_SYSCLK_DIV16       SYSCLK = HFCLK / 16  (N/A for 4000 Family)
 560:Generated_Source\PSoC4/CyLib.c **** *  CY_SYS_CLK_SYSCLK_DIV32       SYSCLK = HFCLK / 32  (N/A for 4000 Family)
 561:Generated_Source\PSoC4/CyLib.c **** *  CY_SYS_CLK_SYSCLK_DIV64       SYSCLK = HFCLK / 64  (N/A for 4000 Family)
 562:Generated_Source\PSoC4/CyLib.c **** *  CY_SYS_CLK_SYSCLK_DIV128      SYSCLK = HFCLK / 128 (N/A for 4000 Family)
 563:Generated_Source\PSoC4/CyLib.c **** *
 564:Generated_Source\PSoC4/CyLib.c **** *******************************************************************************/
 565:Generated_Source\PSoC4/CyLib.c **** void CySysClkWriteSysclkDiv(uint32 divider)
 566:Generated_Source\PSoC4/CyLib.c **** {
 892              		.loc 1 566 0
 893              		.cfi_startproc
 894 0000 90B5     		push	{r4, r7, lr}
 895              		.cfi_def_cfa_offset 12
 896              		.cfi_offset 4, -12
 897              		.cfi_offset 7, -8
 898              		.cfi_offset 14, -4
 899 0002 85B0     		sub	sp, sp, #20
 900              		.cfi_def_cfa_offset 32
 901 0004 00AF     		add	r7, sp, #0
 902              		.cfi_def_cfa_register 7
 903 0006 7860     		str	r0, [r7, #4]
 567:Generated_Source\PSoC4/CyLib.c ****     uint8  interruptState;
 568:Generated_Source\PSoC4/CyLib.c **** 
 569:Generated_Source\PSoC4/CyLib.c ****     interruptState = CyEnterCriticalSection();
 904              		.loc 1 569 0
 905 0008 0F23     		mov	r3, #15
ARM GAS  C:\Users\GREG~1.PHI\AppData\Local\Temp\cc70RmjF.s 			page 27


 906 000a FC18     		add	r4, r7, r3
 907 000c FFF7FEFF 		bl	CyEnterCriticalSection
 908 0010 031C     		mov	r3, r0
 909 0012 2370     		strb	r3, [r4]
 570:Generated_Source\PSoC4/CyLib.c **** 
 571:Generated_Source\PSoC4/CyLib.c ****     CY_SYS_CLK_SELECT_REG = ((uint32)(((uint32)divider & CY_SYS_CLK_SELECT_SYSCLK_DIV_MASK) <<
 910              		.loc 1 571 0
 911 0014 094B     		ldr	r3, .L58
 912 0016 7A68     		ldr	r2, [r7, #4]
 913 0018 0721     		mov	r1, #7
 914 001a 0A40     		and	r2, r1
 915 001c D104     		lsl	r1, r2, #19
 572:Generated_Source\PSoC4/CyLib.c ****                                     CY_SYS_CLK_SELECT_SYSCLK_DIV_SHIFT)) |
 573:Generated_Source\PSoC4/CyLib.c ****                             (CY_SYS_CLK_SELECT_REG & ((uint32)(~(uint32)(CY_SYS_CLK_SELECT_SYSCLK_D
 916              		.loc 1 573 0
 917 001e 074A     		ldr	r2, .L58
 918 0020 1268     		ldr	r2, [r2]
 919 0022 0748     		ldr	r0, .L58+4
 920 0024 0240     		and	r2, r0
 572:Generated_Source\PSoC4/CyLib.c ****                                     CY_SYS_CLK_SELECT_SYSCLK_DIV_SHIFT)) |
 921              		.loc 1 572 0
 922 0026 0A43     		orr	r2, r1
 571:Generated_Source\PSoC4/CyLib.c ****                                     CY_SYS_CLK_SELECT_SYSCLK_DIV_SHIFT)) |
 923              		.loc 1 571 0
 924 0028 1A60     		str	r2, [r3]
 574:Generated_Source\PSoC4/CyLib.c ****                                     CY_SYS_CLK_SELECT_SYSCLK_DIV_SHIFT))));
 575:Generated_Source\PSoC4/CyLib.c **** 
 576:Generated_Source\PSoC4/CyLib.c ****     CyExitCriticalSection(interruptState);
 925              		.loc 1 576 0
 926 002a 0F23     		mov	r3, #15
 927 002c FB18     		add	r3, r7, r3
 928 002e 1B78     		ldrb	r3, [r3]
 929 0030 181C     		mov	r0, r3
 930 0032 FFF7FEFF 		bl	CyExitCriticalSection
 577:Generated_Source\PSoC4/CyLib.c **** }
 931              		.loc 1 577 0
 932 0036 BD46     		mov	sp, r7
 933 0038 05B0     		add	sp, sp, #20
 934              		@ sp needed
 935 003a 90BD     		pop	{r4, r7, pc}
 936              	.L59:
 937              		.align	2
 938              	.L58:
 939 003c 00010B40 		.word	1074462976
 940 0040 FFFFC7FF 		.word	-3670017
 941              		.cfi_endproc
 942              	.LFE12:
 943              		.size	CySysClkWriteSysclkDiv, .-CySysClkWriteSysclkDiv
 944              		.section	.text.CySysClkWriteImoFreq,"ax",%progbits
 945              		.align	2
 946              		.global	CySysClkWriteImoFreq
 947              		.code	16
 948              		.thumb_func
 949              		.type	CySysClkWriteImoFreq, %function
 950              	CySysClkWriteImoFreq:
 951              	.LFB13:
 578:Generated_Source\PSoC4/CyLib.c **** 
ARM GAS  C:\Users\GREG~1.PHI\AppData\Local\Temp\cc70RmjF.s 			page 28


 579:Generated_Source\PSoC4/CyLib.c **** 
 580:Generated_Source\PSoC4/CyLib.c **** /*******************************************************************************
 581:Generated_Source\PSoC4/CyLib.c **** * Function Name: CySysClkWriteImoFreq
 582:Generated_Source\PSoC4/CyLib.c **** ****************************************************************************//**
 583:Generated_Source\PSoC4/CyLib.c **** *
 584:Generated_Source\PSoC4/CyLib.c **** * Sets the frequency of the IMO.
 585:Generated_Source\PSoC4/CyLib.c **** *
 586:Generated_Source\PSoC4/CyLib.c **** * PSoC 4000: The SYSCLK has the speed of 16 MHz, so HFCLK and SYSCLK dividers
 587:Generated_Source\PSoC4/CyLib.c **** * should be selected in a way, not to exceed 16 MHz for SYSCLK.
 588:Generated_Source\PSoC4/CyLib.c **** *
 589:Generated_Source\PSoC4/CyLib.c **** * PSoC 4100 \ PSoC 4100 BLE \ PSoC 4100M: The SYSCLK has the speed of 24 MHz,
 590:Generated_Source\PSoC4/CyLib.c **** * so HFCLK and SYSCLK dividers should be selected in a way, not to exceed 24 MHz
 591:Generated_Source\PSoC4/CyLib.c **** * for SYSCLK.
 592:Generated_Source\PSoC4/CyLib.c **** *
 593:Generated_Source\PSoC4/CyLib.c **** * For PSoC 4200M and PSoC 4200L device families, if WCO lock feature is enabled
 594:Generated_Source\PSoC4/CyLib.c **** * then this API will disable the lock, write the new IMO frequency and then
 595:Generated_Source\PSoC4/CyLib.c **** * re-enable the lock.
 596:Generated_Source\PSoC4/CyLib.c **** *
 597:Generated_Source\PSoC4/CyLib.c **** * For PSoC 4200L device families, this function enables the USB lock when 24 or
 598:Generated_Source\PSoC4/CyLib.c **** * 48 MHz passed as a parameter if the USB lock option is enabled in Design Wide
 599:Generated_Source\PSoC4/CyLib.c **** * Resources tab or CySysClkImoEnableUsbLock() was called before. Note the USB
 600:Generated_Source\PSoC4/CyLib.c **** * lock is disabled during IMO frequency change.
 601:Generated_Source\PSoC4/CyLib.c **** *
 602:Generated_Source\PSoC4/CyLib.c **** * The CPU is halted if new frequency is invalid and project is compiled
 603:Generated_Source\PSoC4/CyLib.c **** * in debug mode.
 604:Generated_Source\PSoC4/CyLib.c **** *
 605:Generated_Source\PSoC4/CyLib.c **** * If the SYSCLK clock frequency increases during the device operation, call
 606:Generated_Source\PSoC4/CyLib.c **** * \ref CySysFlashSetWaitCycles() with the appropriate parameter to adjust the
 607:Generated_Source\PSoC4/CyLib.c **** * number of clock cycles the cache will wait before sampling data comes back
 608:Generated_Source\PSoC4/CyLib.c **** * from Flash. If the SYSCLK clock frequency decreases, you can call
 609:Generated_Source\PSoC4/CyLib.c **** * \ref CySysFlashSetWaitCycles() to improve the CPU performance. See
 610:Generated_Source\PSoC4/CyLib.c **** * \ref CySysFlashSetWaitCycles() description for more information.
 611:Generated_Source\PSoC4/CyLib.c **** *
 612:Generated_Source\PSoC4/CyLib.c **** * PSoC 4000: The System Clock (SYSCLK) has maximum speed of 16 MHz, so HFCLK
 613:Generated_Source\PSoC4/CyLib.c **** * and SYSCLK dividers should be selected in a way, to not to exceed 16 MHz for
 614:Generated_Source\PSoC4/CyLib.c **** * the System clock.
 615:Generated_Source\PSoC4/CyLib.c **** *
 616:Generated_Source\PSoC4/CyLib.c **** * \param freq All PSoC 4 families excluding the following: Valid range [3-48]
 617:Generated_Source\PSoC4/CyLib.c **** * with step size equals 1. PSoC 4000: Valid values are 24, 32, and 48.
 618:Generated_Source\PSoC4/CyLib.c **** * PSoC 4000S / PSoC 4100S / PSoC 4400: Valid range [24-48] with step size equals
 619:Generated_Source\PSoC4/CyLib.c **** * 4.
 620:Generated_Source\PSoC4/CyLib.c **** *
 621:Generated_Source\PSoC4/CyLib.c **** *******************************************************************************/
 622:Generated_Source\PSoC4/CyLib.c **** #if(CY_IP_SRSSV2)
 623:Generated_Source\PSoC4/CyLib.c ****     void CySysClkWriteImoFreq(uint32 freq)
 624:Generated_Source\PSoC4/CyLib.c ****     {
 952              		.loc 1 624 0
 953              		.cfi_startproc
 954 0000 90B5     		push	{r4, r7, lr}
 955              		.cfi_def_cfa_offset 12
 956              		.cfi_offset 4, -12
 957              		.cfi_offset 7, -8
 958              		.cfi_offset 14, -4
 959 0002 87B0     		sub	sp, sp, #28
 960              		.cfi_def_cfa_offset 40
 961 0004 00AF     		add	r7, sp, #0
 962              		.cfi_def_cfa_register 7
ARM GAS  C:\Users\GREG~1.PHI\AppData\Local\Temp\cc70RmjF.s 			page 29


 963 0006 7860     		str	r0, [r7, #4]
 625:Generated_Source\PSoC4/CyLib.c ****         #if (CY_IP_FMLT)
 626:Generated_Source\PSoC4/CyLib.c ****             volatile uint32   parameters[2u];
 627:Generated_Source\PSoC4/CyLib.c ****             volatile uint32   regValues[4u];
 628:Generated_Source\PSoC4/CyLib.c ****         #else
 629:Generated_Source\PSoC4/CyLib.c ****             uint8  bgTrim4;
 630:Generated_Source\PSoC4/CyLib.c ****             uint8  bgTrim5;
 631:Generated_Source\PSoC4/CyLib.c ****             uint8  newImoTrim2Value;
 632:Generated_Source\PSoC4/CyLib.c ****             uint8  currentImoTrim2Value;
 633:Generated_Source\PSoC4/CyLib.c ****             uint8  imoTrim1Value;
 634:Generated_Source\PSoC4/CyLib.c ****         #endif /* (CY_IP_FM) */
 635:Generated_Source\PSoC4/CyLib.c **** 
 636:Generated_Source\PSoC4/CyLib.c ****         #if (CY_IP_IMO_TRIMMABLE_BY_WCO)
 637:Generated_Source\PSoC4/CyLib.c ****             uint32 wcoLock = 0u;
 964              		.loc 1 637 0
 965 0008 0023     		mov	r3, #0
 966 000a 3B61     		str	r3, [r7, #16]
 638:Generated_Source\PSoC4/CyLib.c ****         #endif  /* (CY_IP_IMO_TRIMMABLE_BY_WCO) */
 639:Generated_Source\PSoC4/CyLib.c **** 
 640:Generated_Source\PSoC4/CyLib.c ****         #if (CY_IP_IMO_TRIMMABLE_BY_USB)
 641:Generated_Source\PSoC4/CyLib.c ****             uint32 usbLock = 0u;
 967              		.loc 1 641 0
 968 000c 0023     		mov	r3, #0
 969 000e FB60     		str	r3, [r7, #12]
 642:Generated_Source\PSoC4/CyLib.c ****         #endif  /* (CY_IP_IMO_TRIMMABLE_BY_USB) */
 643:Generated_Source\PSoC4/CyLib.c **** 
 644:Generated_Source\PSoC4/CyLib.c ****         uint8  interruptState;
 645:Generated_Source\PSoC4/CyLib.c **** 
 646:Generated_Source\PSoC4/CyLib.c **** 
 647:Generated_Source\PSoC4/CyLib.c ****         interruptState = CyEnterCriticalSection();
 970              		.loc 1 647 0
 971 0010 0B23     		mov	r3, #11
 972 0012 FC18     		add	r4, r7, r3
 973 0014 FFF7FEFF 		bl	CyEnterCriticalSection
 974 0018 031C     		mov	r3, r0
 975 001a 2370     		strb	r3, [r4]
 648:Generated_Source\PSoC4/CyLib.c **** 
 649:Generated_Source\PSoC4/CyLib.c ****         #if (CY_IP_IMO_TRIMMABLE_BY_WCO)
 650:Generated_Source\PSoC4/CyLib.c ****             if(0u != CySysClkImoGetWcoLock())
 976              		.loc 1 650 0
 977 001c FFF7FEFF 		bl	CySysClkImoGetWcoLock
 978 0020 031E     		sub	r3, r0, #0
 979 0022 03D0     		beq	.L61
 651:Generated_Source\PSoC4/CyLib.c ****             {
 652:Generated_Source\PSoC4/CyLib.c ****                 wcoLock = 1u;
 980              		.loc 1 652 0
 981 0024 0123     		mov	r3, #1
 982 0026 3B61     		str	r3, [r7, #16]
 653:Generated_Source\PSoC4/CyLib.c ****                 CySysClkImoDisableWcoLock();
 983              		.loc 1 653 0
 984 0028 FFF7FEFF 		bl	CySysClkImoDisableWcoLock
 985              	.L61:
 654:Generated_Source\PSoC4/CyLib.c ****             }
 655:Generated_Source\PSoC4/CyLib.c ****         #endif  /* (CY_IP_IMO_TRIMMABLE_BY_WCO) */
 656:Generated_Source\PSoC4/CyLib.c **** 
 657:Generated_Source\PSoC4/CyLib.c **** 
 658:Generated_Source\PSoC4/CyLib.c ****         #if (CY_IP_IMO_TRIMMABLE_BY_USB)
ARM GAS  C:\Users\GREG~1.PHI\AppData\Local\Temp\cc70RmjF.s 			page 30


 659:Generated_Source\PSoC4/CyLib.c **** 
 660:Generated_Source\PSoC4/CyLib.c ****             #if (CYDEV_IMO_TRIMMED_BY_USB == 0u)
 661:Generated_Source\PSoC4/CyLib.c ****                 if(0u != CySysClkImoGetUsbLock())
 986              		.loc 1 661 0
 987 002c FFF7FEFF 		bl	CySysClkImoGetUsbLock
 988 0030 031E     		sub	r3, r0, #0
 989 0032 09D0     		beq	.L62
 662:Generated_Source\PSoC4/CyLib.c ****                 {
 663:Generated_Source\PSoC4/CyLib.c ****             #endif  /* (CYDEV_IMO_TRIMMED_BY_USB == 0u) */
 664:Generated_Source\PSoC4/CyLib.c **** 
 665:Generated_Source\PSoC4/CyLib.c ****                 if ((24u == freq) || (48u == freq))
 990              		.loc 1 665 0
 991 0034 7B68     		ldr	r3, [r7, #4]
 992 0036 182B     		cmp	r3, #24
 993 0038 02D0     		beq	.L63
 994              		.loc 1 665 0 is_stmt 0 discriminator 1
 995 003a 7B68     		ldr	r3, [r7, #4]
 996 003c 302B     		cmp	r3, #48
 997 003e 03D1     		bne	.L62
 998              	.L63:
 666:Generated_Source\PSoC4/CyLib.c ****                 {
 667:Generated_Source\PSoC4/CyLib.c ****                     usbLock = 1u;
 999              		.loc 1 667 0 is_stmt 1
 1000 0040 0123     		mov	r3, #1
 1001 0042 FB60     		str	r3, [r7, #12]
 668:Generated_Source\PSoC4/CyLib.c ****                     CySysClkImoDisableUsbLock();
 1002              		.loc 1 668 0
 1003 0044 FFF7FEFF 		bl	CySysClkImoDisableUsbLock
 1004              	.L62:
 669:Generated_Source\PSoC4/CyLib.c ****                 }
 670:Generated_Source\PSoC4/CyLib.c **** 
 671:Generated_Source\PSoC4/CyLib.c ****             #if (CYDEV_IMO_TRIMMED_BY_USB == 0u)
 672:Generated_Source\PSoC4/CyLib.c ****                 }
 673:Generated_Source\PSoC4/CyLib.c ****             #endif  /* (CYDEV_IMO_TRIMMED_BY_USB == 0u) */
 674:Generated_Source\PSoC4/CyLib.c **** 
 675:Generated_Source\PSoC4/CyLib.c ****         #endif  /* (CYDEV_IMO_TRIMMED_BY_USB == 0u) */
 676:Generated_Source\PSoC4/CyLib.c **** 
 677:Generated_Source\PSoC4/CyLib.c **** 
 678:Generated_Source\PSoC4/CyLib.c ****         #if (CY_IP_FMLT)
 679:Generated_Source\PSoC4/CyLib.c **** 
 680:Generated_Source\PSoC4/CyLib.c ****             /* FM-Lite Clock Restore */
 681:Generated_Source\PSoC4/CyLib.c ****             regValues[0u] = CY_SYS_CLK_IMO_CONFIG_REG;
 682:Generated_Source\PSoC4/CyLib.c ****             regValues[1u] = CY_SYS_CLK_SELECT_REG;
 683:Generated_Source\PSoC4/CyLib.c ****             regValues[2u] = cyImoFreqMhz2Reg[freq - CY_SYS_CLK_IMO_FREQ_TABLE_OFFSET];
 684:Generated_Source\PSoC4/CyLib.c ****             regValues[3u] = CY_FLASH_CTL_REG;
 685:Generated_Source\PSoC4/CyLib.c **** 
 686:Generated_Source\PSoC4/CyLib.c ****             parameters[0u] =
 687:Generated_Source\PSoC4/CyLib.c ****                 (uint32) ((CY_FLASH_KEY_TWO(CY_FLASH_API_OPCODE_CLK_RESTORE) <<  CY_FLASH_PARAM_KEY
 688:Generated_Source\PSoC4/CyLib.c ****                             CY_FLASH_KEY_ONE);
 689:Generated_Source\PSoC4/CyLib.c ****             parameters[1u] = (uint32) &regValues[0u];
 690:Generated_Source\PSoC4/CyLib.c **** 
 691:Generated_Source\PSoC4/CyLib.c ****             CY_FLASH_CPUSS_SYSARG_REG = (uint32) &parameters[0u];
 692:Generated_Source\PSoC4/CyLib.c ****             CY_FLASH_CPUSS_SYSREQ_REG = CY_FLASH_CPUSS_REQ_START | CY_FLASH_API_OPCODE_CLK_RESTORE;
 693:Generated_Source\PSoC4/CyLib.c ****             (void) CY_FLASH_CPUSS_SYSARG_REG;
 694:Generated_Source\PSoC4/CyLib.c **** 
 695:Generated_Source\PSoC4/CyLib.c ****         #else /* (CY_IP_FM) */
 696:Generated_Source\PSoC4/CyLib.c **** 
ARM GAS  C:\Users\GREG~1.PHI\AppData\Local\Temp\cc70RmjF.s 			page 31


 697:Generated_Source\PSoC4/CyLib.c ****         if ((freq >= CY_SYS_CLK_IMO_MIN_FREQ_MHZ) && (freq <= CY_SYS_CLK_IMO_MAX_FREQ_MHZ))
 1005              		.loc 1 697 0
 1006 0048 7B68     		ldr	r3, [r7, #4]
 1007 004a 022B     		cmp	r3, #2
 1008 004c 00D8     		bhi	.LCB774
 1009 004e CCE0     		b	.L64	@long jump
 1010              	.LCB774:
 1011              		.loc 1 697 0 is_stmt 0 discriminator 1
 1012 0050 7B68     		ldr	r3, [r7, #4]
 1013 0052 302B     		cmp	r3, #48
 1014 0054 00D9     		bls	.LCB777
 1015 0056 C8E0     		b	.L64	@long jump
 1016              	.LCB777:
 698:Generated_Source\PSoC4/CyLib.c ****         {
 699:Generated_Source\PSoC4/CyLib.c ****             if(freq <= CY_SFLASH_IMO_MAXF0_REG)
 1017              		.loc 1 699 0 is_stmt 1
 1018 0058 6F4B     		ldr	r3, .L80
 1019 005a 1B78     		ldrb	r3, [r3]
 1020 005c DBB2     		uxtb	r3, r3
 1021 005e 1A1E     		sub	r2, r3, #0
 1022 0060 7B68     		ldr	r3, [r7, #4]
 1023 0062 9A42     		cmp	r2, r3
 1024 0064 0AD3     		bcc	.L65
 700:Generated_Source\PSoC4/CyLib.c ****             {
 701:Generated_Source\PSoC4/CyLib.c ****                 bgTrim4 = CY_SFLASH_IMO_ABS0_REG;
 1025              		.loc 1 701 0
 1026 0066 6D4A     		ldr	r2, .L80+4
 1027 0068 1723     		mov	r3, #23
 1028 006a FB18     		add	r3, r7, r3
 1029 006c 1278     		ldrb	r2, [r2]
 1030 006e 1A70     		strb	r2, [r3]
 702:Generated_Source\PSoC4/CyLib.c ****                 bgTrim5 = CY_SFLASH_IMO_TMPCO0_REG;
 1031              		.loc 1 702 0
 1032 0070 6B4A     		ldr	r2, .L80+8
 1033 0072 1623     		mov	r3, #22
 1034 0074 FB18     		add	r3, r7, r3
 1035 0076 1278     		ldrb	r2, [r2]
 1036 0078 1A70     		strb	r2, [r3]
 1037 007a 3FE0     		b	.L66
 1038              	.L65:
 703:Generated_Source\PSoC4/CyLib.c ****             }
 704:Generated_Source\PSoC4/CyLib.c ****             else if(freq <= CY_SFLASH_IMO_MAXF1_REG)
 1039              		.loc 1 704 0
 1040 007c 694B     		ldr	r3, .L80+12
 1041 007e 1B78     		ldrb	r3, [r3]
 1042 0080 DBB2     		uxtb	r3, r3
 1043 0082 1A1E     		sub	r2, r3, #0
 1044 0084 7B68     		ldr	r3, [r7, #4]
 1045 0086 9A42     		cmp	r2, r3
 1046 0088 0AD3     		bcc	.L67
 705:Generated_Source\PSoC4/CyLib.c ****             {
 706:Generated_Source\PSoC4/CyLib.c ****                 bgTrim4 = CY_SFLASH_IMO_ABS1_REG;
 1047              		.loc 1 706 0
 1048 008a 674A     		ldr	r2, .L80+16
 1049 008c 1723     		mov	r3, #23
 1050 008e FB18     		add	r3, r7, r3
 1051 0090 1278     		ldrb	r2, [r2]
ARM GAS  C:\Users\GREG~1.PHI\AppData\Local\Temp\cc70RmjF.s 			page 32


 1052 0092 1A70     		strb	r2, [r3]
 707:Generated_Source\PSoC4/CyLib.c ****                 bgTrim5 = CY_SFLASH_IMO_TMPCO1_REG;
 1053              		.loc 1 707 0
 1054 0094 654A     		ldr	r2, .L80+20
 1055 0096 1623     		mov	r3, #22
 1056 0098 FB18     		add	r3, r7, r3
 1057 009a 1278     		ldrb	r2, [r2]
 1058 009c 1A70     		strb	r2, [r3]
 1059 009e 2DE0     		b	.L66
 1060              	.L67:
 708:Generated_Source\PSoC4/CyLib.c ****             }
 709:Generated_Source\PSoC4/CyLib.c ****             else if(freq <= CY_SFLASH_IMO_MAXF2_REG)
 1061              		.loc 1 709 0
 1062 00a0 634B     		ldr	r3, .L80+24
 1063 00a2 1B78     		ldrb	r3, [r3]
 1064 00a4 DBB2     		uxtb	r3, r3
 1065 00a6 1A1E     		sub	r2, r3, #0
 1066 00a8 7B68     		ldr	r3, [r7, #4]
 1067 00aa 9A42     		cmp	r2, r3
 1068 00ac 0AD3     		bcc	.L68
 710:Generated_Source\PSoC4/CyLib.c ****             {
 711:Generated_Source\PSoC4/CyLib.c ****                 bgTrim4 = CY_SFLASH_IMO_ABS2_REG;
 1069              		.loc 1 711 0
 1070 00ae 614A     		ldr	r2, .L80+28
 1071 00b0 1723     		mov	r3, #23
 1072 00b2 FB18     		add	r3, r7, r3
 1073 00b4 1278     		ldrb	r2, [r2]
 1074 00b6 1A70     		strb	r2, [r3]
 712:Generated_Source\PSoC4/CyLib.c ****                 bgTrim5 = CY_SFLASH_IMO_TMPCO2_REG;
 1075              		.loc 1 712 0
 1076 00b8 5F4A     		ldr	r2, .L80+32
 1077 00ba 1623     		mov	r3, #22
 1078 00bc FB18     		add	r3, r7, r3
 1079 00be 1278     		ldrb	r2, [r2]
 1080 00c0 1A70     		strb	r2, [r3]
 1081 00c2 1BE0     		b	.L66
 1082              	.L68:
 713:Generated_Source\PSoC4/CyLib.c ****             }
 714:Generated_Source\PSoC4/CyLib.c ****             else if(freq <= CY_SFLASH_IMO_MAXF3_REG)
 1083              		.loc 1 714 0
 1084 00c4 5D4B     		ldr	r3, .L80+36
 1085 00c6 1B78     		ldrb	r3, [r3]
 1086 00c8 DBB2     		uxtb	r3, r3
 1087 00ca 1A1E     		sub	r2, r3, #0
 1088 00cc 7B68     		ldr	r3, [r7, #4]
 1089 00ce 9A42     		cmp	r2, r3
 1090 00d0 0AD3     		bcc	.L69
 715:Generated_Source\PSoC4/CyLib.c ****             {
 716:Generated_Source\PSoC4/CyLib.c ****                 bgTrim4 = CY_SFLASH_IMO_ABS3_REG;
 1091              		.loc 1 716 0
 1092 00d2 5B4A     		ldr	r2, .L80+40
 1093 00d4 1723     		mov	r3, #23
 1094 00d6 FB18     		add	r3, r7, r3
 1095 00d8 1278     		ldrb	r2, [r2]
 1096 00da 1A70     		strb	r2, [r3]
 717:Generated_Source\PSoC4/CyLib.c ****                 bgTrim5 = CY_SFLASH_IMO_TMPCO3_REG;
 1097              		.loc 1 717 0
ARM GAS  C:\Users\GREG~1.PHI\AppData\Local\Temp\cc70RmjF.s 			page 33


 1098 00dc 594A     		ldr	r2, .L80+44
 1099 00de 1623     		mov	r3, #22
 1100 00e0 FB18     		add	r3, r7, r3
 1101 00e2 1278     		ldrb	r2, [r2]
 1102 00e4 1A70     		strb	r2, [r3]
 1103 00e6 09E0     		b	.L66
 1104              	.L69:
 718:Generated_Source\PSoC4/CyLib.c ****             }
 719:Generated_Source\PSoC4/CyLib.c ****             else
 720:Generated_Source\PSoC4/CyLib.c ****             {
 721:Generated_Source\PSoC4/CyLib.c ****                 bgTrim4 = CY_SFLASH_IMO_ABS4_REG;
 1105              		.loc 1 721 0
 1106 00e8 574A     		ldr	r2, .L80+48
 1107 00ea 1723     		mov	r3, #23
 1108 00ec FB18     		add	r3, r7, r3
 1109 00ee 1278     		ldrb	r2, [r2]
 1110 00f0 1A70     		strb	r2, [r3]
 722:Generated_Source\PSoC4/CyLib.c ****                 bgTrim5 = CY_SFLASH_IMO_TMPCO4_REG;
 1111              		.loc 1 722 0
 1112 00f2 564A     		ldr	r2, .L80+52
 1113 00f4 1623     		mov	r3, #22
 1114 00f6 FB18     		add	r3, r7, r3
 1115 00f8 1278     		ldrb	r2, [r2]
 1116 00fa 1A70     		strb	r2, [r3]
 1117              	.L66:
 723:Generated_Source\PSoC4/CyLib.c ****             }
 724:Generated_Source\PSoC4/CyLib.c **** 
 725:Generated_Source\PSoC4/CyLib.c ****             /* Get IMO_TRIM2 value for the new frequency */
 726:Generated_Source\PSoC4/CyLib.c ****             newImoTrim2Value = cyImoFreqMhz2Reg[freq - CY_SYS_CLK_IMO_FREQ_TABLE_OFFSET];
 1118              		.loc 1 726 0
 1119 00fc 7B68     		ldr	r3, [r7, #4]
 1120 00fe DA1E     		sub	r2, r3, #3
 1121 0100 0A23     		mov	r3, #10
 1122 0102 FB18     		add	r3, r7, r3
 1123 0104 5249     		ldr	r1, .L80+56
 1124 0106 8A5C     		ldrb	r2, [r1, r2]
 1125 0108 1A70     		strb	r2, [r3]
 727:Generated_Source\PSoC4/CyLib.c **** 
 728:Generated_Source\PSoC4/CyLib.c **** 
 729:Generated_Source\PSoC4/CyLib.c ****             /****************************************************************************
 730:Generated_Source\PSoC4/CyLib.c ****             * The IMO can have a different trim per frequency. To avoid possible corner
 731:Generated_Source\PSoC4/CyLib.c ****             * cases where a trim change can exceed the maximum frequency, the trim must
 732:Generated_Source\PSoC4/CyLib.c ****             * be applied at a frequency that is low enough.
 733:Generated_Source\PSoC4/CyLib.c ****             *
 734:Generated_Source\PSoC4/CyLib.c ****             * Comparing IMO_TRIM2 values for the current and new frequencies, since
 735:Generated_Source\PSoC4/CyLib.c ****             * IMO_TRIM2 value as a function of IMO frequency is a strictly increasing
 736:Generated_Source\PSoC4/CyLib.c ****             * function and is time-invariant.
 737:Generated_Source\PSoC4/CyLib.c ****             ***************************************************************************/
 738:Generated_Source\PSoC4/CyLib.c ****             if ((newImoTrim2Value >= CY_SYS_CLK_IMO_BOUNDARY_FREQ_TRIM2) && (freq >= CY_SYS_CLK_IMO
 1126              		.loc 1 738 0
 1127 010a 0A23     		mov	r3, #10
 1128 010c FB18     		add	r3, r7, r3
 1129 010e 1B78     		ldrb	r3, [r3]
 1130 0110 2F2B     		cmp	r3, #47
 1131 0112 0DD9     		bls	.L70
 1132              		.loc 1 738 0 is_stmt 0 discriminator 1
 1133 0114 7B68     		ldr	r3, [r7, #4]
ARM GAS  C:\Users\GREG~1.PHI\AppData\Local\Temp\cc70RmjF.s 			page 34


 1134 0116 2A2B     		cmp	r3, #42
 1135 0118 0AD9     		bls	.L70
 739:Generated_Source\PSoC4/CyLib.c ****             {
 740:Generated_Source\PSoC4/CyLib.c ****                 /* Set boundary IMO frequency: safe for IMO above 48 MHZ trimming */
 741:Generated_Source\PSoC4/CyLib.c ****                 CY_SYS_CLK_IMO_TRIM2_REG = (uint32) cyImoFreqMhz2Reg[CY_SYS_CLK_IMO_TEMP_FREQ_MHZ -
 1136              		.loc 1 741 0 is_stmt 1
 1137 011a 4E4B     		ldr	r3, .L80+60
 1138 011c 1922     		mov	r2, #25
 1139 011e 1A60     		str	r2, [r3]
 742:Generated_Source\PSoC4/CyLib.c ****                                                                      CY_SYS_CLK_IMO_FREQ_TABLE_OFFS
 743:Generated_Source\PSoC4/CyLib.c **** 
 744:Generated_Source\PSoC4/CyLib.c ****                 CyDelayCycles(CY_SYS_CLK_IMO_FREQ_TIMEOUT_CYCLES);
 1140              		.loc 1 744 0
 1141 0120 0520     		mov	r0, #5
 1142 0122 FFF7FEFF 		bl	CyDelayCycles
 745:Generated_Source\PSoC4/CyLib.c **** 
 746:Generated_Source\PSoC4/CyLib.c ****                 currentImoTrim2Value = CY_SYS_CLK_IMO_TEMP_FREQ_TRIM2;
 1143              		.loc 1 746 0
 1144 0126 1523     		mov	r3, #21
 1145 0128 FB18     		add	r3, r7, r3
 1146 012a 1922     		mov	r2, #25
 1147 012c 1A70     		strb	r2, [r3]
 1148 012e 07E0     		b	.L71
 1149              	.L70:
 747:Generated_Source\PSoC4/CyLib.c ****             }
 748:Generated_Source\PSoC4/CyLib.c ****             else
 749:Generated_Source\PSoC4/CyLib.c ****             {
 750:Generated_Source\PSoC4/CyLib.c ****                 currentImoTrim2Value = (uint8) (CY_SYS_CLK_IMO_TRIM2_REG & CY_SYS_CLK_IMO_FREQ_BITS
 1150              		.loc 1 750 0
 1151 0130 484B     		ldr	r3, .L80+60
 1152 0132 1B68     		ldr	r3, [r3]
 1153 0134 DAB2     		uxtb	r2, r3
 1154 0136 1523     		mov	r3, #21
 1155 0138 FB18     		add	r3, r7, r3
 1156 013a 3F21     		mov	r1, #63
 1157 013c 0A40     		and	r2, r1
 1158 013e 1A70     		strb	r2, [r3]
 1159              	.L71:
 751:Generated_Source\PSoC4/CyLib.c ****             }
 752:Generated_Source\PSoC4/CyLib.c **** 
 753:Generated_Source\PSoC4/CyLib.c **** 
 754:Generated_Source\PSoC4/CyLib.c ****             /***************************************************************************
 755:Generated_Source\PSoC4/CyLib.c ****             * A trim change needs to be allowed to settle (within 5us) before the Freq
 756:Generated_Source\PSoC4/CyLib.c ****             * can be changed to a new frequency.
 757:Generated_Source\PSoC4/CyLib.c ****             *
 758:Generated_Source\PSoC4/CyLib.c ****             * Comparing IMO_TRIM2 values for the current and new frequencies, since
 759:Generated_Source\PSoC4/CyLib.c ****             * IMO_TRIM2 value as a function of IMO frequency is a strictly increasing
 760:Generated_Source\PSoC4/CyLib.c ****             * function and is time-invariant.
 761:Generated_Source\PSoC4/CyLib.c ****             ***************************************************************************/
 762:Generated_Source\PSoC4/CyLib.c ****             if (newImoTrim2Value < currentImoTrim2Value)
 1160              		.loc 1 762 0
 1161 0140 0A23     		mov	r3, #10
 1162 0142 FA18     		add	r2, r7, r3
 1163 0144 1523     		mov	r3, #21
 1164 0146 FB18     		add	r3, r7, r3
 1165 0148 1278     		ldrb	r2, [r2]
 1166 014a 1B78     		ldrb	r3, [r3]
ARM GAS  C:\Users\GREG~1.PHI\AppData\Local\Temp\cc70RmjF.s 			page 35


 1167 014c 9A42     		cmp	r2, r3
 1168 014e 08D2     		bcs	.L72
 763:Generated_Source\PSoC4/CyLib.c ****             {
 764:Generated_Source\PSoC4/CyLib.c ****                 /* Set new IMO frequency */
 765:Generated_Source\PSoC4/CyLib.c ****                 CY_SYS_CLK_IMO_TRIM2_REG = cyImoFreqMhz2Reg[freq - CY_SYS_CLK_IMO_FREQ_TABLE_OFFSET
 1169              		.loc 1 765 0
 1170 0150 404B     		ldr	r3, .L80+60
 1171 0152 7A68     		ldr	r2, [r7, #4]
 1172 0154 033A     		sub	r2, r2, #3
 1173 0156 3E49     		ldr	r1, .L80+56
 1174 0158 8A5C     		ldrb	r2, [r1, r2]
 1175 015a 1A60     		str	r2, [r3]
 766:Generated_Source\PSoC4/CyLib.c ****                 CyDelayCycles(CY_SYS_CLK_IMO_FREQ_TIMEOUT_CYCLES);
 1176              		.loc 1 766 0
 1177 015c 0520     		mov	r0, #5
 1178 015e FFF7FEFF 		bl	CyDelayCycles
 1179              	.L72:
 767:Generated_Source\PSoC4/CyLib.c ****             }
 768:Generated_Source\PSoC4/CyLib.c **** 
 769:Generated_Source\PSoC4/CyLib.c ****             /* Set trims for the new IMO frequency */
 770:Generated_Source\PSoC4/CyLib.c **** 
 771:Generated_Source\PSoC4/CyLib.c ****             #if (CY_IP_IMO_TRIMMABLE_BY_USB)
 772:Generated_Source\PSoC4/CyLib.c ****                 if ((1u == usbLock) && (48u == freq))
 1180              		.loc 1 772 0
 1181 0162 FB68     		ldr	r3, [r7, #12]
 1182 0164 012B     		cmp	r3, #1
 1183 0166 08D1     		bne	.L73
 1184              		.loc 1 772 0 is_stmt 0 discriminator 1
 1185 0168 7B68     		ldr	r3, [r7, #4]
 1186 016a 302B     		cmp	r3, #48
 1187 016c 05D1     		bne	.L73
 773:Generated_Source\PSoC4/CyLib.c ****                 {
 774:Generated_Source\PSoC4/CyLib.c ****                     imoTrim1Value = CY_SFLASH_IMO_TRIM_USBMODE_48_REG;
 1188              		.loc 1 774 0 is_stmt 1
 1189 016e 3A4A     		ldr	r2, .L80+64
 1190 0170 1423     		mov	r3, #20
 1191 0172 FB18     		add	r3, r7, r3
 1192 0174 1278     		ldrb	r2, [r2]
 1193 0176 1A70     		strb	r2, [r3]
 1194 0178 12E0     		b	.L74
 1195              	.L73:
 775:Generated_Source\PSoC4/CyLib.c ****                 }
 776:Generated_Source\PSoC4/CyLib.c ****                 else if ((1u == usbLock) && (24u == freq))
 1196              		.loc 1 776 0
 1197 017a FB68     		ldr	r3, [r7, #12]
 1198 017c 012B     		cmp	r3, #1
 1199 017e 08D1     		bne	.L75
 1200              		.loc 1 776 0 is_stmt 0 discriminator 1
 1201 0180 7B68     		ldr	r3, [r7, #4]
 1202 0182 182B     		cmp	r3, #24
 1203 0184 05D1     		bne	.L75
 777:Generated_Source\PSoC4/CyLib.c ****                 {
 778:Generated_Source\PSoC4/CyLib.c ****                     imoTrim1Value = CY_SFLASH_IMO_TRIM_USBMODE_24_REG;
 1204              		.loc 1 778 0 is_stmt 1
 1205 0186 354A     		ldr	r2, .L80+68
 1206 0188 1423     		mov	r3, #20
 1207 018a FB18     		add	r3, r7, r3
ARM GAS  C:\Users\GREG~1.PHI\AppData\Local\Temp\cc70RmjF.s 			page 36


 1208 018c 1278     		ldrb	r2, [r2]
 1209 018e 1A70     		strb	r2, [r3]
 1210 0190 06E0     		b	.L74
 1211              	.L75:
 779:Generated_Source\PSoC4/CyLib.c ****                 }
 780:Generated_Source\PSoC4/CyLib.c ****                 else
 781:Generated_Source\PSoC4/CyLib.c ****                 {
 782:Generated_Source\PSoC4/CyLib.c ****                     imoTrim1Value = (uint8) CY_SFLASH_IMO_TRIM_REG(freq - CY_SYS_CLK_IMO_FREQ_TABLE
 1212              		.loc 1 782 0
 1213 0192 7B68     		ldr	r3, [r7, #4]
 1214 0194 2D4A     		ldr	r2, .L80+52
 1215 0196 9A18     		add	r2, r3, r2
 1216 0198 1423     		mov	r3, #20
 1217 019a FB18     		add	r3, r7, r3
 1218 019c 1278     		ldrb	r2, [r2]
 1219 019e 1A70     		strb	r2, [r3]
 1220              	.L74:
 783:Generated_Source\PSoC4/CyLib.c ****                 }
 784:Generated_Source\PSoC4/CyLib.c ****             #else
 785:Generated_Source\PSoC4/CyLib.c ****                 imoTrim1Value = (uint8) CY_SFLASH_IMO_TRIM_REG(freq - CY_SYS_CLK_IMO_FREQ_TABLE_OFF
 786:Generated_Source\PSoC4/CyLib.c ****             #endif  /* (CY_IP_IMO_TRIMMABLE_BY_USB) */
 787:Generated_Source\PSoC4/CyLib.c **** 
 788:Generated_Source\PSoC4/CyLib.c **** 
 789:Generated_Source\PSoC4/CyLib.c ****             CY_SYS_CLK_IMO_TRIM1_REG = (uint32) imoTrim1Value;
 1221              		.loc 1 789 0
 1222 01a0 2F4B     		ldr	r3, .L80+72
 1223 01a2 1422     		mov	r2, #20
 1224 01a4 BA18     		add	r2, r7, r2
 1225 01a6 1278     		ldrb	r2, [r2]
 1226 01a8 1A60     		str	r2, [r3]
 790:Generated_Source\PSoC4/CyLib.c ****             CY_PWR_BG_TRIM4_REG  = bgTrim4;
 1227              		.loc 1 790 0
 1228 01aa 2E4B     		ldr	r3, .L80+76
 1229 01ac 1722     		mov	r2, #23
 1230 01ae BA18     		add	r2, r7, r2
 1231 01b0 1278     		ldrb	r2, [r2]
 1232 01b2 1A60     		str	r2, [r3]
 791:Generated_Source\PSoC4/CyLib.c ****             CY_PWR_BG_TRIM5_REG  = bgTrim5;
 1233              		.loc 1 791 0
 1234 01b4 2C4B     		ldr	r3, .L80+80
 1235 01b6 1622     		mov	r2, #22
 1236 01b8 BA18     		add	r2, r7, r2
 1237 01ba 1278     		ldrb	r2, [r2]
 1238 01bc 1A60     		str	r2, [r3]
 792:Generated_Source\PSoC4/CyLib.c ****             CyDelayUs(CY_SYS_CLK_IMO_TRIM_TIMEOUT_US);
 1239              		.loc 1 792 0
 1240 01be 0520     		mov	r0, #5
 1241 01c0 FFF7FEFF 		bl	CyDelayUs
 793:Generated_Source\PSoC4/CyLib.c **** 
 794:Generated_Source\PSoC4/CyLib.c ****             if (newImoTrim2Value > currentImoTrim2Value)
 1242              		.loc 1 794 0
 1243 01c4 0A23     		mov	r3, #10
 1244 01c6 FA18     		add	r2, r7, r3
 1245 01c8 1523     		mov	r3, #21
 1246 01ca FB18     		add	r3, r7, r3
 1247 01cc 1278     		ldrb	r2, [r2]
 1248 01ce 1B78     		ldrb	r3, [r3]
ARM GAS  C:\Users\GREG~1.PHI\AppData\Local\Temp\cc70RmjF.s 			page 37


 1249 01d0 9A42     		cmp	r2, r3
 1250 01d2 09D9     		bls	.L76
 795:Generated_Source\PSoC4/CyLib.c ****             {
 796:Generated_Source\PSoC4/CyLib.c ****                 /* Set new IMO frequency */
 797:Generated_Source\PSoC4/CyLib.c ****                 CY_SYS_CLK_IMO_TRIM2_REG = cyImoFreqMhz2Reg[freq - CY_SYS_CLK_IMO_FREQ_TABLE_OFFSET
 1251              		.loc 1 797 0
 1252 01d4 1F4B     		ldr	r3, .L80+60
 1253 01d6 7A68     		ldr	r2, [r7, #4]
 1254 01d8 033A     		sub	r2, r2, #3
 1255 01da 1D49     		ldr	r1, .L80+56
 1256 01dc 8A5C     		ldrb	r2, [r1, r2]
 1257 01de 1A60     		str	r2, [r3]
 798:Generated_Source\PSoC4/CyLib.c ****                 CyDelayCycles(CY_SYS_CLK_IMO_FREQ_TIMEOUT_CYCLES);
 1258              		.loc 1 798 0
 1259 01e0 0520     		mov	r0, #5
 1260 01e2 FFF7FEFF 		bl	CyDelayCycles
 794:Generated_Source\PSoC4/CyLib.c ****             {
 1261              		.loc 1 794 0
 1262 01e6 03E0     		b	.L77
 1263              	.L76:
 1264 01e8 02E0     		b	.L77
 1265              	.L64:
 799:Generated_Source\PSoC4/CyLib.c ****             }
 800:Generated_Source\PSoC4/CyLib.c ****         }
 801:Generated_Source\PSoC4/CyLib.c ****         else
 802:Generated_Source\PSoC4/CyLib.c ****         {
 803:Generated_Source\PSoC4/CyLib.c ****             /* Halt CPU in debug mode if new frequency is invalid */
 804:Generated_Source\PSoC4/CyLib.c ****             CYASSERT(0u != 0u);
 1266              		.loc 1 804 0 discriminator 1
 1267 01ea 0020     		mov	r0, #0
 1268 01ec FFF7FEFF 		bl	CyHalt
 1269              	.L77:
 805:Generated_Source\PSoC4/CyLib.c ****         }
 806:Generated_Source\PSoC4/CyLib.c **** 
 807:Generated_Source\PSoC4/CyLib.c ****         #endif /* (CY_IP_FMLT) */
 808:Generated_Source\PSoC4/CyLib.c **** 
 809:Generated_Source\PSoC4/CyLib.c ****         #if (CY_IP_IMO_TRIMMABLE_BY_WCO)
 810:Generated_Source\PSoC4/CyLib.c ****             if (1u == wcoLock)
 1270              		.loc 1 810 0
 1271 01f0 3B69     		ldr	r3, [r7, #16]
 1272 01f2 012B     		cmp	r3, #1
 1273 01f4 01D1     		bne	.L78
 811:Generated_Source\PSoC4/CyLib.c ****             {
 812:Generated_Source\PSoC4/CyLib.c ****                 CySysClkImoEnableWcoLock();
 1274              		.loc 1 812 0
 1275 01f6 FFF7FEFF 		bl	CySysClkImoEnableWcoLock
 1276              	.L78:
 813:Generated_Source\PSoC4/CyLib.c ****             }
 814:Generated_Source\PSoC4/CyLib.c ****         #endif  /* (CY_IP_IMO_TRIMMABLE_BY_WCO) */
 815:Generated_Source\PSoC4/CyLib.c **** 
 816:Generated_Source\PSoC4/CyLib.c ****         #if (CY_IP_IMO_TRIMMABLE_BY_USB)
 817:Generated_Source\PSoC4/CyLib.c ****             if (1u == usbLock)
 1277              		.loc 1 817 0
 1278 01fa FB68     		ldr	r3, [r7, #12]
 1279 01fc 012B     		cmp	r3, #1
 1280 01fe 01D1     		bne	.L79
 818:Generated_Source\PSoC4/CyLib.c ****             {
ARM GAS  C:\Users\GREG~1.PHI\AppData\Local\Temp\cc70RmjF.s 			page 38


 819:Generated_Source\PSoC4/CyLib.c ****                 CySysClkImoEnableUsbLock();
 1281              		.loc 1 819 0
 1282 0200 FFF7FEFF 		bl	CySysClkImoEnableUsbLock
 1283              	.L79:
 820:Generated_Source\PSoC4/CyLib.c ****             }
 821:Generated_Source\PSoC4/CyLib.c ****         #endif  /* (CY_IP_IMO_TRIMMABLE_BY_USB) */
 822:Generated_Source\PSoC4/CyLib.c **** 
 823:Generated_Source\PSoC4/CyLib.c ****         CyExitCriticalSection(interruptState);
 1284              		.loc 1 823 0
 1285 0204 0B23     		mov	r3, #11
 1286 0206 FB18     		add	r3, r7, r3
 1287 0208 1B78     		ldrb	r3, [r3]
 1288 020a 181C     		mov	r0, r3
 1289 020c FFF7FEFF 		bl	CyExitCriticalSection
 824:Generated_Source\PSoC4/CyLib.c ****     }
 1290              		.loc 1 824 0
 1291 0210 BD46     		mov	sp, r7
 1292 0212 07B0     		add	sp, sp, #28
 1293              		@ sp needed
 1294 0214 90BD     		pop	{r4, r7, pc}
 1295              	.L81:
 1296 0216 C046     		.align	2
 1297              	.L80:
 1298 0218 40F3FF0F 		.word	268432192
 1299 021c 41F3FF0F 		.word	268432193
 1300 0220 42F3FF0F 		.word	268432194
 1301 0224 43F3FF0F 		.word	268432195
 1302 0228 44F3FF0F 		.word	268432196
 1303 022c 45F3FF0F 		.word	268432197
 1304 0230 46F3FF0F 		.word	268432198
 1305 0234 47F3FF0F 		.word	268432199
 1306 0238 48F3FF0F 		.word	268432200
 1307 023c 49F3FF0F 		.word	268432201
 1308 0240 4AF3FF0F 		.word	268432202
 1309 0244 4BF3FF0F 		.word	268432203
 1310 0248 4CF3FF0F 		.word	268432204
 1311 024c 4DF3FF0F 		.word	268432205
 1312 0250 00000000 		.word	cyImoFreqMhz2Reg
 1313 0254 2CFF0B40 		.word	1074528044
 1314 0258 3FF3FF0F 		.word	268432191
 1315 025c 3EF3FF0F 		.word	268432190
 1316 0260 28FF0B40 		.word	1074528040
 1317 0264 1CFF0B40 		.word	1074528028
 1318 0268 20FF0B40 		.word	1074528032
 1319              		.cfi_endproc
 1320              	.LFE13:
 1321              		.size	CySysClkWriteImoFreq, .-CySysClkWriteImoFreq
 1322              		.section	.text.CySysClkEcoStart,"ax",%progbits
 1323              		.align	2
 1324              		.global	CySysClkEcoStart
 1325              		.code	16
 1326              		.thumb_func
 1327              		.type	CySysClkEcoStart, %function
 1328              	CySysClkEcoStart:
 1329              	.LFB14:
 825:Generated_Source\PSoC4/CyLib.c **** 
 826:Generated_Source\PSoC4/CyLib.c **** #else
ARM GAS  C:\Users\GREG~1.PHI\AppData\Local\Temp\cc70RmjF.s 			page 39


 827:Generated_Source\PSoC4/CyLib.c **** 
 828:Generated_Source\PSoC4/CyLib.c ****     void CySysClkWriteImoFreq(uint32 freq)
 829:Generated_Source\PSoC4/CyLib.c ****     {
 830:Generated_Source\PSoC4/CyLib.c ****         uint8  interruptState;
 831:Generated_Source\PSoC4/CyLib.c ****         uint8  imoTrim1Value;
 832:Generated_Source\PSoC4/CyLib.c **** 
 833:Generated_Source\PSoC4/CyLib.c ****         #if (CY_IP_IMO_TRIMMABLE_BY_WCO)
 834:Generated_Source\PSoC4/CyLib.c ****             uint32 wcoLock = 0u;
 835:Generated_Source\PSoC4/CyLib.c ****         #endif  /* (CY_IP_IMO_TRIMMABLE_BY_WCO) */        
 836:Generated_Source\PSoC4/CyLib.c ****         
 837:Generated_Source\PSoC4/CyLib.c ****         #if (CY_IP_IMO_TRIMMABLE_BY_USB)
 838:Generated_Source\PSoC4/CyLib.c ****             uint32 usbLock = 0u;
 839:Generated_Source\PSoC4/CyLib.c ****         #endif  /* (CY_IP_IMO_TRIMMABLE_BY_USB) */
 840:Generated_Source\PSoC4/CyLib.c **** 
 841:Generated_Source\PSoC4/CyLib.c ****         #if (CY_PSOC4_4000)
 842:Generated_Source\PSoC4/CyLib.c ****             if ((freq == 24u) || (freq == 32u) || (freq == 48u))
 843:Generated_Source\PSoC4/CyLib.c ****         #elif (CY_CCG3)
 844:Generated_Source\PSoC4/CyLib.c ****             if ((freq == 24u) || (freq == 36u) || (freq == 48u))
 845:Generated_Source\PSoC4/CyLib.c ****         #else
 846:Generated_Source\PSoC4/CyLib.c ****             if ((freq == 24u) || (freq == 28u) || (freq == 32u) ||
 847:Generated_Source\PSoC4/CyLib.c ****                 (freq == 36u) || (freq == 40u) || (freq == 44u) ||
 848:Generated_Source\PSoC4/CyLib.c ****                 (freq == 48u))
 849:Generated_Source\PSoC4/CyLib.c ****         #endif /* (CY_PSOC4_4000) */
 850:Generated_Source\PSoC4/CyLib.c ****         {
 851:Generated_Source\PSoC4/CyLib.c ****             interruptState = CyEnterCriticalSection();
 852:Generated_Source\PSoC4/CyLib.c **** 
 853:Generated_Source\PSoC4/CyLib.c ****             #if (CY_IP_IMO_TRIMMABLE_BY_WCO)
 854:Generated_Source\PSoC4/CyLib.c ****                 if(0u != CySysClkImoGetWcoLock())
 855:Generated_Source\PSoC4/CyLib.c ****                 {
 856:Generated_Source\PSoC4/CyLib.c ****                     wcoLock = 1u;
 857:Generated_Source\PSoC4/CyLib.c ****                     CySysClkImoDisableWcoLock();
 858:Generated_Source\PSoC4/CyLib.c ****                 }
 859:Generated_Source\PSoC4/CyLib.c ****             #endif  /* (CY_IP_IMO_TRIMMABLE_BY_WCO) */
 860:Generated_Source\PSoC4/CyLib.c **** 
 861:Generated_Source\PSoC4/CyLib.c ****             #if (CY_IP_IMO_TRIMMABLE_BY_USB)
 862:Generated_Source\PSoC4/CyLib.c **** 
 863:Generated_Source\PSoC4/CyLib.c ****                 #if (CYDEV_IMO_TRIMMED_BY_USB == 0u)
 864:Generated_Source\PSoC4/CyLib.c ****                     if(0u != CySysClkImoGetUsbLock())
 865:Generated_Source\PSoC4/CyLib.c ****                     {
 866:Generated_Source\PSoC4/CyLib.c ****                 #endif  /* (CYDEV_IMO_TRIMMED_BY_USB == 0u) */
 867:Generated_Source\PSoC4/CyLib.c **** 
 868:Generated_Source\PSoC4/CyLib.c ****                     if (48u == freq)
 869:Generated_Source\PSoC4/CyLib.c ****                     {
 870:Generated_Source\PSoC4/CyLib.c ****                         usbLock = 1u;
 871:Generated_Source\PSoC4/CyLib.c ****                         CySysClkImoDisableUsbLock();
 872:Generated_Source\PSoC4/CyLib.c ****                     }
 873:Generated_Source\PSoC4/CyLib.c **** 
 874:Generated_Source\PSoC4/CyLib.c ****                 #if (CYDEV_IMO_TRIMMED_BY_USB == 0u)
 875:Generated_Source\PSoC4/CyLib.c ****                     }
 876:Generated_Source\PSoC4/CyLib.c ****                 #endif  /* (CYDEV_IMO_TRIMMED_BY_USB == 0u) */
 877:Generated_Source\PSoC4/CyLib.c **** 
 878:Generated_Source\PSoC4/CyLib.c ****             #endif  /* (CYDEV_IMO_TRIMMED_BY_USB == 0u) */
 879:Generated_Source\PSoC4/CyLib.c **** 
 880:Generated_Source\PSoC4/CyLib.c **** 
 881:Generated_Source\PSoC4/CyLib.c ****             /* Set IMO to 24 MHz - CLK_IMO_SELECT.FREQ = 0 */
 882:Generated_Source\PSoC4/CyLib.c ****             CY_SYS_CLK_IMO_SELECT_REG &= ((uint32) ~CY_SYS_CLK_IMO_SELECT_FREQ_MASK);
 883:Generated_Source\PSoC4/CyLib.c **** 
ARM GAS  C:\Users\GREG~1.PHI\AppData\Local\Temp\cc70RmjF.s 			page 40


 884:Generated_Source\PSoC4/CyLib.c **** 
 885:Generated_Source\PSoC4/CyLib.c ****             /* Apply coarse trim */
 886:Generated_Source\PSoC4/CyLib.c ****             #if (CY_IP_IMO_TRIMMABLE_BY_USB)
 887:Generated_Source\PSoC4/CyLib.c ****                 if ((1u == usbLock) && (48u == freq))
 888:Generated_Source\PSoC4/CyLib.c ****                 {
 889:Generated_Source\PSoC4/CyLib.c ****                     imoTrim1Value = CY_SFLASH_IMO_TRIM_USBMODE_48_REG;
 890:Generated_Source\PSoC4/CyLib.c ****                 }
 891:Generated_Source\PSoC4/CyLib.c ****                 else if ((1u == usbLock) && (24u == freq))
 892:Generated_Source\PSoC4/CyLib.c ****                 {
 893:Generated_Source\PSoC4/CyLib.c ****                     imoTrim1Value = CY_SFLASH_IMO_TRIM_USBMODE_24_REG;
 894:Generated_Source\PSoC4/CyLib.c ****                 }
 895:Generated_Source\PSoC4/CyLib.c ****                 else
 896:Generated_Source\PSoC4/CyLib.c ****                 {
 897:Generated_Source\PSoC4/CyLib.c ****                     imoTrim1Value = (uint8) CY_SFLASH_IMO_TRIM_REG(freq - CY_SYS_CLK_IMO_MIN_FREQ_M
 898:Generated_Source\PSoC4/CyLib.c ****                 }
 899:Generated_Source\PSoC4/CyLib.c ****             #else
 900:Generated_Source\PSoC4/CyLib.c ****                 imoTrim1Value = (uint8) CY_SFLASH_IMO_TRIM_REG(freq - CY_SYS_CLK_IMO_MIN_FREQ_MHZ);
 901:Generated_Source\PSoC4/CyLib.c ****             #endif  /* (CY_IP_IMO_TRIMMABLE_BY_USB) */
 902:Generated_Source\PSoC4/CyLib.c ****             CY_SYS_CLK_IMO_TRIM1_REG = (uint32) imoTrim1Value;
 903:Generated_Source\PSoC4/CyLib.c **** 
 904:Generated_Source\PSoC4/CyLib.c ****             /* Zero out fine trim */
 905:Generated_Source\PSoC4/CyLib.c ****             CY_SYS_CLK_IMO_TRIM2_REG = CY_SYS_CLK_IMO_TRIM2_REG & ((uint32) ~CY_SYS_CLK_IMO_TRIM2_F
 906:Generated_Source\PSoC4/CyLib.c **** 
 907:Generated_Source\PSoC4/CyLib.c ****             /* Apply TC trim */
 908:Generated_Source\PSoC4/CyLib.c ****             CY_SYS_CLK_IMO_TRIM3_REG = (CY_SYS_CLK_IMO_TRIM3_REG & ((uint32) ~CY_SYS_CLK_IMO_TRIM3_
 909:Generated_Source\PSoC4/CyLib.c ****                 (CY_SFLASH_IMO_TCTRIM_REG(freq - CY_SYS_CLK_IMO_MIN_FREQ_MHZ) & CY_SYS_CLK_IMO_TRIM
 910:Generated_Source\PSoC4/CyLib.c **** 
 911:Generated_Source\PSoC4/CyLib.c ****             CyDelayCycles(CY_SYS_CLK_IMO_TRIM_DELAY_CYCLES);
 912:Generated_Source\PSoC4/CyLib.c **** 
 913:Generated_Source\PSoC4/CyLib.c ****             if (freq > CY_SYS_CLK_IMO_MIN_FREQ_MHZ)
 914:Generated_Source\PSoC4/CyLib.c ****             {
 915:Generated_Source\PSoC4/CyLib.c ****                 /* Select nearby intermediate frequency */
 916:Generated_Source\PSoC4/CyLib.c ****                 CY_SYS_CLK_IMO_SELECT_REG = (CY_SYS_CLK_IMO_SELECT_REG & ((uint32) ~CY_SYS_CLK_IMO_
 917:Generated_Source\PSoC4/CyLib.c ****                     (((freq - 4u - CY_SYS_CLK_IMO_MIN_FREQ_MHZ) >> 2u) & CY_SYS_CLK_IMO_SELECT_FREQ
 918:Generated_Source\PSoC4/CyLib.c **** 
 919:Generated_Source\PSoC4/CyLib.c ****                 CyDelayCycles(CY_SYS_CLK_IMO_TRIM_DELAY_CYCLES);
 920:Generated_Source\PSoC4/CyLib.c **** 
 921:Generated_Source\PSoC4/CyLib.c ****                 /* Make small step to final frequency */
 922:Generated_Source\PSoC4/CyLib.c ****                 /* Select nearby intermediate frequency */
 923:Generated_Source\PSoC4/CyLib.c ****                 CY_SYS_CLK_IMO_SELECT_REG = (CY_SYS_CLK_IMO_SELECT_REG & ((uint32) ~CY_SYS_CLK_IMO_
 924:Generated_Source\PSoC4/CyLib.c ****                     (((freq - CY_SYS_CLK_IMO_MIN_FREQ_MHZ) >> 2u) & CY_SYS_CLK_IMO_SELECT_FREQ_MASK
 925:Generated_Source\PSoC4/CyLib.c ****             }
 926:Generated_Source\PSoC4/CyLib.c **** 
 927:Generated_Source\PSoC4/CyLib.c ****             #if (CY_IP_IMO_TRIMMABLE_BY_WCO)
 928:Generated_Source\PSoC4/CyLib.c ****                 if (1u == wcoLock)
 929:Generated_Source\PSoC4/CyLib.c ****                 {
 930:Generated_Source\PSoC4/CyLib.c ****                     CySysClkImoEnableWcoLock();
 931:Generated_Source\PSoC4/CyLib.c ****                 }
 932:Generated_Source\PSoC4/CyLib.c ****             #endif  /* (CY_IP_IMO_TRIMMABLE_BY_WCO) */
 933:Generated_Source\PSoC4/CyLib.c ****         
 934:Generated_Source\PSoC4/CyLib.c ****         
 935:Generated_Source\PSoC4/CyLib.c ****             #if (CY_IP_IMO_TRIMMABLE_BY_USB)
 936:Generated_Source\PSoC4/CyLib.c ****                 if (1u == usbLock)
 937:Generated_Source\PSoC4/CyLib.c ****                 {
 938:Generated_Source\PSoC4/CyLib.c ****                     CySysClkImoEnableUsbLock();
 939:Generated_Source\PSoC4/CyLib.c ****                 }
 940:Generated_Source\PSoC4/CyLib.c ****             #endif  /* (CY_IP_IMO_TRIMMABLE_BY_USB) */
ARM GAS  C:\Users\GREG~1.PHI\AppData\Local\Temp\cc70RmjF.s 			page 41


 941:Generated_Source\PSoC4/CyLib.c **** 
 942:Generated_Source\PSoC4/CyLib.c ****             CyExitCriticalSection(interruptState);
 943:Generated_Source\PSoC4/CyLib.c ****         }
 944:Generated_Source\PSoC4/CyLib.c ****         else
 945:Generated_Source\PSoC4/CyLib.c ****         {
 946:Generated_Source\PSoC4/CyLib.c ****             /* Halt CPU in debug mode if new frequency is invalid */
 947:Generated_Source\PSoC4/CyLib.c ****             CYASSERT(0u != 0u);
 948:Generated_Source\PSoC4/CyLib.c ****         }
 949:Generated_Source\PSoC4/CyLib.c ****     }
 950:Generated_Source\PSoC4/CyLib.c **** 
 951:Generated_Source\PSoC4/CyLib.c **** #endif /* (CY_IP_SRSSV2) */
 952:Generated_Source\PSoC4/CyLib.c **** 
 953:Generated_Source\PSoC4/CyLib.c **** 
 954:Generated_Source\PSoC4/CyLib.c **** #if(CY_IP_SRSSLT)
 955:Generated_Source\PSoC4/CyLib.c ****     /*******************************************************************************
 956:Generated_Source\PSoC4/CyLib.c ****     * Function Name: CySysClkWriteHfclkDiv
 957:Generated_Source\PSoC4/CyLib.c ****     ****************************************************************************//**
 958:Generated_Source\PSoC4/CyLib.c ****     *
 959:Generated_Source\PSoC4/CyLib.c ****     * Selects the pre-scaler divider value for HFCLK from IMO.
 960:Generated_Source\PSoC4/CyLib.c ****     *
 961:Generated_Source\PSoC4/CyLib.c ****     * The HFCLK predivider allows the device to divide the HFCLK selection mux
 962:Generated_Source\PSoC4/CyLib.c ****     * input before use as HFCLK. The predivider is capable of dividing the HFCLK by
 963:Generated_Source\PSoC4/CyLib.c ****     * powers of 2 between 1 and 8.
 964:Generated_Source\PSoC4/CyLib.c ****     *
 965:Generated_Source\PSoC4/CyLib.c ****     * PSoC 4000: The SYSCLK has the speed of 16 MHz, so HFCLK and SYSCLK dividers
 966:Generated_Source\PSoC4/CyLib.c ****     * should be selected in a way, not to exceed 16 MHz for SYSCLK.
 967:Generated_Source\PSoC4/CyLib.c ****     *
 968:Generated_Source\PSoC4/CyLib.c ****     * If the SYSCLK clock frequency increases during the device operation, call
 969:Generated_Source\PSoC4/CyLib.c ****     * \ref CySysFlashSetWaitCycles() with the appropriate parameter to adjust the
 970:Generated_Source\PSoC4/CyLib.c ****     * number of clock cycles the cache will wait before sampling data comes back
 971:Generated_Source\PSoC4/CyLib.c ****     * from Flash. If the SYSCLK clock frequency decreases, you can call
 972:Generated_Source\PSoC4/CyLib.c ****     * \ref CySysFlashSetWaitCycles() to improve the CPU performance. See
 973:Generated_Source\PSoC4/CyLib.c ****     * \ref CySysFlashSetWaitCycles() description for more information.
 974:Generated_Source\PSoC4/CyLib.c ****     *
 975:Generated_Source\PSoC4/CyLib.c ****     * \param \ref CY_SYS_CLK_HFCLK_DIV_NODIV    Transparent mode (w/o dividing)
 976:Generated_Source\PSoC4/CyLib.c ****     * \param \ref CY_SYS_CLK_HFCLK_DIV_2        Divide selected clock source by 2
 977:Generated_Source\PSoC4/CyLib.c ****     * \param \ref CY_SYS_CLK_HFCLK_DIV_4        Divide selected clock source by 4
 978:Generated_Source\PSoC4/CyLib.c ****     * \param \ref CY_SYS_CLK_HFCLK_DIV_8        Divide selected clock source by 8
 979:Generated_Source\PSoC4/CyLib.c ****     *
 980:Generated_Source\PSoC4/CyLib.c ****     *******************************************************************************/
 981:Generated_Source\PSoC4/CyLib.c ****     void CySysClkWriteHfclkDiv(uint32 divider)
 982:Generated_Source\PSoC4/CyLib.c ****     {
 983:Generated_Source\PSoC4/CyLib.c ****         uint8  interruptState;
 984:Generated_Source\PSoC4/CyLib.c **** 
 985:Generated_Source\PSoC4/CyLib.c ****         interruptState = CyEnterCriticalSection();
 986:Generated_Source\PSoC4/CyLib.c **** 
 987:Generated_Source\PSoC4/CyLib.c ****         CY_SYS_CLK_SELECT_REG = ((CY_SYS_CLK_SELECT_REG & ((uint32) (~(CY_SYS_CLK_SELECT_HFCLK_DIV_
 988:Generated_Source\PSoC4/CyLib.c ****                                         CY_SYS_CLK_SELECT_HFCLK_DIV_SHIFT)))) |
 989:Generated_Source\PSoC4/CyLib.c ****                     ((uint32)((divider & CY_SYS_CLK_SELECT_HFCLK_DIV_MASK) << CY_SYS_CLK_SELECT_HFC
 990:Generated_Source\PSoC4/CyLib.c **** 
 991:Generated_Source\PSoC4/CyLib.c ****         CyExitCriticalSection(interruptState);
 992:Generated_Source\PSoC4/CyLib.c ****     }
 993:Generated_Source\PSoC4/CyLib.c **** #endif /* (CY_IP_SRSSLT) */
 994:Generated_Source\PSoC4/CyLib.c **** 
 995:Generated_Source\PSoC4/CyLib.c **** 
 996:Generated_Source\PSoC4/CyLib.c **** #if (CY_IP_ECO)
 997:Generated_Source\PSoC4/CyLib.c **** 
ARM GAS  C:\Users\GREG~1.PHI\AppData\Local\Temp\cc70RmjF.s 			page 42


 998:Generated_Source\PSoC4/CyLib.c ****     /*******************************************************************************
 999:Generated_Source\PSoC4/CyLib.c ****     * Function Name: CySysClkEcoStart
1000:Generated_Source\PSoC4/CyLib.c ****     ****************************************************************************//**
1001:Generated_Source\PSoC4/CyLib.c ****     *
1002:Generated_Source\PSoC4/CyLib.c ****     * Starts the External Crystal Oscillator (ECO). Refer to the device datasheet
1003:Generated_Source\PSoC4/CyLib.c ****     * for the ECO startup time.
1004:Generated_Source\PSoC4/CyLib.c ****     *
1005:Generated_Source\PSoC4/CyLib.c ****     * The timeout interval is measured based on the system frequency defined by
1006:Generated_Source\PSoC4/CyLib.c ****     * PSoC Creator at build time. If System clock frequency is changed in
1007:Generated_Source\PSoC4/CyLib.c ****     * runtime, the \ref CyDelayFreq() with the appropriate parameter should be
1008:Generated_Source\PSoC4/CyLib.c ****     * called.
1009:Generated_Source\PSoC4/CyLib.c ****     *
1010:Generated_Source\PSoC4/CyLib.c ****     * PSoC 4100 BLE / PSoC 4200 BLE: The WCO must be enabled prior to enabling ECO.
1011:Generated_Source\PSoC4/CyLib.c ****     *
1012:Generated_Source\PSoC4/CyLib.c ****     * \param timeoutUs Timeout in microseconds.
1013:Generated_Source\PSoC4/CyLib.c ****     *
1014:Generated_Source\PSoC4/CyLib.c ****     * If zero is specified, the function does not wait for timeout and returns
1015:Generated_Source\PSoC4/CyLib.c ****     * CYRET_SUCCESS. If non-zero is specified, the function waits for the timeout.
1016:Generated_Source\PSoC4/CyLib.c ****     *
1017:Generated_Source\PSoC4/CyLib.c ****     * \return \ref CYRET_SUCCESS Completed successfully. The ECO is oscillating and
1018:Generated_Source\PSoC4/CyLib.c ****     * amplitude reached 60% and it does not mean 24 MHz crystal is within 50 ppm.
1019:Generated_Source\PSoC4/CyLib.c ****     *
1020:Generated_Source\PSoC4/CyLib.c ****     * \return \ref CYRET_TIMEOUT Timeout occurred. If the crystal is not oscillating
1021:Generated_Source\PSoC4/CyLib.c ****     * or amplitude didn't reach 60% after specified amount of time, CYRET_TIMEOUT
1022:Generated_Source\PSoC4/CyLib.c ****     * is returned.
1023:Generated_Source\PSoC4/CyLib.c ****     *
1024:Generated_Source\PSoC4/CyLib.c ****     * \return \ref CYRET_BAD_PARAM One or more invalid parameters.
1025:Generated_Source\PSoC4/CyLib.c ****     *
1026:Generated_Source\PSoC4/CyLib.c ****     *******************************************************************************/
1027:Generated_Source\PSoC4/CyLib.c ****     cystatus CySysClkEcoStart(uint32 timeoutUs)
1028:Generated_Source\PSoC4/CyLib.c ****     {
 1330              		.loc 1 1028 0
 1331              		.cfi_startproc
 1332 0000 80B5     		push	{r7, lr}
 1333              		.cfi_def_cfa_offset 8
 1334              		.cfi_offset 7, -8
 1335              		.cfi_offset 14, -4
 1336 0002 84B0     		sub	sp, sp, #16
 1337              		.cfi_def_cfa_offset 24
 1338 0004 00AF     		add	r7, sp, #0
 1339              		.cfi_def_cfa_register 7
 1340 0006 7860     		str	r0, [r7, #4]
1029:Generated_Source\PSoC4/CyLib.c ****         cystatus returnStatus = CYRET_SUCCESS;
 1341              		.loc 1 1029 0
 1342 0008 0023     		mov	r3, #0
 1343 000a FB60     		str	r3, [r7, #12]
1030:Generated_Source\PSoC4/CyLib.c **** 
1031:Generated_Source\PSoC4/CyLib.c ****         #if (CY_IP_ECO_BLESS)
1032:Generated_Source\PSoC4/CyLib.c ****             /* Enable the RF oscillator band gap */
1033:Generated_Source\PSoC4/CyLib.c ****             CY_SYS_XTAL_BLESS_RF_CONFIG_REG |= CY_SYS_XTAL_BLESS_RF_CONFIG_RF_ENABLE;
1034:Generated_Source\PSoC4/CyLib.c **** 
1035:Generated_Source\PSoC4/CyLib.c ****             /* Update trimming register */
1036:Generated_Source\PSoC4/CyLib.c ****             CY_SYS_XTAL_BLERD_BB_XO_REG = CY_SYS_XTAL_BLERD_BB_XO_TRIM;
1037:Generated_Source\PSoC4/CyLib.c **** 
1038:Generated_Source\PSoC4/CyLib.c ****             /* Enable the Crystal */
1039:Generated_Source\PSoC4/CyLib.c ****             CY_SYS_XTAL_BLERD_DBUS_REG |= CY_SYS_XTAL_BLERD_DBUS_XTAL_ENABLE;
1040:Generated_Source\PSoC4/CyLib.c ****         
ARM GAS  C:\Users\GREG~1.PHI\AppData\Local\Temp\cc70RmjF.s 			page 43


1041:Generated_Source\PSoC4/CyLib.c ****         #elif (CY_IP_ECO_BLESSV3)
1042:Generated_Source\PSoC4/CyLib.c ****             uint32 regConfig;
1043:Generated_Source\PSoC4/CyLib.c ****             uint32 intrRegMaskStore = 0u;
1044:Generated_Source\PSoC4/CyLib.c ****             
1045:Generated_Source\PSoC4/CyLib.c ****             if (0u != (CY_SYS_BLESS_MT_CFG_REG & (CY_SYS_BLESS_MT_CFG_ENABLE_BLERD <<  CYFLD_BLE_BL
1046:Generated_Source\PSoC4/CyLib.c ****             {
1047:Generated_Source\PSoC4/CyLib.c ****                 CY_SYS_BLESS_MT_CFG_REG |= (CY_SYS_BLESS_MT_CFG_DPSLP_ECO_ON  <<  CYFLD_BLE_BLESS_D
1048:Generated_Source\PSoC4/CyLib.c ****             }
1049:Generated_Source\PSoC4/CyLib.c ****             else
1050:Generated_Source\PSoC4/CyLib.c ****             {
1051:Generated_Source\PSoC4/CyLib.c ****                 /* Init BLE core */
1052:Generated_Source\PSoC4/CyLib.c ****                 CY_SYS_BLESS_MT_DELAY_CFG_REG = CY_SYS_BLESS_MT_DELAY_CFG_INIT;
1053:Generated_Source\PSoC4/CyLib.c ****                 CY_SYS_BLESS_MT_DELAY_CFG2_REG = CY_SYS_BLESS_MT_DELAY_CFG2_INIT;
1054:Generated_Source\PSoC4/CyLib.c ****                 CY_SYS_BLESS_MT_DELAY_CFG3_REG = CY_SYS_BLESS_MT_DELAY_CFG3_INIT;
1055:Generated_Source\PSoC4/CyLib.c ****             
1056:Generated_Source\PSoC4/CyLib.c ****                 /* RCB init */
1057:Generated_Source\PSoC4/CyLib.c ****                 regConfig = CY_SYS_RCB_CTRL_REG;
1058:Generated_Source\PSoC4/CyLib.c ****                 regConfig &= CY_SYS_RCB_CTRL_CLEAR;
1059:Generated_Source\PSoC4/CyLib.c ****                 regConfig |= CY_SYS_RCB_CTRL_INIT;
1060:Generated_Source\PSoC4/CyLib.c ****                 CY_SYS_RCB_CTRL_REG = regConfig;
1061:Generated_Source\PSoC4/CyLib.c ****                 
1062:Generated_Source\PSoC4/CyLib.c ****                 intrRegMaskStore = CY_SYS_BLESS_INTR_MASK_REG;
1063:Generated_Source\PSoC4/CyLib.c ****                 if(0u != (CY_SYS_BLESS_BLERD_ACTIVE_INTR_MASK & intrRegMaskStore))
1064:Generated_Source\PSoC4/CyLib.c ****                 {
1065:Generated_Source\PSoC4/CyLib.c ****                     CY_SYS_BLESS_INTR_MASK_REG &= ~CY_SYS_BLESS_BLERD_ACTIVE_INTR_MASK;
1066:Generated_Source\PSoC4/CyLib.c ****                 }
1067:Generated_Source\PSoC4/CyLib.c ****                 
1068:Generated_Source\PSoC4/CyLib.c ****                 /* Enable BLE core */
1069:Generated_Source\PSoC4/CyLib.c ****                 regConfig = CY_SYS_BLESS_MT_CFG_REG;
1070:Generated_Source\PSoC4/CyLib.c ****                 regConfig &= CY_SYS_BLESS_MT_CFG_CLEAR;
1071:Generated_Source\PSoC4/CyLib.c ****                 regConfig |= CY_SYS_BLESS_MT_CFG_INIT;
1072:Generated_Source\PSoC4/CyLib.c ****                 CY_SYS_BLESS_MT_CFG_REG = regConfig;
1073:Generated_Source\PSoC4/CyLib.c **** 
1074:Generated_Source\PSoC4/CyLib.c ****                 while(0u == ((CY_SYS_BLESS_BLERD_ACTIVE_INTR_STAT & CY_SYS_BLESS_INTR_STAT_REG)))
1075:Generated_Source\PSoC4/CyLib.c ****                 {
1076:Generated_Source\PSoC4/CyLib.c ****                     /* Wait until BLERD55 moves to active state */
1077:Generated_Source\PSoC4/CyLib.c ****                 }
1078:Generated_Source\PSoC4/CyLib.c **** 
1079:Generated_Source\PSoC4/CyLib.c ****                 if(0u != (CY_SYS_BLESS_BLERD_ACTIVE_INTR_MASK & intrRegMaskStore))
1080:Generated_Source\PSoC4/CyLib.c ****                 {
1081:Generated_Source\PSoC4/CyLib.c ****                     CY_SYS_BLESS_INTR_MASK_REG |= CY_SYS_BLESS_BLERD_ACTIVE_INTR_MASK;
1082:Generated_Source\PSoC4/CyLib.c ****                 }
1083:Generated_Source\PSoC4/CyLib.c ****                 
1084:Generated_Source\PSoC4/CyLib.c ****                 /* Send write commands to RBUS */
1085:Generated_Source\PSoC4/CyLib.c ****                 CY_SYS_RCB_TX_FIFO_WR_REG = CY_SYS_RCB_RBUS_FREQ_NRST_SET;
1086:Generated_Source\PSoC4/CyLib.c ****                 CY_SYS_RCB_TX_FIFO_WR_REG = CY_SYS_RCB_RBUS_DIG_CLK_SET;
1087:Generated_Source\PSoC4/CyLib.c ****                 
1088:Generated_Source\PSoC4/CyLib.c ****                 #if (CY_SYS_BLE_CLK_ECO_FREQ_32MHZ == CYDEV_ECO_CLK_MHZ)
1089:Generated_Source\PSoC4/CyLib.c ****                     CY_SYS_RCB_TX_FIFO_WR_REG = CY_SYS_RCB_RBUS_FREQ_XTAL_DIV_SET;
1090:Generated_Source\PSoC4/CyLib.c ****                     CY_SYS_RCB_TX_FIFO_WR_REG = (CY_SYS_RCB_RBUS_RF_DCXO_CFG_SET | CY_SYS_RCB_RBUS_
1091:Generated_Source\PSoC4/CyLib.c ****                 #else
1092:Generated_Source\PSoC4/CyLib.c ****                     CY_SYS_RCB_TX_FIFO_WR_REG = CY_SYS_RCB_RBUS_FREQ_XTAL_NODIV_SET;
1093:Generated_Source\PSoC4/CyLib.c ****                 #endif
1094:Generated_Source\PSoC4/CyLib.c ****                 
1095:Generated_Source\PSoC4/CyLib.c ****                 intrRegMaskStore = CY_SYS_BLESS_INTR_MASK_REG;
1096:Generated_Source\PSoC4/CyLib.c ****                 if(0u != (CY_SYS_RCB_INTR_RCB_DONE & intrRegMaskStore))
1097:Generated_Source\PSoC4/CyLib.c ****                 {
ARM GAS  C:\Users\GREG~1.PHI\AppData\Local\Temp\cc70RmjF.s 			page 44


1098:Generated_Source\PSoC4/CyLib.c ****                     CY_SYS_BLESS_INTR_MASK_REG &= ~(CY_SYS_RCB_INTR_RCB_DONE | CY_SYS_RCB_INTR_RCB_
1099:Generated_Source\PSoC4/CyLib.c ****                 }
1100:Generated_Source\PSoC4/CyLib.c ****                 
1101:Generated_Source\PSoC4/CyLib.c ****                 /* Send read commands to RBUS */
1102:Generated_Source\PSoC4/CyLib.c ****                 CY_SYS_RCB_TX_FIFO_WR_REG = (CY_SYS_RCB_RBUS_RD_CMD | 
1103:Generated_Source\PSoC4/CyLib.c ****                                             (CY_SYS_RCB_RBUS_RF_DCXO_CFG_SET & ~CY_SYS_RCB_RBUS_VAL
1104:Generated_Source\PSoC4/CyLib.c ****                                             
1105:Generated_Source\PSoC4/CyLib.c ****                 while (0u == (CY_SYS_RCB_INTR_RCB_RX_FIFO_NOT_EMPTY & CY_SYS_RCB_INTR_REG))
1106:Generated_Source\PSoC4/CyLib.c ****                 {
1107:Generated_Source\PSoC4/CyLib.c ****                     /* Wait until RX_FIFO_NOT_EMPTY state */
1108:Generated_Source\PSoC4/CyLib.c ****                 }
1109:Generated_Source\PSoC4/CyLib.c **** 
1110:Generated_Source\PSoC4/CyLib.c ****                 CY_SYS_RCB_INTR_REG |= CY_SYS_RCB_INTR_RCB_DONE;
1111:Generated_Source\PSoC4/CyLib.c ****                 
1112:Generated_Source\PSoC4/CyLib.c ****                 regConfig = CY_SYS_RCB_RX_FIFO_RD_REG & CY_SYS_RCB_RBUS_TRIM_MASK;
1113:Generated_Source\PSoC4/CyLib.c ****                 
1114:Generated_Source\PSoC4/CyLib.c ****                 /* Send write commands to RBUS */
1115:Generated_Source\PSoC4/CyLib.c ****                 CY_SYS_RCB_TX_FIFO_WR_REG = (CY_SYS_RCB_RBUS_RF_DCXO_CFG_SET | regConfig | CY_SYS_R
1116:Generated_Source\PSoC4/CyLib.c ****                 
1117:Generated_Source\PSoC4/CyLib.c ****                 while (0u == (CY_SYS_RCB_INTR_RCB_DONE & CY_SYS_RCB_INTR_REG))
1118:Generated_Source\PSoC4/CyLib.c ****                 {
1119:Generated_Source\PSoC4/CyLib.c ****                     /* Wait until RCB_DONE state */
1120:Generated_Source\PSoC4/CyLib.c ****                 }
1121:Generated_Source\PSoC4/CyLib.c ****                 
1122:Generated_Source\PSoC4/CyLib.c ****                 /* Clear Interrupt */
1123:Generated_Source\PSoC4/CyLib.c ****                 CY_SYS_RCB_INTR_REG = CY_SYS_RCB_INTR_CLEAR;
1124:Generated_Source\PSoC4/CyLib.c ****                 
1125:Generated_Source\PSoC4/CyLib.c ****                 if(0u != ((CY_SYS_RCB_INTR_RCB_DONE | CY_SYS_RCB_INTR_RCB_RX_FIFO_NOT_EMPTY) & intr
1126:Generated_Source\PSoC4/CyLib.c ****                 {
1127:Generated_Source\PSoC4/CyLib.c ****                     CY_SYS_BLESS_INTR_MASK_REG |= intrRegMaskStore;
1128:Generated_Source\PSoC4/CyLib.c ****                 }
1129:Generated_Source\PSoC4/CyLib.c ****                 
1130:Generated_Source\PSoC4/CyLib.c ****             }
1131:Generated_Source\PSoC4/CyLib.c ****         #else /* CY_IP_ECO_SRSSV2 */
1132:Generated_Source\PSoC4/CyLib.c ****             CY_SYS_CLK_ECO_CONFIG_REG |= CY_SYS_CLK_ECO_CONFIG_ENABLE;
 1344              		.loc 1 1132 0
 1345 000c 154B     		ldr	r3, .L88
 1346 000e 154A     		ldr	r2, .L88
 1347 0010 1268     		ldr	r2, [r2]
 1348 0012 8021     		mov	r1, #128
 1349 0014 0906     		lsl	r1, r1, #24
 1350 0016 0A43     		orr	r2, r1
 1351 0018 1A60     		str	r2, [r3]
1133:Generated_Source\PSoC4/CyLib.c ****             CyDelayUs(CY_SYS_CLK_ECO_CONFIG_CLK_EN_TIMEOUT_US);
 1352              		.loc 1 1133 0
 1353 001a 0A20     		mov	r0, #10
 1354 001c FFF7FEFF 		bl	CyDelayUs
1134:Generated_Source\PSoC4/CyLib.c ****             CY_SYS_CLK_ECO_CONFIG_REG |= CY_SYS_CLK_ECO_CONFIG_CLK_EN;
 1355              		.loc 1 1134 0
 1356 0020 104B     		ldr	r3, .L88
 1357 0022 104A     		ldr	r2, .L88
 1358 0024 1268     		ldr	r2, [r2]
 1359 0026 0121     		mov	r1, #1
 1360 0028 0A43     		orr	r2, r1
 1361 002a 1A60     		str	r2, [r3]
1135:Generated_Source\PSoC4/CyLib.c ****         #endif /* (CY_IP_ECO_BLESS) */
1136:Generated_Source\PSoC4/CyLib.c **** 
ARM GAS  C:\Users\GREG~1.PHI\AppData\Local\Temp\cc70RmjF.s 			page 45


1137:Generated_Source\PSoC4/CyLib.c ****         if(timeoutUs > 0u)
 1362              		.loc 1 1137 0
 1363 002c 7B68     		ldr	r3, [r7, #4]
 1364 002e 002B     		cmp	r3, #0
 1365 0030 12D0     		beq	.L83
1138:Generated_Source\PSoC4/CyLib.c ****         {
1139:Generated_Source\PSoC4/CyLib.c ****             returnStatus = CYRET_TIMEOUT;
 1366              		.loc 1 1139 0
 1367 0032 1023     		mov	r3, #16
 1368 0034 FB60     		str	r3, [r7, #12]
1140:Generated_Source\PSoC4/CyLib.c **** 
1141:Generated_Source\PSoC4/CyLib.c ****             for( ; timeoutUs > 0u; timeoutUs--)
 1369              		.loc 1 1141 0
 1370 0036 0CE0     		b	.L84
 1371              	.L86:
1142:Generated_Source\PSoC4/CyLib.c ****             {
1143:Generated_Source\PSoC4/CyLib.c ****                 CyDelayUs(1u);
 1372              		.loc 1 1143 0
 1373 0038 0120     		mov	r0, #1
 1374 003a FFF7FEFF 		bl	CyDelayUs
1144:Generated_Source\PSoC4/CyLib.c **** 
1145:Generated_Source\PSoC4/CyLib.c ****                 if(0u != CySysClkEcoReadStatus())
 1375              		.loc 1 1145 0
 1376 003e FFF7FEFF 		bl	CySysClkEcoReadStatus
 1377 0042 031E     		sub	r3, r0, #0
 1378 0044 02D0     		beq	.L85
1146:Generated_Source\PSoC4/CyLib.c ****                 {
1147:Generated_Source\PSoC4/CyLib.c ****                     returnStatus = CYRET_SUCCESS;
 1379              		.loc 1 1147 0
 1380 0046 0023     		mov	r3, #0
 1381 0048 FB60     		str	r3, [r7, #12]
1148:Generated_Source\PSoC4/CyLib.c ****                     break;
 1382              		.loc 1 1148 0
 1383 004a 05E0     		b	.L83
 1384              	.L85:
1141:Generated_Source\PSoC4/CyLib.c ****             {
 1385              		.loc 1 1141 0
 1386 004c 7B68     		ldr	r3, [r7, #4]
 1387 004e 013B     		sub	r3, r3, #1
 1388 0050 7B60     		str	r3, [r7, #4]
 1389              	.L84:
1141:Generated_Source\PSoC4/CyLib.c ****             {
 1390              		.loc 1 1141 0 is_stmt 0 discriminator 1
 1391 0052 7B68     		ldr	r3, [r7, #4]
 1392 0054 002B     		cmp	r3, #0
 1393 0056 EFD1     		bne	.L86
 1394              	.L83:
1149:Generated_Source\PSoC4/CyLib.c ****                 }
1150:Generated_Source\PSoC4/CyLib.c ****             }
1151:Generated_Source\PSoC4/CyLib.c **** 
1152:Generated_Source\PSoC4/CyLib.c ****         }
1153:Generated_Source\PSoC4/CyLib.c **** 
1154:Generated_Source\PSoC4/CyLib.c ****         return(returnStatus);
 1395              		.loc 1 1154 0 is_stmt 1
 1396 0058 FB68     		ldr	r3, [r7, #12]
1155:Generated_Source\PSoC4/CyLib.c ****     }
 1397              		.loc 1 1155 0
ARM GAS  C:\Users\GREG~1.PHI\AppData\Local\Temp\cc70RmjF.s 			page 46


 1398 005a 181C     		mov	r0, r3
 1399 005c BD46     		mov	sp, r7
 1400 005e 04B0     		add	sp, sp, #16
 1401              		@ sp needed
 1402 0060 80BD     		pop	{r7, pc}
 1403              	.L89:
 1404 0062 C046     		.align	2
 1405              	.L88:
 1406 0064 08000C40 		.word	1074528264
 1407              		.cfi_endproc
 1408              	.LFE14:
 1409              		.size	CySysClkEcoStart, .-CySysClkEcoStart
 1410              		.section	.text.CySysClkEcoStop,"ax",%progbits
 1411              		.align	2
 1412              		.global	CySysClkEcoStop
 1413              		.code	16
 1414              		.thumb_func
 1415              		.type	CySysClkEcoStop, %function
 1416              	CySysClkEcoStop:
 1417              	.LFB15:
1156:Generated_Source\PSoC4/CyLib.c **** 
1157:Generated_Source\PSoC4/CyLib.c **** 
1158:Generated_Source\PSoC4/CyLib.c ****     /*******************************************************************************
1159:Generated_Source\PSoC4/CyLib.c ****     * Function Name: CySysClkEcoStop
1160:Generated_Source\PSoC4/CyLib.c ****     ****************************************************************************//**
1161:Generated_Source\PSoC4/CyLib.c ****     *
1162:Generated_Source\PSoC4/CyLib.c ****     * Stops the megahertz crystal.
1163:Generated_Source\PSoC4/CyLib.c ****     *
1164:Generated_Source\PSoC4/CyLib.c ****     * If ECO is disabled when it is sourcing HFCLK, the CPU will halt. In addition,
1165:Generated_Source\PSoC4/CyLib.c ****     * for PSoC 4100 BLE / PSoC 4200 BLE devices, the BLE sub-system will stop
1166:Generated_Source\PSoC4/CyLib.c ****     * functioning.
1167:Generated_Source\PSoC4/CyLib.c ****     *
1168:Generated_Source\PSoC4/CyLib.c ****     *******************************************************************************/
1169:Generated_Source\PSoC4/CyLib.c ****     void CySysClkEcoStop(void)
1170:Generated_Source\PSoC4/CyLib.c ****     {
 1418              		.loc 1 1170 0
 1419              		.cfi_startproc
 1420 0000 80B5     		push	{r7, lr}
 1421              		.cfi_def_cfa_offset 8
 1422              		.cfi_offset 7, -8
 1423              		.cfi_offset 14, -4
 1424 0002 00AF     		add	r7, sp, #0
 1425              		.cfi_def_cfa_register 7
1171:Generated_Source\PSoC4/CyLib.c ****         #if (CY_IP_WCO_BLESS)
1172:Generated_Source\PSoC4/CyLib.c ****             /* Disable the RF oscillator band gap */
1173:Generated_Source\PSoC4/CyLib.c ****             CY_SYS_XTAL_BLESS_RF_CONFIG_REG &= (uint32) ~CY_SYS_XTAL_BLESS_RF_CONFIG_RF_ENABLE;
1174:Generated_Source\PSoC4/CyLib.c **** 
1175:Generated_Source\PSoC4/CyLib.c ****             /* Disable the Crystal */
1176:Generated_Source\PSoC4/CyLib.c ****             CY_SYS_XTAL_BLERD_DBUS_REG &= (uint32) ~CY_SYS_XTAL_BLERD_DBUS_XTAL_ENABLE;
1177:Generated_Source\PSoC4/CyLib.c ****         #elif (CY_IP_ECO_BLESSV3)
1178:Generated_Source\PSoC4/CyLib.c ****             CY_SYS_BLESS_MT_CFG_REG &= ~(CY_SYS_BLESS_MT_CFG_DPSLP_ECO_ON  <<  CYFLD_BLE_BLESS_DPSL
1179:Generated_Source\PSoC4/CyLib.c ****         #else
1180:Generated_Source\PSoC4/CyLib.c ****             CY_SYS_CLK_ECO_CONFIG_REG &= (uint32) ~(CY_SYS_CLK_ECO_CONFIG_ENABLE | CY_SYS_CLK_ECO_C
 1426              		.loc 1 1180 0
 1427 0004 034B     		ldr	r3, .L91
 1428 0006 034A     		ldr	r2, .L91
 1429 0008 1268     		ldr	r2, [r2]
ARM GAS  C:\Users\GREG~1.PHI\AppData\Local\Temp\cc70RmjF.s 			page 47


 1430 000a 0349     		ldr	r1, .L91+4
 1431 000c 0A40     		and	r2, r1
 1432 000e 1A60     		str	r2, [r3]
1181:Generated_Source\PSoC4/CyLib.c ****         #endif /* (CY_IP_WCO_BLESS) */
1182:Generated_Source\PSoC4/CyLib.c ****     }
 1433              		.loc 1 1182 0
 1434 0010 BD46     		mov	sp, r7
 1435              		@ sp needed
 1436 0012 80BD     		pop	{r7, pc}
 1437              	.L92:
 1438              		.align	2
 1439              	.L91:
 1440 0014 08000C40 		.word	1074528264
 1441 0018 FEFFFF7F 		.word	2147483646
 1442              		.cfi_endproc
 1443              	.LFE15:
 1444              		.size	CySysClkEcoStop, .-CySysClkEcoStop
 1445              		.section	.text.CySysClkEcoReadStatus,"ax",%progbits
 1446              		.align	2
 1447              		.global	CySysClkEcoReadStatus
 1448              		.code	16
 1449              		.thumb_func
 1450              		.type	CySysClkEcoReadStatus, %function
 1451              	CySysClkEcoReadStatus:
 1452              	.LFB16:
1183:Generated_Source\PSoC4/CyLib.c **** 
1184:Generated_Source\PSoC4/CyLib.c **** 
1185:Generated_Source\PSoC4/CyLib.c ****     /*******************************************************************************
1186:Generated_Source\PSoC4/CyLib.c ****     * Function Name: CySysClkEcoReadStatus
1187:Generated_Source\PSoC4/CyLib.c ****     ****************************************************************************//**
1188:Generated_Source\PSoC4/CyLib.c ****     *
1189:Generated_Source\PSoC4/CyLib.c ****     * Reads the status bit for the megahertz crystal.
1190:Generated_Source\PSoC4/CyLib.c ****     *
1191:Generated_Source\PSoC4/CyLib.c ****     * For PSoC 4100 BLE / PSoC 4200 BLE devices, the status bit is the
1192:Generated_Source\PSoC4/CyLib.c ****     * XO_AMP_DETECT bit in FSM register.
1193:Generated_Source\PSoC4/CyLib.c ****     *
1194:Generated_Source\PSoC4/CyLib.c ****     * For PSoC 4200L devices, the error status bit is the WATCHDOG_ERROR bit in
1195:Generated_Source\PSoC4/CyLib.c ****     * ECO_STATUS register.
1196:Generated_Source\PSoC4/CyLib.c ****     *
1197:Generated_Source\PSoC4/CyLib.c ****     * \return PSoC 4100 BLE/PSoC 4200 BLE: Non-zero indicates that ECO output
1198:Generated_Source\PSoC4/CyLib.c ****     * reached 50 ppm and is oscillating in valid range.
1199:Generated_Source\PSoC4/CyLib.c ****     *
1200:Generated_Source\PSoC4/CyLib.c ****     * \return PSoC 4200L: Non-zero indicates that ECO is running.
1201:Generated_Source\PSoC4/CyLib.c ****     *
1202:Generated_Source\PSoC4/CyLib.c ****     *******************************************************************************/
1203:Generated_Source\PSoC4/CyLib.c ****     uint32 CySysClkEcoReadStatus(void)
1204:Generated_Source\PSoC4/CyLib.c ****     {
 1453              		.loc 1 1204 0
 1454              		.cfi_startproc
 1455 0000 80B5     		push	{r7, lr}
 1456              		.cfi_def_cfa_offset 8
 1457              		.cfi_offset 7, -8
 1458              		.cfi_offset 14, -4
 1459 0002 82B0     		sub	sp, sp, #8
 1460              		.cfi_def_cfa_offset 16
 1461 0004 00AF     		add	r7, sp, #0
 1462              		.cfi_def_cfa_register 7
ARM GAS  C:\Users\GREG~1.PHI\AppData\Local\Temp\cc70RmjF.s 			page 48


1205:Generated_Source\PSoC4/CyLib.c ****         uint32 returnValue;
1206:Generated_Source\PSoC4/CyLib.c **** 
1207:Generated_Source\PSoC4/CyLib.c ****         #if (CY_IP_WCO_BLESS)
1208:Generated_Source\PSoC4/CyLib.c ****             returnValue = CY_SYS_XTAL_BLERD_FSM_REG & CY_SYS_XTAL_BLERD_FSM_XO_AMP_DETECT;
1209:Generated_Source\PSoC4/CyLib.c ****         #elif (CY_IP_ECO_BLESSV3)
1210:Generated_Source\PSoC4/CyLib.c ****             returnValue = (CY_SYS_BLESS_MT_STATUS_REG & CY_SYS_BLESS_MT_STATUS_CURR_STATE_MASK) >> 
1211:Generated_Source\PSoC4/CyLib.c **** 
1212:Generated_Source\PSoC4/CyLib.c ****             returnValue =  ((CY_SYS_BLESS_MT_STATUS_BLERD_IDLE == returnValue) || 
1213:Generated_Source\PSoC4/CyLib.c ****                             (CY_SYS_BLESS_MT_STATUS_SWITCH_EN  == returnValue) ||
1214:Generated_Source\PSoC4/CyLib.c ****                             (CY_SYS_BLESS_MT_STATUS_ACTIVE  ==  returnValue) ||
1215:Generated_Source\PSoC4/CyLib.c ****                             (CY_SYS_BLESS_MT_STATUS_ISOLATE == returnValue));
1216:Generated_Source\PSoC4/CyLib.c ****         #else
1217:Generated_Source\PSoC4/CyLib.c ****             returnValue = (0u != (CY_SYS_CLK_ECO_STATUS_REG & CY_SYS_CLK_ECO_STATUS_WATCHDOG_ERROR)
 1463              		.loc 1 1217 0
 1464 0006 064B     		ldr	r3, .L95
 1465 0008 1B68     		ldr	r3, [r3]
 1466 000a 0122     		mov	r2, #1
 1467 000c 1340     		and	r3, r2
 1468 000e 5A42     		neg	r2, r3
 1469 0010 5341     		adc	r3, r3, r2
 1470 0012 DBB2     		uxtb	r3, r3
 1471 0014 7B60     		str	r3, [r7, #4]
1218:Generated_Source\PSoC4/CyLib.c ****         #endif /* (CY_IP_WCO_BLESS) */
1219:Generated_Source\PSoC4/CyLib.c **** 
1220:Generated_Source\PSoC4/CyLib.c ****         return (returnValue);
 1472              		.loc 1 1220 0
 1473 0016 7B68     		ldr	r3, [r7, #4]
1221:Generated_Source\PSoC4/CyLib.c ****     }
 1474              		.loc 1 1221 0
 1475 0018 181C     		mov	r0, r3
 1476 001a BD46     		mov	sp, r7
 1477 001c 02B0     		add	sp, sp, #8
 1478              		@ sp needed
 1479 001e 80BD     		pop	{r7, pc}
 1480              	.L96:
 1481              		.align	2
 1482              	.L95:
 1483 0020 0C000C40 		.word	1074528268
 1484              		.cfi_endproc
 1485              	.LFE16:
 1486              		.size	CySysClkEcoReadStatus, .-CySysClkEcoReadStatus
 1487              		.section	.text.CySysClkConfigureEcoTrim,"ax",%progbits
 1488              		.align	2
 1489              		.global	CySysClkConfigureEcoTrim
 1490              		.code	16
 1491              		.thumb_func
 1492              		.type	CySysClkConfigureEcoTrim, %function
 1493              	CySysClkConfigureEcoTrim:
 1494              	.LFB17:
1222:Generated_Source\PSoC4/CyLib.c **** 
1223:Generated_Source\PSoC4/CyLib.c ****     #if (CY_IP_ECO_BLESS || CY_IP_ECO_BLESSV3)
1224:Generated_Source\PSoC4/CyLib.c ****         /*******************************************************************************
1225:Generated_Source\PSoC4/CyLib.c ****         * Function Name: CySysClkWriteEcoDiv
1226:Generated_Source\PSoC4/CyLib.c ****         ****************************************************************************//**
1227:Generated_Source\PSoC4/CyLib.c ****         *
1228:Generated_Source\PSoC4/CyLib.c ****         * Selects value for the ECO divider.
1229:Generated_Source\PSoC4/CyLib.c ****         *
ARM GAS  C:\Users\GREG~1.PHI\AppData\Local\Temp\cc70RmjF.s 			page 49


1230:Generated_Source\PSoC4/CyLib.c ****         * The ECO must not be the HFCLK clock source when this function is called.
1231:Generated_Source\PSoC4/CyLib.c ****         * The HFCLK source can be changed to the other clock source by call to the
1232:Generated_Source\PSoC4/CyLib.c ****         * CySysClkWriteHfclkDirect() function. If the ECO sources the HFCLK this
1233:Generated_Source\PSoC4/CyLib.c ****         * function will not have any effect if compiler in release mode, and halt the
1234:Generated_Source\PSoC4/CyLib.c ****         * CPU when compiler in debug mode.
1235:Generated_Source\PSoC4/CyLib.c ****         *
1236:Generated_Source\PSoC4/CyLib.c ****         * If the SYSCLK clock frequency increases during the device operation, call
1237:Generated_Source\PSoC4/CyLib.c ****         * CySysFlashSetWaitCycles() with the appropriate parameter to adjust the number
1238:Generated_Source\PSoC4/CyLib.c ****         * of clock cycles the cache will wait before sampling data comes back from
1239:Generated_Source\PSoC4/CyLib.c ****         * Flash. If the SYSCLK clock frequency decreases, you can call
1240:Generated_Source\PSoC4/CyLib.c ****         * CySysFlashSetWaitCycles() to improve the CPU performance. See
1241:Generated_Source\PSoC4/CyLib.c ****         * CySysFlashSetWaitCycles() description for more information.
1242:Generated_Source\PSoC4/CyLib.c ****         *
1243:Generated_Source\PSoC4/CyLib.c ****         * \param divider Power of 2 divider selection.
1244:Generated_Source\PSoC4/CyLib.c ****         * - \ref CY_SYS_CLK_ECO_DIV1
1245:Generated_Source\PSoC4/CyLib.c ****         * - \ref CY_SYS_CLK_ECO_DIV2
1246:Generated_Source\PSoC4/CyLib.c ****         * - \ref CY_SYS_CLK_ECO_DIV4
1247:Generated_Source\PSoC4/CyLib.c ****         * - \ref CY_SYS_CLK_ECO_DIV8
1248:Generated_Source\PSoC4/CyLib.c ****         *
1249:Generated_Source\PSoC4/CyLib.c ****         *******************************************************************************/
1250:Generated_Source\PSoC4/CyLib.c ****         void CySysClkWriteEcoDiv(uint32 divider)
1251:Generated_Source\PSoC4/CyLib.c ****         {
1252:Generated_Source\PSoC4/CyLib.c ****             uint8  interruptState;
1253:Generated_Source\PSoC4/CyLib.c **** 
1254:Generated_Source\PSoC4/CyLib.c ****             if (CY_SYS_CLK_HFCLK_ECO != (CY_SYS_CLK_SELECT_REG & CY_SYS_CLK_SELECT_DIRECT_SEL_MASK)
1255:Generated_Source\PSoC4/CyLib.c ****             {
1256:Generated_Source\PSoC4/CyLib.c ****                 interruptState = CyEnterCriticalSection();
1257:Generated_Source\PSoC4/CyLib.c **** 
1258:Generated_Source\PSoC4/CyLib.c ****                 CY_SYS_CLK_XTAL_CLK_DIV_CONFIG_REG =  (divider & CY_SYS_CLK_XTAL_CLK_DIV_MASK) |
1259:Generated_Source\PSoC4/CyLib.c ****                                                       (CY_SYS_CLK_XTAL_CLK_DIV_CONFIG_REG & ((uint3
1260:Generated_Source\PSoC4/CyLib.c **** 
1261:Generated_Source\PSoC4/CyLib.c ****                 CyExitCriticalSection(interruptState);
1262:Generated_Source\PSoC4/CyLib.c ****             }
1263:Generated_Source\PSoC4/CyLib.c ****             else
1264:Generated_Source\PSoC4/CyLib.c ****             {
1265:Generated_Source\PSoC4/CyLib.c ****                 /* Halt CPU in debug mode if ECO sources HFCLK */
1266:Generated_Source\PSoC4/CyLib.c ****                 CYASSERT(0u != 0u);
1267:Generated_Source\PSoC4/CyLib.c ****             }
1268:Generated_Source\PSoC4/CyLib.c ****         }
1269:Generated_Source\PSoC4/CyLib.c **** 
1270:Generated_Source\PSoC4/CyLib.c ****     #else
1271:Generated_Source\PSoC4/CyLib.c **** 
1272:Generated_Source\PSoC4/CyLib.c ****         /*******************************************************************************
1273:Generated_Source\PSoC4/CyLib.c ****         * Function Name: CySysClkConfigureEcoTrim
1274:Generated_Source\PSoC4/CyLib.c ****         ****************************************************************************//**
1275:Generated_Source\PSoC4/CyLib.c ****         *
1276:Generated_Source\PSoC4/CyLib.c ****         * Selects trim setting values for ECO. This API is available only for PSoC
1277:Generated_Source\PSoC4/CyLib.c ****         * 4200L devices only.
1278:Generated_Source\PSoC4/CyLib.c ****         *
1279:Generated_Source\PSoC4/CyLib.c ****         * The following parameters can be trimmed for ECO. The affected registers are
1280:Generated_Source\PSoC4/CyLib.c ****         * ECO_TRIM0 and ECO_TRIM1.
1281:Generated_Source\PSoC4/CyLib.c ****         *
1282:Generated_Source\PSoC4/CyLib.c ****         * Watchdog trim - This bit field sets the error threshold below the steady
1283:Generated_Source\PSoC4/CyLib.c ****         * state amplitude level.
1284:Generated_Source\PSoC4/CyLib.c ****         *
1285:Generated_Source\PSoC4/CyLib.c ****         * Amplitude trim - This bit field is to set the crystal drive level when
1286:Generated_Source\PSoC4/CyLib.c ****         * ECO_CONFIG.AGC_EN = 1. WARNING: use care when setting this field because
ARM GAS  C:\Users\GREG~1.PHI\AppData\Local\Temp\cc70RmjF.s 			page 50


1287:Generated_Source\PSoC4/CyLib.c ****         * driving a crystal beyond its rated limit can permanently damage the crystal.
1288:Generated_Source\PSoC4/CyLib.c ****         *
1289:Generated_Source\PSoC4/CyLib.c ****         * Filter frequency trim - This bit field sets LPF frequency trim and affects
1290:Generated_Source\PSoC4/CyLib.c ****         * the 3rd harmonic content.
1291:Generated_Source\PSoC4/CyLib.c ****         *
1292:Generated_Source\PSoC4/CyLib.c ****         * Feedback resistor trim - This bit field sets the feedback resistor trim and
1293:Generated_Source\PSoC4/CyLib.c ****         * impacts the oscillation amplitude.
1294:Generated_Source\PSoC4/CyLib.c ****         *
1295:Generated_Source\PSoC4/CyLib.c ****         * Amplifier gain trim - This bit field sets the amplifier gain trim and affects
1296:Generated_Source\PSoC4/CyLib.c ****         * the startup time of the crystal.
1297:Generated_Source\PSoC4/CyLib.c ****         *
1298:Generated_Source\PSoC4/CyLib.c ****         * Use care when setting the amplitude trim field because driving a crystal
1299:Generated_Source\PSoC4/CyLib.c ****         * beyond its rated limit can permanently damage the crystal.
1300:Generated_Source\PSoC4/CyLib.c ****         *
1301:Generated_Source\PSoC4/CyLib.c ****         * \param wDTrim: Watchdog trim
1302:Generated_Source\PSoC4/CyLib.c ****         * - \ref CY_SYS_CLK_ECO_WDTRIM0      Error threshold is 0.05 V
1303:Generated_Source\PSoC4/CyLib.c ****         * - \ref CY_SYS_CLK_ECO_WDTRIM1      Error threshold is 0.10 V
1304:Generated_Source\PSoC4/CyLib.c ****         * - \ref CY_SYS_CLK_ECO_WDTRIM2      Error threshold is 0.15 V
1305:Generated_Source\PSoC4/CyLib.c ****         * - \ref CY_SYS_CLK_ECO_WDTRIM3      Error threshold is 0.20 V
1306:Generated_Source\PSoC4/CyLib.c ****         *
1307:Generated_Source\PSoC4/CyLib.c ****         * \param aTrim: Amplitude trim
1308:Generated_Source\PSoC4/CyLib.c ****         * - \ref CY_SYS_CLK_ECO_ATRIM0       Amplitude is 0.3 Vpp
1309:Generated_Source\PSoC4/CyLib.c ****         * - \ref CY_SYS_CLK_ECO_ATRIM1       Amplitude is 0.4 Vpp
1310:Generated_Source\PSoC4/CyLib.c ****         * - \ref CY_SYS_CLK_ECO_ATRIM2       Amplitude is 0.5 Vpp
1311:Generated_Source\PSoC4/CyLib.c ****         * - \ref CY_SYS_CLK_ECO_ATRIM3       Amplitude is 0.6 Vpp
1312:Generated_Source\PSoC4/CyLib.c ****         * - \ref CY_SYS_CLK_ECO_ATRIM4       Amplitude is 0.7 Vpp
1313:Generated_Source\PSoC4/CyLib.c ****         * - \ref CY_SYS_CLK_ECO_ATRIM5       Amplitude is 0.8 Vpp
1314:Generated_Source\PSoC4/CyLib.c ****         * - \ref CY_SYS_CLK_ECO_ATRIM6       Amplitude is 0.9 Vpp
1315:Generated_Source\PSoC4/CyLib.c ****         * - \ref CY_SYS_CLK_ECO_ATRIM7       Amplitude is 1.0 Vpp
1316:Generated_Source\PSoC4/CyLib.c ****         *
1317:Generated_Source\PSoC4/CyLib.c ****         * \param fTrim: Filter frequency trim
1318:Generated_Source\PSoC4/CyLib.c ****         * - \ref CY_SYS_CLK_ECO_FTRIM0       Crystal frequency > 30 MHz
1319:Generated_Source\PSoC4/CyLib.c ****         * - \ref CY_SYS_CLK_ECO_FTRIM1       24 MHz < Crystal frequency <= 30 MHz
1320:Generated_Source\PSoC4/CyLib.c ****         * - \ref CY_SYS_CLK_ECO_FTRIM2       17 MHz < Crystal frequency <= 24 MHz
1321:Generated_Source\PSoC4/CyLib.c ****         * - \ref CY_SYS_CLK_ECO_FTRIM3       Crystal frequency <= 17 MHz
1322:Generated_Source\PSoC4/CyLib.c ****         *
1323:Generated_Source\PSoC4/CyLib.c ****         * \param rTrim: Feedback resistor trim
1324:Generated_Source\PSoC4/CyLib.c ****         * - \ref CY_SYS_CLK_ECO_RTRIM0       Crystal frequency > 30 MHz
1325:Generated_Source\PSoC4/CyLib.c ****         * - \ref CY_SYS_CLK_ECO_RTRIM1       24 MHz < Crystal frequency <= 30 MHz
1326:Generated_Source\PSoC4/CyLib.c ****         * - \ref CY_SYS_CLK_ECO_RTRIM2       17 MHz < Crystal frequency <= 24 MHz
1327:Generated_Source\PSoC4/CyLib.c ****         * - \ref CY_SYS_CLK_ECO_RTRIM3       Crystal frequency <= 17 MHz
1328:Generated_Source\PSoC4/CyLib.c ****         *
1329:Generated_Source\PSoC4/CyLib.c ****         * \param gTrim: Amplifier gain trim. Calculate the minimum required gm
1330:Generated_Source\PSoC4/CyLib.c ****         * (trans-conductance value). Divide the calculated gm value by 4.5 to
1331:Generated_Source\PSoC4/CyLib.c ****         * obtain an integer value 'result'. For more information please refer
1332:Generated_Source\PSoC4/CyLib.c ****         * to the device TRM.
1333:Generated_Source\PSoC4/CyLib.c ****         * - \ref CY_SYS_CLK_ECO_GTRIM0       If result = 1
1334:Generated_Source\PSoC4/CyLib.c ****         * - \ref CY_SYS_CLK_ECO_GTRIM1       If result = 0
1335:Generated_Source\PSoC4/CyLib.c ****         * - \ref CY_SYS_CLK_ECO_GTRIM2       If result = 2
1336:Generated_Source\PSoC4/CyLib.c ****         * - \ref CY_SYS_CLK_ECO_GTRIM2       If result = 3
1337:Generated_Source\PSoC4/CyLib.c ****         *
1338:Generated_Source\PSoC4/CyLib.c ****         *******************************************************************************/
1339:Generated_Source\PSoC4/CyLib.c ****         void CySysClkConfigureEcoTrim(uint32 wDTrim, uint32 aTrim, uint32 fTrim, uint32 rTrim, uint
1340:Generated_Source\PSoC4/CyLib.c ****         {
 1495              		.loc 1 1340 0
 1496              		.cfi_startproc
 1497 0000 90B5     		push	{r4, r7, lr}
ARM GAS  C:\Users\GREG~1.PHI\AppData\Local\Temp\cc70RmjF.s 			page 51


 1498              		.cfi_def_cfa_offset 12
 1499              		.cfi_offset 4, -12
 1500              		.cfi_offset 7, -8
 1501              		.cfi_offset 14, -4
 1502 0002 87B0     		sub	sp, sp, #28
 1503              		.cfi_def_cfa_offset 40
 1504 0004 00AF     		add	r7, sp, #0
 1505              		.cfi_def_cfa_register 7
 1506 0006 F860     		str	r0, [r7, #12]
 1507 0008 B960     		str	r1, [r7, #8]
 1508 000a 7A60     		str	r2, [r7, #4]
 1509 000c 3B60     		str	r3, [r7]
1341:Generated_Source\PSoC4/CyLib.c ****             uint8  interruptState;
1342:Generated_Source\PSoC4/CyLib.c ****             uint32 regTmp;
1343:Generated_Source\PSoC4/CyLib.c **** 
1344:Generated_Source\PSoC4/CyLib.c ****             interruptState = CyEnterCriticalSection();
 1510              		.loc 1 1344 0
 1511 000e 1723     		mov	r3, #23
 1512 0010 FC18     		add	r4, r7, r3
 1513 0012 FFF7FEFF 		bl	CyEnterCriticalSection
 1514 0016 031C     		mov	r3, r0
 1515 0018 2370     		strb	r3, [r4]
1345:Generated_Source\PSoC4/CyLib.c **** 
1346:Generated_Source\PSoC4/CyLib.c ****             regTmp  = CY_SYS_CLK_ECO_TRIM0_REG & ~(CY_SYS_CLK_ECO_TRIM0_WDTRIM_MASK | CY_SYS_CLK_EC
 1516              		.loc 1 1346 0
 1517 001a 1D4B     		ldr	r3, .L98
 1518 001c 1B68     		ldr	r3, [r3]
 1519 001e 1F22     		mov	r2, #31
 1520 0020 9343     		bic	r3, r2
 1521 0022 3B61     		str	r3, [r7, #16]
1347:Generated_Source\PSoC4/CyLib.c ****             regTmp |= ((uint32) (wDTrim << CY_SYS_CLK_ECO_TRIM0_WDTRIM_SHIFT) & CY_SYS_CLK_ECO_TRIM
 1522              		.loc 1 1347 0
 1523 0024 FB68     		ldr	r3, [r7, #12]
 1524 0026 0322     		mov	r2, #3
 1525 0028 1340     		and	r3, r2
 1526 002a 3A69     		ldr	r2, [r7, #16]
 1527 002c 1343     		orr	r3, r2
 1528 002e 3B61     		str	r3, [r7, #16]
1348:Generated_Source\PSoC4/CyLib.c ****             regTmp |= ((uint32) (aTrim << CY_SYS_CLK_ECO_TRIM0_ATRIM_SHIFT) & CY_SYS_CLK_ECO_TRIM0_
 1529              		.loc 1 1348 0
 1530 0030 BB68     		ldr	r3, [r7, #8]
 1531 0032 9B00     		lsl	r3, r3, #2
 1532 0034 1C22     		mov	r2, #28
 1533 0036 1340     		and	r3, r2
 1534 0038 3A69     		ldr	r2, [r7, #16]
 1535 003a 1343     		orr	r3, r2
 1536 003c 3B61     		str	r3, [r7, #16]
1349:Generated_Source\PSoC4/CyLib.c ****             CY_SYS_CLK_ECO_TRIM0_REG = regTmp;
 1537              		.loc 1 1349 0
 1538 003e 144B     		ldr	r3, .L98
 1539 0040 3A69     		ldr	r2, [r7, #16]
 1540 0042 1A60     		str	r2, [r3]
1350:Generated_Source\PSoC4/CyLib.c **** 
1351:Generated_Source\PSoC4/CyLib.c ****             regTmp  = CY_SYS_CLK_ECO_TRIM1_REG & ~(CY_SYS_CLK_ECO_TRIM1_FTRIM_MASK |
 1541              		.loc 1 1351 0
 1542 0044 134B     		ldr	r3, .L98+4
 1543 0046 1B68     		ldr	r3, [r3]
ARM GAS  C:\Users\GREG~1.PHI\AppData\Local\Temp\cc70RmjF.s 			page 52


 1544 0048 3F22     		mov	r2, #63
 1545 004a 9343     		bic	r3, r2
 1546 004c 3B61     		str	r3, [r7, #16]
1352:Generated_Source\PSoC4/CyLib.c ****                                                    CY_SYS_CLK_ECO_TRIM1_RTRIM_MASK |
1353:Generated_Source\PSoC4/CyLib.c ****                                                    CY_SYS_CLK_ECO_TRIM1_GTRIM_MASK);
1354:Generated_Source\PSoC4/CyLib.c ****             regTmp |= ((uint32) (fTrim << CY_SYS_CLK_ECO_TRIM1_FTRIM_SHIFT) & CY_SYS_CLK_ECO_TRIM1_
 1547              		.loc 1 1354 0
 1548 004e 7B68     		ldr	r3, [r7, #4]
 1549 0050 0322     		mov	r2, #3
 1550 0052 1340     		and	r3, r2
 1551 0054 3A69     		ldr	r2, [r7, #16]
 1552 0056 1343     		orr	r3, r2
 1553 0058 3B61     		str	r3, [r7, #16]
1355:Generated_Source\PSoC4/CyLib.c ****             regTmp |= ((uint32) (rTrim << CY_SYS_CLK_ECO_TRIM1_RTRIM_SHIFT) & CY_SYS_CLK_ECO_TRIM1_
 1554              		.loc 1 1355 0
 1555 005a 3B68     		ldr	r3, [r7]
 1556 005c 9B00     		lsl	r3, r3, #2
 1557 005e 0C22     		mov	r2, #12
 1558 0060 1340     		and	r3, r2
 1559 0062 3A69     		ldr	r2, [r7, #16]
 1560 0064 1343     		orr	r3, r2
 1561 0066 3B61     		str	r3, [r7, #16]
1356:Generated_Source\PSoC4/CyLib.c ****             regTmp |= ((uint32) (gTrim << CY_SYS_CLK_ECO_TRIM1_GTRIM_SHIFT) & CY_SYS_CLK_ECO_TRIM1_
 1562              		.loc 1 1356 0
 1563 0068 BB6A     		ldr	r3, [r7, #40]
 1564 006a 1B01     		lsl	r3, r3, #4
 1565 006c 3022     		mov	r2, #48
 1566 006e 1340     		and	r3, r2
 1567 0070 3A69     		ldr	r2, [r7, #16]
 1568 0072 1343     		orr	r3, r2
 1569 0074 3B61     		str	r3, [r7, #16]
1357:Generated_Source\PSoC4/CyLib.c **** 
1358:Generated_Source\PSoC4/CyLib.c ****             CY_SYS_CLK_ECO_TRIM1_REG = regTmp;
 1570              		.loc 1 1358 0
 1571 0076 074B     		ldr	r3, .L98+4
 1572 0078 3A69     		ldr	r2, [r7, #16]
 1573 007a 1A60     		str	r2, [r3]
1359:Generated_Source\PSoC4/CyLib.c **** 
1360:Generated_Source\PSoC4/CyLib.c ****             CyExitCriticalSection(interruptState);
 1574              		.loc 1 1360 0
 1575 007c 1723     		mov	r3, #23
 1576 007e FB18     		add	r3, r7, r3
 1577 0080 1B78     		ldrb	r3, [r3]
 1578 0082 181C     		mov	r0, r3
 1579 0084 FFF7FEFF 		bl	CyExitCriticalSection
1361:Generated_Source\PSoC4/CyLib.c ****         }
 1580              		.loc 1 1361 0
 1581 0088 BD46     		mov	sp, r7
 1582 008a 07B0     		add	sp, sp, #28
 1583              		@ sp needed
 1584 008c 90BD     		pop	{r4, r7, pc}
 1585              	.L99:
 1586 008e C046     		.align	2
 1587              	.L98:
 1588 0090 0CFF0C40 		.word	1074593548
 1589 0094 10FF0C40 		.word	1074593552
 1590              		.cfi_endproc
ARM GAS  C:\Users\GREG~1.PHI\AppData\Local\Temp\cc70RmjF.s 			page 53


 1591              	.LFE17:
 1592              		.size	CySysClkConfigureEcoTrim, .-CySysClkConfigureEcoTrim
 1593              		.global	__aeabi_uidiv
 1594              		.section	.text.CySysClkConfigureEcoDrive,"ax",%progbits
 1595              		.align	2
 1596              		.global	CySysClkConfigureEcoDrive
 1597              		.code	16
 1598              		.thumb_func
 1599              		.type	CySysClkConfigureEcoDrive, %function
 1600              	CySysClkConfigureEcoDrive:
 1601              	.LFB18:
1362:Generated_Source\PSoC4/CyLib.c **** 
1363:Generated_Source\PSoC4/CyLib.c **** 
1364:Generated_Source\PSoC4/CyLib.c ****         /*******************************************************************************
1365:Generated_Source\PSoC4/CyLib.c ****         * Function Name: CySysClkConfigureEcoDrive
1366:Generated_Source\PSoC4/CyLib.c ****         ****************************************************************************//**
1367:Generated_Source\PSoC4/CyLib.c ****         *
1368:Generated_Source\PSoC4/CyLib.c ****         * Selects trim setting values for ECO based on crystal parameters. Use care
1369:Generated_Source\PSoC4/CyLib.c ****         * when setting the driveLevel parameter because driving a crystal beyond its
1370:Generated_Source\PSoC4/CyLib.c ****         * rated limit can permanently damage the crystal.
1371:Generated_Source\PSoC4/CyLib.c ****         *
1372:Generated_Source\PSoC4/CyLib.c ****         * This API is available only for PSoC 4200L devices only.
1373:Generated_Source\PSoC4/CyLib.c ****         *
1374:Generated_Source\PSoC4/CyLib.c ****         * \param freq Frequency of the crystal in kHz.
1375:Generated_Source\PSoC4/CyLib.c ****         * \param cLoad Crystal load capacitance in pF.
1376:Generated_Source\PSoC4/CyLib.c ****         * \param esr Equivalent series resistance of the crystal in ohm.
1377:Generated_Source\PSoC4/CyLib.c ****         *  maxAmplitude: maximum amplitude level in mV. Calculate as
1378:Generated_Source\PSoC4/CyLib.c ****         *  ((sqrt(driveLevel in uW / 2 / esr))/(3.14 * freq * cLoad)) * 10^9.
1379:Generated_Source\PSoC4/CyLib.c ****         *
1380:Generated_Source\PSoC4/CyLib.c ****         *  The Automatic Gain Control (AGC) is disabled when the specified maximum
1381:Generated_Source\PSoC4/CyLib.c ****         *  amplitude level equals or above 2. In this case the amplitude is not
1382:Generated_Source\PSoC4/CyLib.c ****         *  explicitly controlled and will grow until it saturates to the supply rail
1383:Generated_Source\PSoC4/CyLib.c ****         *  (1.8V nom). WARNING: use care when disabling AGC because driving a crystal
1384:Generated_Source\PSoC4/CyLib.c ****         *  beyond its rated limit can permanently damage the crystal.
1385:Generated_Source\PSoC4/CyLib.c ****         *
1386:Generated_Source\PSoC4/CyLib.c ****         * \return \ref CYRET_SUCCESS ECO configuration completed successfully.
1387:Generated_Source\PSoC4/CyLib.c ****         * \return \ref CYRET_BAD_PARAM One or more invalid parameters.
1388:Generated_Source\PSoC4/CyLib.c ****         *
1389:Generated_Source\PSoC4/CyLib.c ****         *******************************************************************************/
1390:Generated_Source\PSoC4/CyLib.c ****         cystatus CySysClkConfigureEcoDrive(uint32 freq, uint32 cLoad, uint32 esr, uint32 maxAmplitu
1391:Generated_Source\PSoC4/CyLib.c ****         {
 1602              		.loc 1 1391 0
 1603              		.cfi_startproc
 1604 0000 90B5     		push	{r4, r7, lr}
 1605              		.cfi_def_cfa_offset 12
 1606              		.cfi_offset 4, -12
 1607              		.cfi_offset 7, -8
 1608              		.cfi_offset 14, -4
 1609 0002 8FB0     		sub	sp, sp, #60
 1610              		.cfi_def_cfa_offset 72
 1611 0004 02AF     		add	r7, sp, #8
 1612              		.cfi_def_cfa 7, 64
 1613 0006 F860     		str	r0, [r7, #12]
 1614 0008 B960     		str	r1, [r7, #8]
 1615 000a 7A60     		str	r2, [r7, #4]
 1616 000c 3B60     		str	r3, [r7]
1392:Generated_Source\PSoC4/CyLib.c ****             cystatus returnStatus = CYRET_SUCCESS;
ARM GAS  C:\Users\GREG~1.PHI\AppData\Local\Temp\cc70RmjF.s 			page 54


 1617              		.loc 1 1392 0
 1618 000e 0023     		mov	r3, #0
 1619 0010 FB62     		str	r3, [r7, #44]
1393:Generated_Source\PSoC4/CyLib.c **** 
1394:Generated_Source\PSoC4/CyLib.c ****             uint32 wDTrim;
1395:Generated_Source\PSoC4/CyLib.c ****             uint32 aTrim;
1396:Generated_Source\PSoC4/CyLib.c ****             uint32 fTrim;
1397:Generated_Source\PSoC4/CyLib.c ****             uint32 rTrim;
1398:Generated_Source\PSoC4/CyLib.c ****             uint32 gTrim;
1399:Generated_Source\PSoC4/CyLib.c **** 
1400:Generated_Source\PSoC4/CyLib.c ****             uint32 gmMin;
1401:Generated_Source\PSoC4/CyLib.c **** 
1402:Generated_Source\PSoC4/CyLib.c **** 
1403:Generated_Source\PSoC4/CyLib.c ****             if ((maxAmplitude < CY_SYS_CLK_ECO_MAX_AMPL_MIN_mV) ||
 1620              		.loc 1 1403 0
 1621 0012 3A68     		ldr	r2, [r7]
 1622 0014 F423     		mov	r3, #244
 1623 0016 FF33     		add	r3, r3, #255
 1624 0018 9A42     		cmp	r2, r3
 1625 001a 07D9     		bls	.L101
 1626              		.loc 1 1403 0 is_stmt 0 discriminator 1
 1627 001c FB68     		ldr	r3, [r7, #12]
 1628 001e 634A     		ldr	r2, .L125
 1629 0020 9342     		cmp	r3, r2
 1630 0022 03D9     		bls	.L101
1404:Generated_Source\PSoC4/CyLib.c ****                 (freq < CY_SYS_CLK_ECO_FREQ_KHZ_MIN) || (freq > CY_SYS_CLK_ECO_FREQ_KHZ_MAX))
 1631              		.loc 1 1404 0 is_stmt 1
 1632 0024 FB68     		ldr	r3, [r7, #12]
 1633 0026 624A     		ldr	r2, .L125+4
 1634 0028 9342     		cmp	r3, r2
 1635 002a 02D9     		bls	.L102
 1636              	.L101:
1405:Generated_Source\PSoC4/CyLib.c ****             {
1406:Generated_Source\PSoC4/CyLib.c ****                 returnStatus = CYRET_BAD_PARAM;
 1637              		.loc 1 1406 0
 1638 002c 0123     		mov	r3, #1
 1639 002e FB62     		str	r3, [r7, #44]
 1640 0030 B6E0     		b	.L103
 1641              	.L102:
1407:Generated_Source\PSoC4/CyLib.c ****             }
1408:Generated_Source\PSoC4/CyLib.c ****             else
1409:Generated_Source\PSoC4/CyLib.c ****             {
1410:Generated_Source\PSoC4/CyLib.c ****                 /* Calculate amplitude trim */
1411:Generated_Source\PSoC4/CyLib.c ****                 aTrim = (maxAmplitude < CY_SYS_CLK_ECO_TRIM_BOUNDARY) ? ((maxAmplitude/100u) - 4u) 
 1642              		.loc 1 1411 0
 1643 0032 3B68     		ldr	r3, [r7]
 1644 0034 5F4A     		ldr	r2, .L125+8
 1645 0036 9342     		cmp	r3, r2
 1646 0038 07D8     		bhi	.L104
 1647              		.loc 1 1411 0 is_stmt 0 discriminator 1
 1648 003a 3B68     		ldr	r3, [r7]
 1649 003c 181C     		mov	r0, r3
 1650 003e 6421     		mov	r1, #100
 1651 0040 FFF7FEFF 		bl	__aeabi_uidiv
 1652 0044 031C     		mov	r3, r0
 1653 0046 043B     		sub	r3, r3, #4
 1654 0048 00E0     		b	.L105
ARM GAS  C:\Users\GREG~1.PHI\AppData\Local\Temp\cc70RmjF.s 			page 55


 1655              	.L104:
 1656              		.loc 1 1411 0 discriminator 2
 1657 004a 0723     		mov	r3, #7
 1658              	.L105:
 1659              		.loc 1 1411 0 discriminator 4
 1660 004c BB62     		str	r3, [r7, #40]
1412:Generated_Source\PSoC4/CyLib.c **** 
1413:Generated_Source\PSoC4/CyLib.c ****                 if (maxAmplitude < CY_SYS_CLK_ECO_AMPL_FOR_ATRIM0)
 1661              		.loc 1 1413 0 is_stmt 1 discriminator 4
 1662 004e 3B68     		ldr	r3, [r7]
 1663 0050 594A     		ldr	r2, .L125+12
 1664 0052 9342     		cmp	r3, r2
 1665 0054 02D8     		bhi	.L106
1414:Generated_Source\PSoC4/CyLib.c ****                 {
1415:Generated_Source\PSoC4/CyLib.c ****                     aTrim = CY_SYS_CLK_ECO_ATRIM0;
 1666              		.loc 1 1415 0
 1667 0056 0023     		mov	r3, #0
 1668 0058 BB62     		str	r3, [r7, #40]
 1669 005a 2CE0     		b	.L107
 1670              	.L106:
1416:Generated_Source\PSoC4/CyLib.c ****                 }
1417:Generated_Source\PSoC4/CyLib.c ****                 else if (maxAmplitude < CY_SYS_CLK_ECO_AMPL_FOR_ATRIM1)
 1671              		.loc 1 1417 0
 1672 005c 3B68     		ldr	r3, [r7]
 1673 005e 574A     		ldr	r2, .L125+16
 1674 0060 9342     		cmp	r3, r2
 1675 0062 02D8     		bhi	.L108
1418:Generated_Source\PSoC4/CyLib.c ****                 {
1419:Generated_Source\PSoC4/CyLib.c ****                     aTrim = CY_SYS_CLK_ECO_ATRIM1;
 1676              		.loc 1 1419 0
 1677 0064 0123     		mov	r3, #1
 1678 0066 BB62     		str	r3, [r7, #40]
 1679 0068 25E0     		b	.L107
 1680              	.L108:
1420:Generated_Source\PSoC4/CyLib.c ****                 }
1421:Generated_Source\PSoC4/CyLib.c ****                 else if (maxAmplitude < CY_SYS_CLK_ECO_AMPL_FOR_ATRIM2)
 1681              		.loc 1 1421 0
 1682 006a 3B68     		ldr	r3, [r7]
 1683 006c 544A     		ldr	r2, .L125+20
 1684 006e 9342     		cmp	r3, r2
 1685 0070 02D8     		bhi	.L109
1422:Generated_Source\PSoC4/CyLib.c ****                 {
1423:Generated_Source\PSoC4/CyLib.c ****                     aTrim = CY_SYS_CLK_ECO_ATRIM2;
 1686              		.loc 1 1423 0
 1687 0072 0223     		mov	r3, #2
 1688 0074 BB62     		str	r3, [r7, #40]
 1689 0076 1EE0     		b	.L107
 1690              	.L109:
1424:Generated_Source\PSoC4/CyLib.c ****                 }
1425:Generated_Source\PSoC4/CyLib.c ****                 else if (maxAmplitude < CY_SYS_CLK_ECO_AMPL_FOR_ATRIM3)
 1691              		.loc 1 1425 0
 1692 0078 3B68     		ldr	r3, [r7]
 1693 007a 524A     		ldr	r2, .L125+24
 1694 007c 9342     		cmp	r3, r2
 1695 007e 02D8     		bhi	.L110
1426:Generated_Source\PSoC4/CyLib.c ****                 {
1427:Generated_Source\PSoC4/CyLib.c ****                     aTrim = CY_SYS_CLK_ECO_ATRIM3;
ARM GAS  C:\Users\GREG~1.PHI\AppData\Local\Temp\cc70RmjF.s 			page 56


 1696              		.loc 1 1427 0
 1697 0080 0323     		mov	r3, #3
 1698 0082 BB62     		str	r3, [r7, #40]
 1699 0084 17E0     		b	.L107
 1700              	.L110:
1428:Generated_Source\PSoC4/CyLib.c ****                 }
1429:Generated_Source\PSoC4/CyLib.c ****                 else if (maxAmplitude < CY_SYS_CLK_ECO_AMPL_FOR_ATRIM4)
 1701              		.loc 1 1429 0
 1702 0086 3A68     		ldr	r2, [r7]
 1703 0088 8023     		mov	r3, #128
 1704 008a DB00     		lsl	r3, r3, #3
 1705 008c 9A42     		cmp	r2, r3
 1706 008e 02D8     		bhi	.L111
1430:Generated_Source\PSoC4/CyLib.c ****                 {
1431:Generated_Source\PSoC4/CyLib.c ****                     aTrim = CY_SYS_CLK_ECO_ATRIM4;
 1707              		.loc 1 1431 0
 1708 0090 0423     		mov	r3, #4
 1709 0092 BB62     		str	r3, [r7, #40]
 1710 0094 0FE0     		b	.L107
 1711              	.L111:
1432:Generated_Source\PSoC4/CyLib.c ****                 }
1433:Generated_Source\PSoC4/CyLib.c ****                 else if (maxAmplitude < CY_SYS_CLK_ECO_AMPL_FOR_ATRIM5)
 1712              		.loc 1 1433 0
 1713 0096 3B68     		ldr	r3, [r7]
 1714 0098 4B4A     		ldr	r2, .L125+28
 1715 009a 9342     		cmp	r3, r2
 1716 009c 02D8     		bhi	.L112
1434:Generated_Source\PSoC4/CyLib.c ****                 {
1435:Generated_Source\PSoC4/CyLib.c ****                     aTrim = CY_SYS_CLK_ECO_ATRIM5;
 1717              		.loc 1 1435 0
 1718 009e 0523     		mov	r3, #5
 1719 00a0 BB62     		str	r3, [r7, #40]
 1720 00a2 08E0     		b	.L107
 1721              	.L112:
1436:Generated_Source\PSoC4/CyLib.c ****                 }
1437:Generated_Source\PSoC4/CyLib.c ****                 else if (maxAmplitude < CY_SYS_CLK_ECO_AMPL_FOR_ATRIM6)
 1722              		.loc 1 1437 0
 1723 00a4 3B68     		ldr	r3, [r7]
 1724 00a6 494A     		ldr	r2, .L125+32
 1725 00a8 9342     		cmp	r3, r2
 1726 00aa 02D8     		bhi	.L113
1438:Generated_Source\PSoC4/CyLib.c ****                 {
1439:Generated_Source\PSoC4/CyLib.c ****                     aTrim = CY_SYS_CLK_ECO_ATRIM6;
 1727              		.loc 1 1439 0
 1728 00ac 0623     		mov	r3, #6
 1729 00ae BB62     		str	r3, [r7, #40]
 1730 00b0 01E0     		b	.L107
 1731              	.L113:
1440:Generated_Source\PSoC4/CyLib.c ****                 }
1441:Generated_Source\PSoC4/CyLib.c ****                 else
1442:Generated_Source\PSoC4/CyLib.c ****                 {
1443:Generated_Source\PSoC4/CyLib.c ****                     aTrim = CY_SYS_CLK_ECO_ATRIM7;
 1732              		.loc 1 1443 0
 1733 00b2 0723     		mov	r3, #7
 1734 00b4 BB62     		str	r3, [r7, #40]
 1735              	.L107:
1444:Generated_Source\PSoC4/CyLib.c ****                 }
ARM GAS  C:\Users\GREG~1.PHI\AppData\Local\Temp\cc70RmjF.s 			page 57


1445:Generated_Source\PSoC4/CyLib.c **** 
1446:Generated_Source\PSoC4/CyLib.c ****                 /* Calculate Watchdog trim. */
1447:Generated_Source\PSoC4/CyLib.c ****                 wDTrim = (maxAmplitude < CY_SYS_CLK_ECO_TRIM_BOUNDARY) ? ((maxAmplitude/200u) - 2u)
 1736              		.loc 1 1447 0
 1737 00b6 3B68     		ldr	r3, [r7]
 1738 00b8 3E4A     		ldr	r2, .L125+8
 1739 00ba 9342     		cmp	r3, r2
 1740 00bc 07D8     		bhi	.L114
 1741              		.loc 1 1447 0 is_stmt 0 discriminator 1
 1742 00be 3B68     		ldr	r3, [r7]
 1743 00c0 181C     		mov	r0, r3
 1744 00c2 C821     		mov	r1, #200
 1745 00c4 FFF7FEFF 		bl	__aeabi_uidiv
 1746 00c8 031C     		mov	r3, r0
 1747 00ca 023B     		sub	r3, r3, #2
 1748 00cc 00E0     		b	.L115
 1749              	.L114:
 1750              		.loc 1 1447 0 discriminator 2
 1751 00ce 0323     		mov	r3, #3
 1752              	.L115:
 1753              		.loc 1 1447 0 discriminator 4
 1754 00d0 FB61     		str	r3, [r7, #28]
1448:Generated_Source\PSoC4/CyLib.c **** 
1449:Generated_Source\PSoC4/CyLib.c ****                 /* Calculate amplifier gain trim. */
1450:Generated_Source\PSoC4/CyLib.c ****                 gmMin = (uint32) (((((CY_SYS_CLK_ECO_GMMIN_COEFFICIENT * freq * cLoad) / 1000) * ((
 1755              		.loc 1 1450 0 is_stmt 1 discriminator 4
 1756 00d2 FB68     		ldr	r3, [r7, #12]
 1757 00d4 BA68     		ldr	r2, [r7, #8]
 1758 00d6 5A43     		mul	r2, r3
 1759 00d8 131C     		mov	r3, r2
 1760 00da 9B00     		lsl	r3, r3, #2
 1761 00dc 9B18     		add	r3, r3, r2
 1762 00de 1B01     		lsl	r3, r3, #4
 1763 00e0 9B1A     		sub	r3, r3, r2
 1764 00e2 181C     		mov	r0, r3
 1765 00e4 FA23     		mov	r3, #250
 1766 00e6 9900     		lsl	r1, r3, #2
 1767 00e8 FFF7FEFF 		bl	__aeabi_uidiv
 1768 00ec 031C     		mov	r3, r0
 1769 00ee 1C1C     		mov	r4, r3
 1770 00f0 FB68     		ldr	r3, [r7, #12]
 1771 00f2 BA68     		ldr	r2, [r7, #8]
 1772 00f4 5343     		mul	r3, r2
 1773 00f6 7A68     		ldr	r2, [r7, #4]
 1774 00f8 5343     		mul	r3, r2
 1775 00fa 181C     		mov	r0, r3
 1776 00fc FA23     		mov	r3, #250
 1777 00fe 9900     		lsl	r1, r3, #2
 1778 0100 FFF7FEFF 		bl	__aeabi_uidiv
 1779 0104 031C     		mov	r3, r0
 1780 0106 6343     		mul	r3, r4
 1781 0108 181C     		mov	r0, r3
 1782 010a 3149     		ldr	r1, .L125+36
 1783 010c FFF7FEFF 		bl	__aeabi_uidiv
 1784 0110 031C     		mov	r3, r0
 1785 0112 BB61     		str	r3, [r7, #24]
1451:Generated_Source\PSoC4/CyLib.c ****                 if (gmMin > 3u)
ARM GAS  C:\Users\GREG~1.PHI\AppData\Local\Temp\cc70RmjF.s 			page 58


 1786              		.loc 1 1451 0 discriminator 4
 1787 0114 BB69     		ldr	r3, [r7, #24]
 1788 0116 032B     		cmp	r3, #3
 1789 0118 04D9     		bls	.L116
1452:Generated_Source\PSoC4/CyLib.c ****                 {
1453:Generated_Source\PSoC4/CyLib.c ****                     returnStatus = CYRET_BAD_PARAM;
 1790              		.loc 1 1453 0
 1791 011a 0123     		mov	r3, #1
 1792 011c FB62     		str	r3, [r7, #44]
1454:Generated_Source\PSoC4/CyLib.c ****                     gTrim = 0u;
 1793              		.loc 1 1454 0
 1794 011e 0023     		mov	r3, #0
 1795 0120 3B62     		str	r3, [r7, #32]
 1796 0122 0BE0     		b	.L117
 1797              	.L116:
1455:Generated_Source\PSoC4/CyLib.c ****                 }
1456:Generated_Source\PSoC4/CyLib.c ****                 else if (gmMin > 1u)
 1798              		.loc 1 1456 0
 1799 0124 BB69     		ldr	r3, [r7, #24]
 1800 0126 012B     		cmp	r3, #1
 1801 0128 02D9     		bls	.L118
1457:Generated_Source\PSoC4/CyLib.c ****                 {
1458:Generated_Source\PSoC4/CyLib.c ****                     gTrim = gmMin;
 1802              		.loc 1 1458 0
 1803 012a BB69     		ldr	r3, [r7, #24]
 1804 012c 3B62     		str	r3, [r7, #32]
 1805 012e 05E0     		b	.L117
 1806              	.L118:
1459:Generated_Source\PSoC4/CyLib.c ****                 }
1460:Generated_Source\PSoC4/CyLib.c ****                 else
1461:Generated_Source\PSoC4/CyLib.c ****                 {
1462:Generated_Source\PSoC4/CyLib.c ****                     gTrim = (gmMin == 1u) ? 0u : 1u;
 1807              		.loc 1 1462 0
 1808 0130 BB69     		ldr	r3, [r7, #24]
 1809 0132 013B     		sub	r3, r3, #1
 1810 0134 5A1E     		sub	r2, r3, #1
 1811 0136 9341     		sbc	r3, r3, r2
 1812 0138 DBB2     		uxtb	r3, r3
 1813 013a 3B62     		str	r3, [r7, #32]
 1814              	.L117:
1463:Generated_Source\PSoC4/CyLib.c ****                 }
1464:Generated_Source\PSoC4/CyLib.c **** 
1465:Generated_Source\PSoC4/CyLib.c ****                 /* Calculate feedback resistor trim */
1466:Generated_Source\PSoC4/CyLib.c ****                 if (freq > CY_SYS_CLK_ECO_FREQ_FOR_FTRIM0)
 1815              		.loc 1 1466 0
 1816 013c FB68     		ldr	r3, [r7, #12]
 1817 013e 254A     		ldr	r2, .L125+40
 1818 0140 9342     		cmp	r3, r2
 1819 0142 02D9     		bls	.L119
1467:Generated_Source\PSoC4/CyLib.c ****                 {
1468:Generated_Source\PSoC4/CyLib.c ****                     rTrim = CY_SYS_CLK_ECO_FTRIM0;
 1820              		.loc 1 1468 0
 1821 0144 0023     		mov	r3, #0
 1822 0146 7B62     		str	r3, [r7, #36]
 1823 0148 0FE0     		b	.L120
 1824              	.L119:
1469:Generated_Source\PSoC4/CyLib.c ****                 }
ARM GAS  C:\Users\GREG~1.PHI\AppData\Local\Temp\cc70RmjF.s 			page 59


1470:Generated_Source\PSoC4/CyLib.c ****                 else if (freq > CY_SYS_CLK_ECO_FREQ_FOR_FTRIM1)
 1825              		.loc 1 1470 0
 1826 014a FB68     		ldr	r3, [r7, #12]
 1827 014c 224A     		ldr	r2, .L125+44
 1828 014e 9342     		cmp	r3, r2
 1829 0150 02D9     		bls	.L121
1471:Generated_Source\PSoC4/CyLib.c ****                 {
1472:Generated_Source\PSoC4/CyLib.c ****                     rTrim = CY_SYS_CLK_ECO_FTRIM1;
 1830              		.loc 1 1472 0
 1831 0152 0123     		mov	r3, #1
 1832 0154 7B62     		str	r3, [r7, #36]
 1833 0156 08E0     		b	.L120
 1834              	.L121:
1473:Generated_Source\PSoC4/CyLib.c ****                 }
1474:Generated_Source\PSoC4/CyLib.c ****                 else if (freq > CY_SYS_CLK_ECO_FREQ_FOR_FTRIM2)
 1835              		.loc 1 1474 0
 1836 0158 FB68     		ldr	r3, [r7, #12]
 1837 015a 204A     		ldr	r2, .L125+48
 1838 015c 9342     		cmp	r3, r2
 1839 015e 02D9     		bls	.L122
1475:Generated_Source\PSoC4/CyLib.c ****                 {
1476:Generated_Source\PSoC4/CyLib.c ****                     rTrim = CY_SYS_CLK_ECO_FTRIM2;
 1840              		.loc 1 1476 0
 1841 0160 0223     		mov	r3, #2
 1842 0162 7B62     		str	r3, [r7, #36]
 1843 0164 01E0     		b	.L120
 1844              	.L122:
1477:Generated_Source\PSoC4/CyLib.c ****                 }
1478:Generated_Source\PSoC4/CyLib.c ****                 else
1479:Generated_Source\PSoC4/CyLib.c ****                 {
1480:Generated_Source\PSoC4/CyLib.c ****                     rTrim = CY_SYS_CLK_ECO_FTRIM3;
 1845              		.loc 1 1480 0
 1846 0166 0323     		mov	r3, #3
 1847 0168 7B62     		str	r3, [r7, #36]
 1848              	.L120:
1481:Generated_Source\PSoC4/CyLib.c ****                 }
1482:Generated_Source\PSoC4/CyLib.c **** 
1483:Generated_Source\PSoC4/CyLib.c ****                 /* Calculate filter frequency trim */
1484:Generated_Source\PSoC4/CyLib.c ****                 fTrim = rTrim;
 1849              		.loc 1 1484 0
 1850 016a 7B6A     		ldr	r3, [r7, #36]
 1851 016c 7B61     		str	r3, [r7, #20]
1485:Generated_Source\PSoC4/CyLib.c **** 
1486:Generated_Source\PSoC4/CyLib.c ****                 CySysClkConfigureEcoTrim(wDTrim, aTrim, fTrim, rTrim, gTrim);
 1852              		.loc 1 1486 0
 1853 016e F869     		ldr	r0, [r7, #28]
 1854 0170 B96A     		ldr	r1, [r7, #40]
 1855 0172 7A69     		ldr	r2, [r7, #20]
 1856 0174 7C6A     		ldr	r4, [r7, #36]
 1857 0176 3B6A     		ldr	r3, [r7, #32]
 1858 0178 0093     		str	r3, [sp]
 1859 017a 231C     		mov	r3, r4
 1860 017c FFF7FEFF 		bl	CySysClkConfigureEcoTrim
1487:Generated_Source\PSoC4/CyLib.c **** 
1488:Generated_Source\PSoC4/CyLib.c ****                 /* Automatic Gain Control (AGC) enable */
1489:Generated_Source\PSoC4/CyLib.c ****                 if (maxAmplitude < 2u)
 1861              		.loc 1 1489 0
ARM GAS  C:\Users\GREG~1.PHI\AppData\Local\Temp\cc70RmjF.s 			page 60


 1862 0180 3B68     		ldr	r3, [r7]
 1863 0182 012B     		cmp	r3, #1
 1864 0184 06D8     		bhi	.L123
1490:Generated_Source\PSoC4/CyLib.c ****                 {
1491:Generated_Source\PSoC4/CyLib.c ****                     /* The oscillation amplitude is controlled to the level selected by amplitude t
1492:Generated_Source\PSoC4/CyLib.c ****                     CY_SYS_CLK_ECO_CONFIG_REG |= CY_SYS_CLK_ECO_CONFIG_AGC_EN;
 1865              		.loc 1 1492 0
 1866 0186 164B     		ldr	r3, .L125+52
 1867 0188 154A     		ldr	r2, .L125+52
 1868 018a 1268     		ldr	r2, [r2]
 1869 018c 0221     		mov	r1, #2
 1870 018e 0A43     		orr	r2, r1
 1871 0190 1A60     		str	r2, [r3]
 1872 0192 05E0     		b	.L103
 1873              	.L123:
1493:Generated_Source\PSoC4/CyLib.c ****                 }
1494:Generated_Source\PSoC4/CyLib.c ****                 else
1495:Generated_Source\PSoC4/CyLib.c ****                 {
1496:Generated_Source\PSoC4/CyLib.c ****                     /* The amplitude is not explicitly controlled and will grow until it saturates 
1497:Generated_Source\PSoC4/CyLib.c ****                     * supply rail (1.8V nom).
1498:Generated_Source\PSoC4/CyLib.c ****                     */
1499:Generated_Source\PSoC4/CyLib.c ****                     CY_SYS_CLK_ECO_CONFIG_REG &= (uint32) ~CY_SYS_CLK_ECO_CONFIG_AGC_EN;
 1874              		.loc 1 1499 0
 1875 0194 124B     		ldr	r3, .L125+52
 1876 0196 124A     		ldr	r2, .L125+52
 1877 0198 1268     		ldr	r2, [r2]
 1878 019a 0221     		mov	r1, #2
 1879 019c 8A43     		bic	r2, r1
 1880 019e 1A60     		str	r2, [r3]
 1881              	.L103:
1500:Generated_Source\PSoC4/CyLib.c ****                 }
1501:Generated_Source\PSoC4/CyLib.c ****             }
1502:Generated_Source\PSoC4/CyLib.c **** 
1503:Generated_Source\PSoC4/CyLib.c ****             return (returnStatus);
 1882              		.loc 1 1503 0
 1883 01a0 FB6A     		ldr	r3, [r7, #44]
1504:Generated_Source\PSoC4/CyLib.c ****         }
 1884              		.loc 1 1504 0
 1885 01a2 181C     		mov	r0, r3
 1886 01a4 BD46     		mov	sp, r7
 1887 01a6 0DB0     		add	sp, sp, #52
 1888              		@ sp needed
 1889 01a8 90BD     		pop	{r4, r7, pc}
 1890              	.L126:
 1891 01aa C046     		.align	2
 1892              	.L125:
 1893 01ac 9F0F0000 		.word	3999
 1894 01b0 35820000 		.word	33333
 1895 01b4 AF040000 		.word	1199
 1896 01b8 57020000 		.word	599
 1897 01bc BB020000 		.word	699
 1898 01c0 1F030000 		.word	799
 1899 01c4 83030000 		.word	899
 1900 01c8 7D040000 		.word	1149
 1901 01cc FA040000 		.word	1274
 1902 01d0 8074D21A 		.word	450000000
 1903 01d4 30750000 		.word	30000
ARM GAS  C:\Users\GREG~1.PHI\AppData\Local\Temp\cc70RmjF.s 			page 61


 1904 01d8 C05D0000 		.word	24000
 1905 01dc 68420000 		.word	17000
 1906 01e0 08000C40 		.word	1074528264
 1907              		.cfi_endproc
 1908              	.LFE18:
 1909              		.size	CySysClkConfigureEcoDrive, .-CySysClkConfigureEcoDrive
 1910              		.section	.text.CySysClkPllStart,"ax",%progbits
 1911              		.align	2
 1912              		.global	CySysClkPllStart
 1913              		.code	16
 1914              		.thumb_func
 1915              		.type	CySysClkPllStart, %function
 1916              	CySysClkPllStart:
 1917              	.LFB19:
1505:Generated_Source\PSoC4/CyLib.c **** 
1506:Generated_Source\PSoC4/CyLib.c ****     #endif /* CY_IP_ECO_BLESS */
1507:Generated_Source\PSoC4/CyLib.c **** 
1508:Generated_Source\PSoC4/CyLib.c **** #endif /* (CY_IP_ECO) */
1509:Generated_Source\PSoC4/CyLib.c **** 
1510:Generated_Source\PSoC4/CyLib.c **** 
1511:Generated_Source\PSoC4/CyLib.c **** #if (CY_IP_SRSSV2 && CY_IP_PLL)
1512:Generated_Source\PSoC4/CyLib.c ****     /*******************************************************************************
1513:Generated_Source\PSoC4/CyLib.c ****     * Function Name: CySysClkPllStart
1514:Generated_Source\PSoC4/CyLib.c ****     ****************************************************************************//**
1515:Generated_Source\PSoC4/CyLib.c ****     *
1516:Generated_Source\PSoC4/CyLib.c ****     * Enables the PLL. Optionally waits for it to become stable. Waits at least
1517:Generated_Source\PSoC4/CyLib.c ****     * 250 us or until it is detected that the PLL is stable.
1518:Generated_Source\PSoC4/CyLib.c ****     *
1519:Generated_Source\PSoC4/CyLib.c ****     * Clears the unlock occurred status bit by calling CySysClkPllGetUnlockStatus(),
1520:Generated_Source\PSoC4/CyLib.c ****     * once the PLL is locked if the wait parameter is 1).
1521:Generated_Source\PSoC4/CyLib.c ****     *
1522:Generated_Source\PSoC4/CyLib.c ****     * This API is available only for PSoC 4200L devices.
1523:Generated_Source\PSoC4/CyLib.c ****     *
1524:Generated_Source\PSoC4/CyLib.c ****     * \param PLL:
1525:Generated_Source\PSoC4/CyLib.c ****     * 0   PLL#0
1526:Generated_Source\PSoC4/CyLib.c ****     * 1   PLL#1
1527:Generated_Source\PSoC4/CyLib.c ****     *
1528:Generated_Source\PSoC4/CyLib.c ****     * \param wait:
1529:Generated_Source\PSoC4/CyLib.c ****     * 0 - Return immediately after configuration.
1530:Generated_Source\PSoC4/CyLib.c ****     * 1 - Wait for PLL lock or timeout. This API shall use the CyDelayUs() to
1531:Generated_Source\PSoC4/CyLib.c ****     * implement the timeout feature.
1532:Generated_Source\PSoC4/CyLib.c ****     *
1533:Generated_Source\PSoC4/CyLib.c ****     * \return CYRET_SUCCESS Completed successfully.
1534:Generated_Source\PSoC4/CyLib.c ****     * \return CYRET_TIMEOUT The timeout occurred without detecting a stable clock.
1535:Generated_Source\PSoC4/CyLib.c ****     * If the input source of the clock is jittery, then the lock indication may
1536:Generated_Source\PSoC4/CyLib.c ****     * not occur. However, after the timeout has expired, the generated PLL clock can
1537:Generated_Source\PSoC4/CyLib.c ****     * still be used.
1538:Generated_Source\PSoC4/CyLib.c ****     * \return CYRET_BAD_PARAM - Either the PLL or wait parameter is invalid.
1539:Generated_Source\PSoC4/CyLib.c ****     *
1540:Generated_Source\PSoC4/CyLib.c ****     *******************************************************************************/
1541:Generated_Source\PSoC4/CyLib.c ****     cystatus CySysClkPllStart(uint32 pll, uint32 wait)
1542:Generated_Source\PSoC4/CyLib.c ****     {
 1918              		.loc 1 1542 0
 1919              		.cfi_startproc
 1920 0000 90B5     		push	{r4, r7, lr}
 1921              		.cfi_def_cfa_offset 12
 1922              		.cfi_offset 4, -12
ARM GAS  C:\Users\GREG~1.PHI\AppData\Local\Temp\cc70RmjF.s 			page 62


 1923              		.cfi_offset 7, -8
 1924              		.cfi_offset 14, -4
 1925 0002 87B0     		sub	sp, sp, #28
 1926              		.cfi_def_cfa_offset 40
 1927 0004 00AF     		add	r7, sp, #0
 1928              		.cfi_def_cfa_register 7
 1929 0006 7860     		str	r0, [r7, #4]
 1930 0008 3960     		str	r1, [r7]
1543:Generated_Source\PSoC4/CyLib.c ****         uint32 counts = CY_SYS_CLK_PLL_MAX_STARTUP_US;
 1931              		.loc 1 1543 0
 1932 000a FF23     		mov	r3, #255
 1933 000c 7B61     		str	r3, [r7, #20]
1544:Generated_Source\PSoC4/CyLib.c ****         uint8  interruptState;
1545:Generated_Source\PSoC4/CyLib.c ****         cystatus returnStatus = CYRET_SUCCESS;
 1934              		.loc 1 1545 0
 1935 000e 0023     		mov	r3, #0
 1936 0010 3B61     		str	r3, [r7, #16]
1546:Generated_Source\PSoC4/CyLib.c **** 
1547:Generated_Source\PSoC4/CyLib.c ****         if((pll < CY_IP_PLL_NR) && (wait <= 1u))
 1937              		.loc 1 1547 0
 1938 0012 7B68     		ldr	r3, [r7, #4]
 1939 0014 012B     		cmp	r3, #1
 1940 0016 6FD8     		bhi	.L128
 1941              		.loc 1 1547 0 is_stmt 0 discriminator 1
 1942 0018 3B68     		ldr	r3, [r7]
 1943 001a 012B     		cmp	r3, #1
 1944 001c 6CD8     		bhi	.L128
1548:Generated_Source\PSoC4/CyLib.c ****         {
1549:Generated_Source\PSoC4/CyLib.c ****             interruptState = CyEnterCriticalSection();
 1945              		.loc 1 1549 0 is_stmt 1
 1946 001e 0F23     		mov	r3, #15
 1947 0020 FC18     		add	r4, r7, r3
 1948 0022 FFF7FEFF 		bl	CyEnterCriticalSection
 1949 0026 031C     		mov	r3, r0
 1950 0028 2370     		strb	r3, [r4]
1550:Generated_Source\PSoC4/CyLib.c **** 
1551:Generated_Source\PSoC4/CyLib.c ****             /* Isolate PLL outputs */
1552:Generated_Source\PSoC4/CyLib.c ****             CY_SYS_CLK_PLL_BASE.pll[pll].config &= (uint32) ~CY_SYS_CLK_PLL_CONFIG_ISOLATE;
 1951              		.loc 1 1552 0
 1952 002a 3748     		ldr	r0, .L135
 1953 002c 3649     		ldr	r1, .L135
 1954 002e 7A68     		ldr	r2, [r7, #4]
 1955 0030 131C     		mov	r3, r2
 1956 0032 5B00     		lsl	r3, r3, #1
 1957 0034 9B18     		add	r3, r3, r2
 1958 0036 9B00     		lsl	r3, r3, #2
 1959 0038 5B58     		ldr	r3, [r3, r1]
 1960 003a 344A     		ldr	r2, .L135+4
 1961 003c 1340     		and	r3, r2
 1962 003e 191C     		mov	r1, r3
 1963 0040 7A68     		ldr	r2, [r7, #4]
 1964 0042 131C     		mov	r3, r2
 1965 0044 5B00     		lsl	r3, r3, #1
 1966 0046 9B18     		add	r3, r3, r2
 1967 0048 9B00     		lsl	r3, r3, #2
 1968 004a 1950     		str	r1, [r3, r0]
1553:Generated_Source\PSoC4/CyLib.c **** 
ARM GAS  C:\Users\GREG~1.PHI\AppData\Local\Temp\cc70RmjF.s 			page 63


1554:Generated_Source\PSoC4/CyLib.c ****             /* Enable PLL */
1555:Generated_Source\PSoC4/CyLib.c ****             CY_SYS_CLK_PLL_BASE.pll[pll].config |= CY_SYS_CLK_PLL_CONFIG_ENABLE;
 1969              		.loc 1 1555 0
 1970 004c 2E48     		ldr	r0, .L135
 1971 004e 2E49     		ldr	r1, .L135
 1972 0050 7A68     		ldr	r2, [r7, #4]
 1973 0052 131C     		mov	r3, r2
 1974 0054 5B00     		lsl	r3, r3, #1
 1975 0056 9B18     		add	r3, r3, r2
 1976 0058 9B00     		lsl	r3, r3, #2
 1977 005a 5B58     		ldr	r3, [r3, r1]
 1978 005c 8022     		mov	r2, #128
 1979 005e 1206     		lsl	r2, r2, #24
 1980 0060 1A43     		orr	r2, r3
 1981 0062 111C     		mov	r1, r2
 1982 0064 7A68     		ldr	r2, [r7, #4]
 1983 0066 131C     		mov	r3, r2
 1984 0068 5B00     		lsl	r3, r3, #1
 1985 006a 9B18     		add	r3, r3, r2
 1986 006c 9B00     		lsl	r3, r3, #2
 1987 006e 1950     		str	r1, [r3, r0]
1556:Generated_Source\PSoC4/CyLib.c **** 
1557:Generated_Source\PSoC4/CyLib.c ****             CyExitCriticalSection(interruptState);
 1988              		.loc 1 1557 0
 1989 0070 0F23     		mov	r3, #15
 1990 0072 FB18     		add	r3, r7, r3
 1991 0074 1B78     		ldrb	r3, [r3]
 1992 0076 181C     		mov	r0, r3
 1993 0078 FFF7FEFF 		bl	CyExitCriticalSection
1558:Generated_Source\PSoC4/CyLib.c **** 
1559:Generated_Source\PSoC4/CyLib.c ****             /* De-isolate >= CY_SYS_CLK_PLL_MIN_STARTUP_US after PLL enabled */
1560:Generated_Source\PSoC4/CyLib.c ****             CyDelayUs(CY_SYS_CLK_PLL_MIN_STARTUP_US);
 1994              		.loc 1 1560 0
 1995 007c 0520     		mov	r0, #5
 1996 007e FFF7FEFF 		bl	CyDelayUs
1561:Generated_Source\PSoC4/CyLib.c ****             interruptState = CyEnterCriticalSection();
 1997              		.loc 1 1561 0
 1998 0082 0F23     		mov	r3, #15
 1999 0084 FC18     		add	r4, r7, r3
 2000 0086 FFF7FEFF 		bl	CyEnterCriticalSection
 2001 008a 031C     		mov	r3, r0
 2002 008c 2370     		strb	r3, [r4]
1562:Generated_Source\PSoC4/CyLib.c ****             CY_SYS_CLK_PLL_BASE.pll[pll].config |= CY_SYS_CLK_PLL_CONFIG_ISOLATE;
 2003              		.loc 1 1562 0
 2004 008e 1E48     		ldr	r0, .L135
 2005 0090 1D49     		ldr	r1, .L135
 2006 0092 7A68     		ldr	r2, [r7, #4]
 2007 0094 131C     		mov	r3, r2
 2008 0096 5B00     		lsl	r3, r3, #1
 2009 0098 9B18     		add	r3, r3, r2
 2010 009a 9B00     		lsl	r3, r3, #2
 2011 009c 5B58     		ldr	r3, [r3, r1]
 2012 009e 8022     		mov	r2, #128
 2013 00a0 D205     		lsl	r2, r2, #23
 2014 00a2 1A43     		orr	r2, r3
 2015 00a4 111C     		mov	r1, r2
 2016 00a6 7A68     		ldr	r2, [r7, #4]
ARM GAS  C:\Users\GREG~1.PHI\AppData\Local\Temp\cc70RmjF.s 			page 64


 2017 00a8 131C     		mov	r3, r2
 2018 00aa 5B00     		lsl	r3, r3, #1
 2019 00ac 9B18     		add	r3, r3, r2
 2020 00ae 9B00     		lsl	r3, r3, #2
 2021 00b0 1950     		str	r1, [r3, r0]
1563:Generated_Source\PSoC4/CyLib.c ****             CyExitCriticalSection(interruptState);
 2022              		.loc 1 1563 0
 2023 00b2 0F23     		mov	r3, #15
 2024 00b4 FB18     		add	r3, r7, r3
 2025 00b6 1B78     		ldrb	r3, [r3]
 2026 00b8 181C     		mov	r0, r3
 2027 00ba FFF7FEFF 		bl	CyExitCriticalSection
1564:Generated_Source\PSoC4/CyLib.c **** 
1565:Generated_Source\PSoC4/CyLib.c ****             if(wait != 0u)
 2028              		.loc 1 1565 0
 2029 00be 3B68     		ldr	r3, [r7]
 2030 00c0 002B     		cmp	r3, #0
 2031 00c2 18D0     		beq	.L129
1566:Generated_Source\PSoC4/CyLib.c ****             {
1567:Generated_Source\PSoC4/CyLib.c ****                 returnStatus = CYRET_TIMEOUT;
 2032              		.loc 1 1567 0
 2033 00c4 1023     		mov	r3, #16
 2034 00c6 3B61     		str	r3, [r7, #16]
1568:Generated_Source\PSoC4/CyLib.c **** 
1569:Generated_Source\PSoC4/CyLib.c ****                 while(0u != counts)
 2035              		.loc 1 1569 0
 2036 00c8 12E0     		b	.L130
 2037              	.L132:
1570:Generated_Source\PSoC4/CyLib.c ****                 {
1571:Generated_Source\PSoC4/CyLib.c **** 
1572:Generated_Source\PSoC4/CyLib.c ****                     if(0u != CySysClkPllGetLockStatus(pll))
 2038              		.loc 1 1572 0
 2039 00ca 7B68     		ldr	r3, [r7, #4]
 2040 00cc 181C     		mov	r0, r3
 2041 00ce FFF7FEFF 		bl	CySysClkPllGetLockStatus
 2042 00d2 031E     		sub	r3, r0, #0
 2043 00d4 06D0     		beq	.L131
1573:Generated_Source\PSoC4/CyLib.c ****                     {
1574:Generated_Source\PSoC4/CyLib.c ****                         returnStatus = CYRET_SUCCESS;
 2044              		.loc 1 1574 0
 2045 00d6 0023     		mov	r3, #0
 2046 00d8 3B61     		str	r3, [r7, #16]
1575:Generated_Source\PSoC4/CyLib.c ****                         (void) CySysClkPllGetUnlockStatus(pll);
 2047              		.loc 1 1575 0
 2048 00da 7B68     		ldr	r3, [r7, #4]
 2049 00dc 181C     		mov	r0, r3
 2050 00de FFF7FEFF 		bl	CySysClkPllGetUnlockStatus
1576:Generated_Source\PSoC4/CyLib.c ****                         break;
 2051              		.loc 1 1576 0
 2052 00e2 08E0     		b	.L129
 2053              	.L131:
1577:Generated_Source\PSoC4/CyLib.c ****                     }
1578:Generated_Source\PSoC4/CyLib.c **** 
1579:Generated_Source\PSoC4/CyLib.c ****                     CyDelayUs(1u);
 2054              		.loc 1 1579 0
 2055 00e4 0120     		mov	r0, #1
 2056 00e6 FFF7FEFF 		bl	CyDelayUs
ARM GAS  C:\Users\GREG~1.PHI\AppData\Local\Temp\cc70RmjF.s 			page 65


1580:Generated_Source\PSoC4/CyLib.c ****                     counts--;
 2057              		.loc 1 1580 0
 2058 00ea 7B69     		ldr	r3, [r7, #20]
 2059 00ec 013B     		sub	r3, r3, #1
 2060 00ee 7B61     		str	r3, [r7, #20]
 2061              	.L130:
1569:Generated_Source\PSoC4/CyLib.c ****                 {
 2062              		.loc 1 1569 0
 2063 00f0 7B69     		ldr	r3, [r7, #20]
 2064 00f2 002B     		cmp	r3, #0
 2065 00f4 E9D1     		bne	.L132
 2066              	.L129:
1565:Generated_Source\PSoC4/CyLib.c ****             {
 2067              		.loc 1 1565 0
 2068 00f6 01E0     		b	.L133
 2069              	.L128:
1581:Generated_Source\PSoC4/CyLib.c ****                 }
1582:Generated_Source\PSoC4/CyLib.c ****             }
1583:Generated_Source\PSoC4/CyLib.c ****         }
1584:Generated_Source\PSoC4/CyLib.c ****         else
1585:Generated_Source\PSoC4/CyLib.c ****         {
1586:Generated_Source\PSoC4/CyLib.c ****             returnStatus = CYRET_BAD_PARAM;
 2070              		.loc 1 1586 0
 2071 00f8 0123     		mov	r3, #1
 2072 00fa 3B61     		str	r3, [r7, #16]
 2073              	.L133:
1587:Generated_Source\PSoC4/CyLib.c ****         }
1588:Generated_Source\PSoC4/CyLib.c **** 
1589:Generated_Source\PSoC4/CyLib.c ****         return (returnStatus);
 2074              		.loc 1 1589 0
 2075 00fc 3B69     		ldr	r3, [r7, #16]
1590:Generated_Source\PSoC4/CyLib.c ****     }
 2076              		.loc 1 1590 0
 2077 00fe 181C     		mov	r0, r3
 2078 0100 BD46     		mov	sp, r7
 2079 0102 07B0     		add	sp, sp, #28
 2080              		@ sp needed
 2081 0104 90BD     		pop	{r4, r7, pc}
 2082              	.L136:
 2083 0106 C046     		.align	2
 2084              	.L135:
 2085 0108 14000C40 		.word	1074528276
 2086 010c FFFFFFBF 		.word	-1073741825
 2087              		.cfi_endproc
 2088              	.LFE19:
 2089              		.size	CySysClkPllStart, .-CySysClkPllStart
 2090              		.section	.text.CySysClkPllGetLockStatus,"ax",%progbits
 2091              		.align	2
 2092              		.global	CySysClkPllGetLockStatus
 2093              		.code	16
 2094              		.thumb_func
 2095              		.type	CySysClkPllGetLockStatus, %function
 2096              	CySysClkPllGetLockStatus:
 2097              	.LFB20:
1591:Generated_Source\PSoC4/CyLib.c **** 
1592:Generated_Source\PSoC4/CyLib.c **** 
1593:Generated_Source\PSoC4/CyLib.c ****     /*******************************************************************************
ARM GAS  C:\Users\GREG~1.PHI\AppData\Local\Temp\cc70RmjF.s 			page 66


1594:Generated_Source\PSoC4/CyLib.c ****     * Function Name: CySysClkPllGetLockStatus
1595:Generated_Source\PSoC4/CyLib.c ****     ****************************************************************************//**
1596:Generated_Source\PSoC4/CyLib.c ****     *
1597:Generated_Source\PSoC4/CyLib.c ****     * Returns non-zero if the output of the specified PLL output is locked.
1598:Generated_Source\PSoC4/CyLib.c ****     *
1599:Generated_Source\PSoC4/CyLib.c ****     * This API is available only for PSoC 4200L devices.
1600:Generated_Source\PSoC4/CyLib.c ****     *
1601:Generated_Source\PSoC4/CyLib.c ****     * PLL:
1602:Generated_Source\PSoC4/CyLib.c ****     *  0   PLL#0
1603:Generated_Source\PSoC4/CyLib.c ****     *  1   PLL#1
1604:Generated_Source\PSoC4/CyLib.c ****     *
1605:Generated_Source\PSoC4/CyLib.c ****     * \return A non-zero value when the specified PLL is locked.
1606:Generated_Source\PSoC4/CyLib.c ****     *
1607:Generated_Source\PSoC4/CyLib.c ****     *******************************************************************************/
1608:Generated_Source\PSoC4/CyLib.c ****     uint32 CySysClkPllGetLockStatus(uint32 pll)
1609:Generated_Source\PSoC4/CyLib.c ****     {
 2098              		.loc 1 1609 0
 2099              		.cfi_startproc
 2100 0000 90B5     		push	{r4, r7, lr}
 2101              		.cfi_def_cfa_offset 12
 2102              		.cfi_offset 4, -12
 2103              		.cfi_offset 7, -8
 2104              		.cfi_offset 14, -4
 2105 0002 85B0     		sub	sp, sp, #20
 2106              		.cfi_def_cfa_offset 32
 2107 0004 00AF     		add	r7, sp, #0
 2108              		.cfi_def_cfa_register 7
 2109 0006 7860     		str	r0, [r7, #4]
1610:Generated_Source\PSoC4/CyLib.c ****         uint8  interruptState;
1611:Generated_Source\PSoC4/CyLib.c ****         uint32 returnStatus;
1612:Generated_Source\PSoC4/CyLib.c **** 
1613:Generated_Source\PSoC4/CyLib.c ****         CYASSERT(pll < CY_IP_PLL_NR);
 2110              		.loc 1 1613 0
 2111 0008 7B68     		ldr	r3, [r7, #4]
 2112 000a 012B     		cmp	r3, #1
 2113 000c 02D9     		bls	.L138
 2114              		.loc 1 1613 0 is_stmt 0 discriminator 1
 2115 000e 0020     		mov	r0, #0
 2116 0010 FFF7FEFF 		bl	CyHalt
 2117              	.L138:
1614:Generated_Source\PSoC4/CyLib.c **** 
1615:Generated_Source\PSoC4/CyLib.c ****         interruptState = CyEnterCriticalSection();
 2118              		.loc 1 1615 0 is_stmt 1
 2119 0014 0B23     		mov	r3, #11
 2120 0016 FC18     		add	r4, r7, r3
 2121 0018 FFF7FEFF 		bl	CyEnterCriticalSection
 2122 001c 031C     		mov	r3, r0
 2123 001e 2370     		strb	r3, [r4]
1616:Generated_Source\PSoC4/CyLib.c **** 
1617:Generated_Source\PSoC4/CyLib.c ****         /* PLL is locked if reported so for two consecutive read. */
1618:Generated_Source\PSoC4/CyLib.c ****         returnStatus = CY_SYS_CLK_PLL_BASE.pll[pll].status & CY_SYS_CLK_PLL_STATUS_LOCKED;
 2124              		.loc 1 1618 0
 2125 0020 1149     		ldr	r1, .L141
 2126 0022 7A68     		ldr	r2, [r7, #4]
 2127 0024 131C     		mov	r3, r2
 2128 0026 5B00     		lsl	r3, r3, #1
 2129 0028 9B18     		add	r3, r3, r2
ARM GAS  C:\Users\GREG~1.PHI\AppData\Local\Temp\cc70RmjF.s 			page 67


 2130 002a 9B00     		lsl	r3, r3, #2
 2131 002c CB18     		add	r3, r1, r3
 2132 002e 5B68     		ldr	r3, [r3, #4]
 2133 0030 0122     		mov	r2, #1
 2134 0032 1340     		and	r3, r2
 2135 0034 FB60     		str	r3, [r7, #12]
1619:Generated_Source\PSoC4/CyLib.c ****         if(0u != returnStatus)
 2136              		.loc 1 1619 0
 2137 0036 FB68     		ldr	r3, [r7, #12]
 2138 0038 002B     		cmp	r3, #0
 2139 003a 0AD0     		beq	.L139
1620:Generated_Source\PSoC4/CyLib.c ****         {
1621:Generated_Source\PSoC4/CyLib.c ****             returnStatus = CY_SYS_CLK_PLL_BASE.pll[pll].status & CY_SYS_CLK_PLL_STATUS_LOCKED;
 2140              		.loc 1 1621 0
 2141 003c 0A49     		ldr	r1, .L141
 2142 003e 7A68     		ldr	r2, [r7, #4]
 2143 0040 131C     		mov	r3, r2
 2144 0042 5B00     		lsl	r3, r3, #1
 2145 0044 9B18     		add	r3, r3, r2
 2146 0046 9B00     		lsl	r3, r3, #2
 2147 0048 CB18     		add	r3, r1, r3
 2148 004a 5B68     		ldr	r3, [r3, #4]
 2149 004c 0122     		mov	r2, #1
 2150 004e 1340     		and	r3, r2
 2151 0050 FB60     		str	r3, [r7, #12]
 2152              	.L139:
1622:Generated_Source\PSoC4/CyLib.c ****         }
1623:Generated_Source\PSoC4/CyLib.c **** 
1624:Generated_Source\PSoC4/CyLib.c ****         CyExitCriticalSection(interruptState);
 2153              		.loc 1 1624 0
 2154 0052 0B23     		mov	r3, #11
 2155 0054 FB18     		add	r3, r7, r3
 2156 0056 1B78     		ldrb	r3, [r3]
 2157 0058 181C     		mov	r0, r3
 2158 005a FFF7FEFF 		bl	CyExitCriticalSection
1625:Generated_Source\PSoC4/CyLib.c **** 
1626:Generated_Source\PSoC4/CyLib.c ****         return (returnStatus);
 2159              		.loc 1 1626 0
 2160 005e FB68     		ldr	r3, [r7, #12]
1627:Generated_Source\PSoC4/CyLib.c ****     }
 2161              		.loc 1 1627 0
 2162 0060 181C     		mov	r0, r3
 2163 0062 BD46     		mov	sp, r7
 2164 0064 05B0     		add	sp, sp, #20
 2165              		@ sp needed
 2166 0066 90BD     		pop	{r4, r7, pc}
 2167              	.L142:
 2168              		.align	2
 2169              	.L141:
 2170 0068 14000C40 		.word	1074528276
 2171              		.cfi_endproc
 2172              	.LFE20:
 2173              		.size	CySysClkPllGetLockStatus, .-CySysClkPllGetLockStatus
 2174              		.section	.text.CySysClkPllStop,"ax",%progbits
 2175              		.align	2
 2176              		.global	CySysClkPllStop
 2177              		.code	16
ARM GAS  C:\Users\GREG~1.PHI\AppData\Local\Temp\cc70RmjF.s 			page 68


 2178              		.thumb_func
 2179              		.type	CySysClkPllStop, %function
 2180              	CySysClkPllStop:
 2181              	.LFB21:
1628:Generated_Source\PSoC4/CyLib.c **** 
1629:Generated_Source\PSoC4/CyLib.c ****     /*******************************************************************************
1630:Generated_Source\PSoC4/CyLib.c ****     * Function Name: CySysClkPllStop
1631:Generated_Source\PSoC4/CyLib.c ****     ****************************************************************************//**
1632:Generated_Source\PSoC4/CyLib.c ****     *
1633:Generated_Source\PSoC4/CyLib.c ****     * Disables the PLL.
1634:Generated_Source\PSoC4/CyLib.c ****     *
1635:Generated_Source\PSoC4/CyLib.c ****     * Ensures that either PLL is not the source of HFCLK before it is disabled,
1636:Generated_Source\PSoC4/CyLib.c ****     * otherwise, the CPU will halt.
1637:Generated_Source\PSoC4/CyLib.c ****     *
1638:Generated_Source\PSoC4/CyLib.c ****     * This API is available only for PSoC 4200L devices.
1639:Generated_Source\PSoC4/CyLib.c ****     *
1640:Generated_Source\PSoC4/CyLib.c ****     * PLL:
1641:Generated_Source\PSoC4/CyLib.c ****     *  0   PLL#0
1642:Generated_Source\PSoC4/CyLib.c ****     *  1   PLL#1
1643:Generated_Source\PSoC4/CyLib.c ****     *
1644:Generated_Source\PSoC4/CyLib.c ****     *******************************************************************************/
1645:Generated_Source\PSoC4/CyLib.c ****     void CySysClkPllStop(uint32 pll)
1646:Generated_Source\PSoC4/CyLib.c ****     {
 2182              		.loc 1 1646 0
 2183              		.cfi_startproc
 2184 0000 90B5     		push	{r4, r7, lr}
 2185              		.cfi_def_cfa_offset 12
 2186              		.cfi_offset 4, -12
 2187              		.cfi_offset 7, -8
 2188              		.cfi_offset 14, -4
 2189 0002 85B0     		sub	sp, sp, #20
 2190              		.cfi_def_cfa_offset 32
 2191 0004 00AF     		add	r7, sp, #0
 2192              		.cfi_def_cfa_register 7
 2193 0006 7860     		str	r0, [r7, #4]
1647:Generated_Source\PSoC4/CyLib.c ****         uint8  interruptState;
1648:Generated_Source\PSoC4/CyLib.c **** 
1649:Generated_Source\PSoC4/CyLib.c ****         if (pll < CY_IP_PLL_NR)
 2194              		.loc 1 1649 0
 2195 0008 7B68     		ldr	r3, [r7, #4]
 2196 000a 012B     		cmp	r3, #1
 2197 000c 1BD8     		bhi	.L143
1650:Generated_Source\PSoC4/CyLib.c ****         {
1651:Generated_Source\PSoC4/CyLib.c ****             interruptState = CyEnterCriticalSection();
 2198              		.loc 1 1651 0
 2199 000e 0F23     		mov	r3, #15
 2200 0010 FC18     		add	r4, r7, r3
 2201 0012 FFF7FEFF 		bl	CyEnterCriticalSection
 2202 0016 031C     		mov	r3, r0
 2203 0018 2370     		strb	r3, [r4]
1652:Generated_Source\PSoC4/CyLib.c ****             CY_SYS_CLK_PLL_BASE.pll[pll].config &= (uint32) ~(CY_SYS_CLK_PLL_CONFIG_ISOLATE | CY_SY
 2204              		.loc 1 1652 0
 2205 001a 0C48     		ldr	r0, .L145
 2206 001c 0B49     		ldr	r1, .L145
 2207 001e 7A68     		ldr	r2, [r7, #4]
 2208 0020 131C     		mov	r3, r2
 2209 0022 5B00     		lsl	r3, r3, #1
ARM GAS  C:\Users\GREG~1.PHI\AppData\Local\Temp\cc70RmjF.s 			page 69


 2210 0024 9B18     		add	r3, r3, r2
 2211 0026 9B00     		lsl	r3, r3, #2
 2212 0028 5B58     		ldr	r3, [r3, r1]
 2213 002a 9B00     		lsl	r3, r3, #2
 2214 002c 9908     		lsr	r1, r3, #2
 2215 002e 7A68     		ldr	r2, [r7, #4]
 2216 0030 131C     		mov	r3, r2
 2217 0032 5B00     		lsl	r3, r3, #1
 2218 0034 9B18     		add	r3, r3, r2
 2219 0036 9B00     		lsl	r3, r3, #2
 2220 0038 1950     		str	r1, [r3, r0]
1653:Generated_Source\PSoC4/CyLib.c ****             CyExitCriticalSection(interruptState);
 2221              		.loc 1 1653 0
 2222 003a 0F23     		mov	r3, #15
 2223 003c FB18     		add	r3, r7, r3
 2224 003e 1B78     		ldrb	r3, [r3]
 2225 0040 181C     		mov	r0, r3
 2226 0042 FFF7FEFF 		bl	CyExitCriticalSection
 2227              	.L143:
1654:Generated_Source\PSoC4/CyLib.c ****         }
1655:Generated_Source\PSoC4/CyLib.c ****     }
 2228              		.loc 1 1655 0
 2229 0046 BD46     		mov	sp, r7
 2230 0048 05B0     		add	sp, sp, #20
 2231              		@ sp needed
 2232 004a 90BD     		pop	{r4, r7, pc}
 2233              	.L146:
 2234              		.align	2
 2235              	.L145:
 2236 004c 14000C40 		.word	1074528276
 2237              		.cfi_endproc
 2238              	.LFE21:
 2239              		.size	CySysClkPllStop, .-CySysClkPllStop
 2240              		.section	.text.CySysClkPllSetPQ,"ax",%progbits
 2241              		.align	2
 2242              		.global	CySysClkPllSetPQ
 2243              		.code	16
 2244              		.thumb_func
 2245              		.type	CySysClkPllSetPQ, %function
 2246              	CySysClkPllSetPQ:
 2247              	.LFB22:
1656:Generated_Source\PSoC4/CyLib.c **** 
1657:Generated_Source\PSoC4/CyLib.c **** 
1658:Generated_Source\PSoC4/CyLib.c ****     /*******************************************************************************
1659:Generated_Source\PSoC4/CyLib.c ****     * Function Name: CySysClkPllSetPQ
1660:Generated_Source\PSoC4/CyLib.c ****     ****************************************************************************//**
1661:Generated_Source\PSoC4/CyLib.c ****     *
1662:Generated_Source\PSoC4/CyLib.c ****     * Sets feedback (P) and reference the (Q) divider value. This API also sets the
1663:Generated_Source\PSoC4/CyLib.c ****     * programmable charge pump current value. Note that the PLL has to be disabled
1664:Generated_Source\PSoC4/CyLib.c ****     * before calling this API. If this function is called while any PLL is sourcing,
1665:Generated_Source\PSoC4/CyLib.c ****     * the SYSCLK will return an error.
1666:Generated_Source\PSoC4/CyLib.c ****     *
1667:Generated_Source\PSoC4/CyLib.c ****     * The PLL must not be the system clock source when calling this function. The
1668:Generated_Source\PSoC4/CyLib.c ****     * PLL output will glitch during this function call.
1669:Generated_Source\PSoC4/CyLib.c ****     *
1670:Generated_Source\PSoC4/CyLib.c ****     * This API is available only for PSoC 4200L devices.
1671:Generated_Source\PSoC4/CyLib.c ****     *
ARM GAS  C:\Users\GREG~1.PHI\AppData\Local\Temp\cc70RmjF.s 			page 70


1672:Generated_Source\PSoC4/CyLib.c ****     * \param PLL:
1673:Generated_Source\PSoC4/CyLib.c ****     *  0   PLL#0
1674:Generated_Source\PSoC4/CyLib.c ****     *  1   PLL#1
1675:Generated_Source\PSoC4/CyLib.c ****     *
1676:Generated_Source\PSoC4/CyLib.c ****     * \param feedback The P divider. Range 4 - 259. Control bits for the feedback
1677:Generated_Source\PSoC4/CyLib.c ****     * divider.
1678:Generated_Source\PSoC4/CyLib.c ****     *
1679:Generated_Source\PSoC4/CyLib.c ****     * \param reference The Q divider. Range 1 - 64. Divide by the reference.
1680:Generated_Source\PSoC4/CyLib.c ****     *
1681:Generated_Source\PSoC4/CyLib.c ****     * \param current Charge the pump current in uA. The 2 uA for output frequencies
1682:Generated_Source\PSoC4/CyLib.c ****     * of 67 MHz or less, and 3 uA for higher output frequencies. The default
1683:Generated_Source\PSoC4/CyLib.c ****     * value is 2 uA.
1684:Generated_Source\PSoC4/CyLib.c ****     *
1685:Generated_Source\PSoC4/CyLib.c ****     * \return CYRET_SUCCESS Completed successfully.
1686:Generated_Source\PSoC4/CyLib.c ****     * \return CYRET_BAD_PARAM The parameters are out of range or the specified PLL
1687:Generated_Source\PSoC4/CyLib.c ****     * sources the system clock.
1688:Generated_Source\PSoC4/CyLib.c ****     *
1689:Generated_Source\PSoC4/CyLib.c ****     *******************************************************************************/
1690:Generated_Source\PSoC4/CyLib.c ****     cystatus CySysClkPllSetPQ(uint32 pll, uint32 feedback, uint32 reference, uint32 current)
1691:Generated_Source\PSoC4/CyLib.c ****     {
 2248              		.loc 1 1691 0
 2249              		.cfi_startproc
 2250 0000 90B5     		push	{r4, r7, lr}
 2251              		.cfi_def_cfa_offset 12
 2252              		.cfi_offset 4, -12
 2253              		.cfi_offset 7, -8
 2254              		.cfi_offset 14, -4
 2255 0002 89B0     		sub	sp, sp, #36
 2256              		.cfi_def_cfa_offset 48
 2257 0004 00AF     		add	r7, sp, #0
 2258              		.cfi_def_cfa_register 7
 2259 0006 F860     		str	r0, [r7, #12]
 2260 0008 B960     		str	r1, [r7, #8]
 2261 000a 7A60     		str	r2, [r7, #4]
 2262 000c 3B60     		str	r3, [r7]
1692:Generated_Source\PSoC4/CyLib.c ****         uint32   regTmp;
1693:Generated_Source\PSoC4/CyLib.c ****         cystatus tmp;
1694:Generated_Source\PSoC4/CyLib.c ****         uint8    interruptState;
1695:Generated_Source\PSoC4/CyLib.c ****         cystatus returnStatus = CYRET_BAD_PARAM;
 2263              		.loc 1 1695 0
 2264 000e 0123     		mov	r3, #1
 2265 0010 FB61     		str	r3, [r7, #28]
1696:Generated_Source\PSoC4/CyLib.c **** 
1697:Generated_Source\PSoC4/CyLib.c ****         interruptState = CyEnterCriticalSection();
 2266              		.loc 1 1697 0
 2267 0012 1B23     		mov	r3, #27
 2268 0014 FC18     		add	r4, r7, r3
 2269 0016 FFF7FEFF 		bl	CyEnterCriticalSection
 2270 001a 031C     		mov	r3, r0
 2271 001c 2370     		strb	r3, [r4]
1698:Generated_Source\PSoC4/CyLib.c **** 
1699:Generated_Source\PSoC4/CyLib.c ****         tmp = CySysClkPllConfigChangeAllowed(pll);
 2272              		.loc 1 1699 0
 2273 001e FB68     		ldr	r3, [r7, #12]
 2274 0020 181C     		mov	r0, r3
 2275 0022 FFF7FEFF 		bl	CySysClkPllConfigChangeAllowed
 2276 0026 031C     		mov	r3, r0
ARM GAS  C:\Users\GREG~1.PHI\AppData\Local\Temp\cc70RmjF.s 			page 71


 2277 0028 7B61     		str	r3, [r7, #20]
1700:Generated_Source\PSoC4/CyLib.c **** 
1701:Generated_Source\PSoC4/CyLib.c ****         if ((pll < CY_IP_PLL_NR) &&
 2278              		.loc 1 1701 0
 2279 002a FB68     		ldr	r3, [r7, #12]
 2280 002c 012B     		cmp	r3, #1
 2281 002e 41D8     		bhi	.L148
 2282              		.loc 1 1701 0 is_stmt 0 discriminator 1
 2283 0030 BB68     		ldr	r3, [r7, #8]
 2284 0032 032B     		cmp	r3, #3
 2285 0034 3ED9     		bls	.L148
1702:Generated_Source\PSoC4/CyLib.c ****             (feedback  >= CY_SYS_CLK_PLL_CONFIG_FEEDBACK_DIV_MIN)  && (feedback  <= CY_SYS_CLK_PLL_
 2286              		.loc 1 1702 0 is_stmt 1
 2287 0036 BA68     		ldr	r2, [r7, #8]
 2288 0038 0423     		mov	r3, #4
 2289 003a FF33     		add	r3, r3, #255
 2290 003c 9A42     		cmp	r2, r3
 2291 003e 39D8     		bhi	.L148
 2292              		.loc 1 1702 0 is_stmt 0 discriminator 1
 2293 0040 7B68     		ldr	r3, [r7, #4]
 2294 0042 002B     		cmp	r3, #0
 2295 0044 36D0     		beq	.L148
1703:Generated_Source\PSoC4/CyLib.c ****             (reference >= CY_SYS_CLK_PLL_CONFIG_REFERENCE_DIV_MIN) && (reference <= CY_SYS_CLK_PLL_
 2296              		.loc 1 1703 0 is_stmt 1
 2297 0046 7B68     		ldr	r3, [r7, #4]
 2298 0048 402B     		cmp	r3, #64
 2299 004a 33D8     		bhi	.L148
 2300              		.loc 1 1703 0 is_stmt 0 discriminator 1
 2301 004c 3B68     		ldr	r3, [r7]
 2302 004e 012B     		cmp	r3, #1
 2303 0050 30D9     		bls	.L148
1704:Generated_Source\PSoC4/CyLib.c ****             (current   >= CY_SYS_CLK_PLL_CONFIG_ICP_SEL_MIN )      && (current   <= CY_SYS_CLK_PLL_
 2304              		.loc 1 1704 0 is_stmt 1
 2305 0052 3B68     		ldr	r3, [r7]
 2306 0054 032B     		cmp	r3, #3
 2307 0056 2DD8     		bhi	.L148
 2308              		.loc 1 1704 0 is_stmt 0 discriminator 1
 2309 0058 7B69     		ldr	r3, [r7, #20]
 2310 005a 002B     		cmp	r3, #0
 2311 005c 2AD1     		bne	.L148
1705:Generated_Source\PSoC4/CyLib.c ****             (CYRET_SUCCESS == tmp))
1706:Generated_Source\PSoC4/CyLib.c ****         {
1707:Generated_Source\PSoC4/CyLib.c ****             /* Set new feedback, reference and current values */
1708:Generated_Source\PSoC4/CyLib.c ****             regTmp  = CY_SYS_CLK_PLL_BASE.pll[pll].config & (uint32) ~(CY_SYS_CLK_PLL_CONFIG_FEEDBA
 2312              		.loc 1 1708 0 is_stmt 1
 2313 005e 1B49     		ldr	r1, .L150
 2314 0060 FA68     		ldr	r2, [r7, #12]
 2315 0062 131C     		mov	r3, r2
 2316 0064 5B00     		lsl	r3, r3, #1
 2317 0066 9B18     		add	r3, r3, r2
 2318 0068 9B00     		lsl	r3, r3, #2
 2319 006a 5B58     		ldr	r3, [r3, r1]
 2320 006c 184A     		ldr	r2, .L150+4
 2321 006e 1340     		and	r3, r2
 2322 0070 3B61     		str	r3, [r7, #16]
1709:Generated_Source\PSoC4/CyLib.c ****                                                                        CY_SYS_CLK_PLL_CONFIG_REFERE
1710:Generated_Source\PSoC4/CyLib.c ****                                                                        CY_SYS_CLK_PLL_CONFIG_ICP_SE
ARM GAS  C:\Users\GREG~1.PHI\AppData\Local\Temp\cc70RmjF.s 			page 72


1711:Generated_Source\PSoC4/CyLib.c **** 
1712:Generated_Source\PSoC4/CyLib.c ****             regTmp |= ((feedback << CY_SYS_CLK_PLL_CONFIG_FEEDBACK_DIV_SHIFT) & CY_SYS_CLK_PLL_CONF
 2323              		.loc 1 1712 0
 2324 0072 BB68     		ldr	r3, [r7, #8]
 2325 0074 FF22     		mov	r2, #255
 2326 0076 1340     		and	r3, r2
 2327 0078 3A69     		ldr	r2, [r7, #16]
 2328 007a 1343     		orr	r3, r2
 2329 007c 3B61     		str	r3, [r7, #16]
1713:Generated_Source\PSoC4/CyLib.c ****             regTmp |= (((reference - 1u) << CY_SYS_CLK_PLL_CONFIG_REFERENCE_DIV_SHIFT) & CY_SYS_CLK
 2330              		.loc 1 1713 0
 2331 007e 7B68     		ldr	r3, [r7, #4]
 2332 0080 013B     		sub	r3, r3, #1
 2333 0082 1A02     		lsl	r2, r3, #8
 2334 0084 FC23     		mov	r3, #252
 2335 0086 9B01     		lsl	r3, r3, #6
 2336 0088 1340     		and	r3, r2
 2337 008a 3A69     		ldr	r2, [r7, #16]
 2338 008c 1343     		orr	r3, r2
 2339 008e 3B61     		str	r3, [r7, #16]
1714:Generated_Source\PSoC4/CyLib.c ****             regTmp |= ((current << CY_SYS_CLK_PLL_CONFIG_ICP_SEL_SHIFT) & CY_SYS_CLK_PLL_CONFIG_ICP
 2340              		.loc 1 1714 0
 2341 0090 3B68     		ldr	r3, [r7]
 2342 0092 1A04     		lsl	r2, r3, #16
 2343 0094 E023     		mov	r3, #224
 2344 0096 DB02     		lsl	r3, r3, #11
 2345 0098 1340     		and	r3, r2
 2346 009a 3A69     		ldr	r2, [r7, #16]
 2347 009c 1343     		orr	r3, r2
 2348 009e 3B61     		str	r3, [r7, #16]
1715:Generated_Source\PSoC4/CyLib.c **** 
1716:Generated_Source\PSoC4/CyLib.c ****             CY_SYS_CLK_PLL_BASE.pll[pll].config = regTmp;
 2349              		.loc 1 1716 0
 2350 00a0 0A49     		ldr	r1, .L150
 2351 00a2 FA68     		ldr	r2, [r7, #12]
 2352 00a4 131C     		mov	r3, r2
 2353 00a6 5B00     		lsl	r3, r3, #1
 2354 00a8 9B18     		add	r3, r3, r2
 2355 00aa 9B00     		lsl	r3, r3, #2
 2356 00ac 3A69     		ldr	r2, [r7, #16]
 2357 00ae 5A50     		str	r2, [r3, r1]
1717:Generated_Source\PSoC4/CyLib.c **** 
1718:Generated_Source\PSoC4/CyLib.c ****             returnStatus = CYRET_SUCCESS;
 2358              		.loc 1 1718 0
 2359 00b0 0023     		mov	r3, #0
 2360 00b2 FB61     		str	r3, [r7, #28]
 2361              	.L148:
1719:Generated_Source\PSoC4/CyLib.c ****         }
1720:Generated_Source\PSoC4/CyLib.c **** 
1721:Generated_Source\PSoC4/CyLib.c ****         CyExitCriticalSection(interruptState);
 2362              		.loc 1 1721 0
 2363 00b4 1B23     		mov	r3, #27
 2364 00b6 FB18     		add	r3, r7, r3
 2365 00b8 1B78     		ldrb	r3, [r3]
 2366 00ba 181C     		mov	r0, r3
 2367 00bc FFF7FEFF 		bl	CyExitCriticalSection
1722:Generated_Source\PSoC4/CyLib.c **** 
ARM GAS  C:\Users\GREG~1.PHI\AppData\Local\Temp\cc70RmjF.s 			page 73


1723:Generated_Source\PSoC4/CyLib.c ****         return (returnStatus);
 2368              		.loc 1 1723 0
 2369 00c0 FB69     		ldr	r3, [r7, #28]
1724:Generated_Source\PSoC4/CyLib.c ****     }
 2370              		.loc 1 1724 0
 2371 00c2 181C     		mov	r0, r3
 2372 00c4 BD46     		mov	sp, r7
 2373 00c6 09B0     		add	sp, sp, #36
 2374              		@ sp needed
 2375 00c8 90BD     		pop	{r4, r7, pc}
 2376              	.L151:
 2377 00ca C046     		.align	2
 2378              	.L150:
 2379 00cc 14000C40 		.word	1074528276
 2380 00d0 00C0F8FF 		.word	-475136
 2381              		.cfi_endproc
 2382              	.LFE22:
 2383              		.size	CySysClkPllSetPQ, .-CySysClkPllSetPQ
 2384              		.section	.text.CySysClkPllSetBypassMode,"ax",%progbits
 2385              		.align	2
 2386              		.global	CySysClkPllSetBypassMode
 2387              		.code	16
 2388              		.thumb_func
 2389              		.type	CySysClkPllSetBypassMode, %function
 2390              	CySysClkPllSetBypassMode:
 2391              	.LFB23:
1725:Generated_Source\PSoC4/CyLib.c **** 
1726:Generated_Source\PSoC4/CyLib.c **** 
1727:Generated_Source\PSoC4/CyLib.c ****     /*******************************************************************************
1728:Generated_Source\PSoC4/CyLib.c ****     * Function Name: CySysClkPllSetBypassMode
1729:Generated_Source\PSoC4/CyLib.c ****     ****************************************************************************//**
1730:Generated_Source\PSoC4/CyLib.c ****     *
1731:Generated_Source\PSoC4/CyLib.c ****     * Sets the bypass mode for the specified PLL.
1732:Generated_Source\PSoC4/CyLib.c ****     *
1733:Generated_Source\PSoC4/CyLib.c ****     * The PLL must not be the system clock source when calling this function.
1734:Generated_Source\PSoC4/CyLib.c ****     * The PLL output will glitch during this function call.
1735:Generated_Source\PSoC4/CyLib.c ****     *
1736:Generated_Source\PSoC4/CyLib.c ****     * When the PLL's reference input is higher than HFCLK frequency the device may 
1737:Generated_Source\PSoC4/CyLib.c ****     * lock due to incorrect flash wait cycle configuration and bypass switches from 
1738:Generated_Source\PSoC4/CyLib.c ****     * PLL output to the reference input. See description of 
1739:Generated_Source\PSoC4/CyLib.c ****     * CySysFlashSetWaitCycles() for more information.
1740:Generated_Source\PSoC4/CyLib.c ****     *
1741:Generated_Source\PSoC4/CyLib.c ****     * This API is available only for PSoC 4200L devices.
1742:Generated_Source\PSoC4/CyLib.c ****     *
1743:Generated_Source\PSoC4/CyLib.c ****     * \param PLL:
1744:Generated_Source\PSoC4/CyLib.c ****     *  0   PLL#0
1745:Generated_Source\PSoC4/CyLib.c ****     *  1   PLL#1
1746:Generated_Source\PSoC4/CyLib.c ****     *
1747:Generated_Source\PSoC4/CyLib.c ****     * \param bypass: The bypass mode.
1748:Generated_Source\PSoC4/CyLib.c ****     * CY_SYS_PLL_BYPASS_AUTO - Automatic usage of the lock indicator. When unlocked,
1749:Generated_Source\PSoC4/CyLib.c ****     * automatically selects PLL the reference input (bypass mode). When locked,
1750:Generated_Source\PSoC4/CyLib.c ****     * automatically selects the PLL output.
1751:Generated_Source\PSoC4/CyLib.c ****     *
1752:Generated_Source\PSoC4/CyLib.c ****     * CY_SYS_PLL_BYPASS_PLL_REF - Selects the PLL reference input (bypass mode).
1753:Generated_Source\PSoC4/CyLib.c ****     * Ignores the lock indicator.
1754:Generated_Source\PSoC4/CyLib.c ****     *
1755:Generated_Source\PSoC4/CyLib.c ****     * CY_SYS_PLL_BYPASS_PLL_OUT - Selects the PLL output.  Ignores the lock indicator.
ARM GAS  C:\Users\GREG~1.PHI\AppData\Local\Temp\cc70RmjF.s 			page 74


1756:Generated_Source\PSoC4/CyLib.c ****     *
1757:Generated_Source\PSoC4/CyLib.c ****     *******************************************************************************/
1758:Generated_Source\PSoC4/CyLib.c ****     void CySysClkPllSetBypassMode(uint32 pll, uint32 bypass)
1759:Generated_Source\PSoC4/CyLib.c ****     {
 2392              		.loc 1 1759 0
 2393              		.cfi_startproc
 2394 0000 90B5     		push	{r4, r7, lr}
 2395              		.cfi_def_cfa_offset 12
 2396              		.cfi_offset 4, -12
 2397              		.cfi_offset 7, -8
 2398              		.cfi_offset 14, -4
 2399 0002 85B0     		sub	sp, sp, #20
 2400              		.cfi_def_cfa_offset 32
 2401 0004 00AF     		add	r7, sp, #0
 2402              		.cfi_def_cfa_register 7
 2403 0006 7860     		str	r0, [r7, #4]
 2404 0008 3960     		str	r1, [r7]
1760:Generated_Source\PSoC4/CyLib.c ****         uint32 regTmp;
1761:Generated_Source\PSoC4/CyLib.c ****         uint8  interruptState;
1762:Generated_Source\PSoC4/CyLib.c **** 
1763:Generated_Source\PSoC4/CyLib.c ****         interruptState = CyEnterCriticalSection();
 2405              		.loc 1 1763 0
 2406 000a 0F23     		mov	r3, #15
 2407 000c FC18     		add	r4, r7, r3
 2408 000e FFF7FEFF 		bl	CyEnterCriticalSection
 2409 0012 031C     		mov	r3, r0
 2410 0014 2370     		strb	r3, [r4]
1764:Generated_Source\PSoC4/CyLib.c **** 
1765:Generated_Source\PSoC4/CyLib.c ****         if ((pll < CY_IP_PLL_NR) && (bypass <= CY_SYS_PLL_BYPASS_PLL_OUT))
 2411              		.loc 1 1765 0
 2412 0016 7B68     		ldr	r3, [r7, #4]
 2413 0018 012B     		cmp	r3, #1
 2414 001a 19D8     		bhi	.L153
 2415              		.loc 1 1765 0 is_stmt 0 discriminator 1
 2416 001c 3B68     		ldr	r3, [r7]
 2417 001e 032B     		cmp	r3, #3
 2418 0020 16D8     		bhi	.L153
1766:Generated_Source\PSoC4/CyLib.c ****         {
1767:Generated_Source\PSoC4/CyLib.c ****             regTmp  = CY_SYS_CLK_PLL_BASE.pll[pll].config & (uint32) ~CY_SYS_CLK_PLL_CONFIG_BYPASS_
 2419              		.loc 1 1767 0 is_stmt 1
 2420 0022 1049     		ldr	r1, .L154
 2421 0024 7A68     		ldr	r2, [r7, #4]
 2422 0026 131C     		mov	r3, r2
 2423 0028 5B00     		lsl	r3, r3, #1
 2424 002a 9B18     		add	r3, r3, r2
 2425 002c 9B00     		lsl	r3, r3, #2
 2426 002e 5B58     		ldr	r3, [r3, r1]
 2427 0030 0D4A     		ldr	r2, .L154+4
 2428 0032 1340     		and	r3, r2
 2429 0034 BB60     		str	r3, [r7, #8]
1768:Generated_Source\PSoC4/CyLib.c ****             regTmp |=  (uint32)(bypass << CY_SYS_CLK_PLL_CONFIG_BYPASS_SEL_SHIFT);
 2430              		.loc 1 1768 0
 2431 0036 3B68     		ldr	r3, [r7]
 2432 0038 1B05     		lsl	r3, r3, #20
 2433 003a BA68     		ldr	r2, [r7, #8]
 2434 003c 1343     		orr	r3, r2
 2435 003e BB60     		str	r3, [r7, #8]
ARM GAS  C:\Users\GREG~1.PHI\AppData\Local\Temp\cc70RmjF.s 			page 75


1769:Generated_Source\PSoC4/CyLib.c ****             CY_SYS_CLK_PLL_BASE.pll[pll].config = regTmp;
 2436              		.loc 1 1769 0
 2437 0040 0849     		ldr	r1, .L154
 2438 0042 7A68     		ldr	r2, [r7, #4]
 2439 0044 131C     		mov	r3, r2
 2440 0046 5B00     		lsl	r3, r3, #1
 2441 0048 9B18     		add	r3, r3, r2
 2442 004a 9B00     		lsl	r3, r3, #2
 2443 004c BA68     		ldr	r2, [r7, #8]
 2444 004e 5A50     		str	r2, [r3, r1]
 2445              	.L153:
1770:Generated_Source\PSoC4/CyLib.c ****         }
1771:Generated_Source\PSoC4/CyLib.c **** 
1772:Generated_Source\PSoC4/CyLib.c ****         CyExitCriticalSection(interruptState);
 2446              		.loc 1 1772 0
 2447 0050 0F23     		mov	r3, #15
 2448 0052 FB18     		add	r3, r7, r3
 2449 0054 1B78     		ldrb	r3, [r3]
 2450 0056 181C     		mov	r0, r3
 2451 0058 FFF7FEFF 		bl	CyExitCriticalSection
1773:Generated_Source\PSoC4/CyLib.c ****     }
 2452              		.loc 1 1773 0
 2453 005c BD46     		mov	sp, r7
 2454 005e 05B0     		add	sp, sp, #20
 2455              		@ sp needed
 2456 0060 90BD     		pop	{r4, r7, pc}
 2457              	.L155:
 2458 0062 C046     		.align	2
 2459              	.L154:
 2460 0064 14000C40 		.word	1074528276
 2461 0068 FFFFCFFF 		.word	-3145729
 2462              		.cfi_endproc
 2463              	.LFE23:
 2464              		.size	CySysClkPllSetBypassMode, .-CySysClkPllSetBypassMode
 2465              		.section	.text.CySysClkPllGetBypassMode,"ax",%progbits
 2466              		.align	2
 2467              		.code	16
 2468              		.thumb_func
 2469              		.type	CySysClkPllGetBypassMode, %function
 2470              	CySysClkPllGetBypassMode:
 2471              	.LFB24:
1774:Generated_Source\PSoC4/CyLib.c **** 
1775:Generated_Source\PSoC4/CyLib.c **** 
1776:Generated_Source\PSoC4/CyLib.c ****     /*******************************************************************************
1777:Generated_Source\PSoC4/CyLib.c ****     * Function Name: CySysClkPllGetBypassMode
1778:Generated_Source\PSoC4/CyLib.c ****     ****************************************************************************//**
1779:Generated_Source\PSoC4/CyLib.c ****     *
1780:Generated_Source\PSoC4/CyLib.c ****     *  Gets the bypass mode for the specified PLL.
1781:Generated_Source\PSoC4/CyLib.c ****     *  This API is available only for PSoC 4200L devices.
1782:Generated_Source\PSoC4/CyLib.c ****     *
1783:Generated_Source\PSoC4/CyLib.c ****     *  \param PLL:
1784:Generated_Source\PSoC4/CyLib.c ****     *   0   PLL#0
1785:Generated_Source\PSoC4/CyLib.c ****     *   1   PLL#1
1786:Generated_Source\PSoC4/CyLib.c ****     *
1787:Generated_Source\PSoC4/CyLib.c ****     *  \param bypass: Bypass mode.
1788:Generated_Source\PSoC4/CyLib.c ****     *   The same as the parameter of the CySysClkPllSetBypassMode().
1789:Generated_Source\PSoC4/CyLib.c ****     *
ARM GAS  C:\Users\GREG~1.PHI\AppData\Local\Temp\cc70RmjF.s 			page 76


1790:Generated_Source\PSoC4/CyLib.c ****     *******************************************************************************/
1791:Generated_Source\PSoC4/CyLib.c ****     static uint32 CySysClkPllGetBypassMode(uint32 pll)
1792:Generated_Source\PSoC4/CyLib.c ****     {
 2472              		.loc 1 1792 0
 2473              		.cfi_startproc
 2474 0000 90B5     		push	{r4, r7, lr}
 2475              		.cfi_def_cfa_offset 12
 2476              		.cfi_offset 4, -12
 2477              		.cfi_offset 7, -8
 2478              		.cfi_offset 14, -4
 2479 0002 85B0     		sub	sp, sp, #20
 2480              		.cfi_def_cfa_offset 32
 2481 0004 00AF     		add	r7, sp, #0
 2482              		.cfi_def_cfa_register 7
 2483 0006 7860     		str	r0, [r7, #4]
1793:Generated_Source\PSoC4/CyLib.c ****         uint32 returnValue;
1794:Generated_Source\PSoC4/CyLib.c ****         uint8  interruptState;
1795:Generated_Source\PSoC4/CyLib.c **** 
1796:Generated_Source\PSoC4/CyLib.c ****         CYASSERT(pll < CY_IP_PLL_NR);
 2484              		.loc 1 1796 0
 2485 0008 7B68     		ldr	r3, [r7, #4]
 2486 000a 012B     		cmp	r3, #1
 2487 000c 02D9     		bls	.L157
 2488              		.loc 1 1796 0 is_stmt 0 discriminator 1
 2489 000e 0020     		mov	r0, #0
 2490 0010 FFF7FEFF 		bl	CyHalt
 2491              	.L157:
1797:Generated_Source\PSoC4/CyLib.c **** 
1798:Generated_Source\PSoC4/CyLib.c ****         interruptState = CyEnterCriticalSection();
 2492              		.loc 1 1798 0 is_stmt 1
 2493 0014 0F23     		mov	r3, #15
 2494 0016 FC18     		add	r4, r7, r3
 2495 0018 FFF7FEFF 		bl	CyEnterCriticalSection
 2496 001c 031C     		mov	r3, r0
 2497 001e 2370     		strb	r3, [r4]
1799:Generated_Source\PSoC4/CyLib.c **** 
1800:Generated_Source\PSoC4/CyLib.c ****         returnValue = CY_SYS_CLK_PLL_BASE.pll[pll].config & CY_SYS_CLK_PLL_CONFIG_BYPASS_SEL_MASK;
 2498              		.loc 1 1800 0
 2499 0020 0C49     		ldr	r1, .L159
 2500 0022 7A68     		ldr	r2, [r7, #4]
 2501 0024 131C     		mov	r3, r2
 2502 0026 5B00     		lsl	r3, r3, #1
 2503 0028 9B18     		add	r3, r3, r2
 2504 002a 9B00     		lsl	r3, r3, #2
 2505 002c 5A58     		ldr	r2, [r3, r1]
 2506 002e C023     		mov	r3, #192
 2507 0030 9B03     		lsl	r3, r3, #14
 2508 0032 1340     		and	r3, r2
 2509 0034 BB60     		str	r3, [r7, #8]
1801:Generated_Source\PSoC4/CyLib.c ****         returnValue =  returnValue >> CY_SYS_CLK_PLL_CONFIG_BYPASS_SEL_SHIFT;
 2510              		.loc 1 1801 0
 2511 0036 BB68     		ldr	r3, [r7, #8]
 2512 0038 1B0D     		lsr	r3, r3, #20
 2513 003a BB60     		str	r3, [r7, #8]
1802:Generated_Source\PSoC4/CyLib.c **** 
1803:Generated_Source\PSoC4/CyLib.c ****         CyExitCriticalSection(interruptState);
 2514              		.loc 1 1803 0
ARM GAS  C:\Users\GREG~1.PHI\AppData\Local\Temp\cc70RmjF.s 			page 77


 2515 003c 0F23     		mov	r3, #15
 2516 003e FB18     		add	r3, r7, r3
 2517 0040 1B78     		ldrb	r3, [r3]
 2518 0042 181C     		mov	r0, r3
 2519 0044 FFF7FEFF 		bl	CyExitCriticalSection
1804:Generated_Source\PSoC4/CyLib.c **** 
1805:Generated_Source\PSoC4/CyLib.c ****         return (returnValue);
 2520              		.loc 1 1805 0
 2521 0048 BB68     		ldr	r3, [r7, #8]
1806:Generated_Source\PSoC4/CyLib.c ****     }
 2522              		.loc 1 1806 0
 2523 004a 181C     		mov	r0, r3
 2524 004c BD46     		mov	sp, r7
 2525 004e 05B0     		add	sp, sp, #20
 2526              		@ sp needed
 2527 0050 90BD     		pop	{r4, r7, pc}
 2528              	.L160:
 2529 0052 C046     		.align	2
 2530              	.L159:
 2531 0054 14000C40 		.word	1074528276
 2532              		.cfi_endproc
 2533              	.LFE24:
 2534              		.size	CySysClkPllGetBypassMode, .-CySysClkPllGetBypassMode
 2535              		.section	.text.CySysClkPllConfigChangeAllowed,"ax",%progbits
 2536              		.align	2
 2537              		.code	16
 2538              		.thumb_func
 2539              		.type	CySysClkPllConfigChangeAllowed, %function
 2540              	CySysClkPllConfigChangeAllowed:
 2541              	.LFB25:
1807:Generated_Source\PSoC4/CyLib.c **** 
1808:Generated_Source\PSoC4/CyLib.c **** 
1809:Generated_Source\PSoC4/CyLib.c ****     /*******************************************************************************
1810:Generated_Source\PSoC4/CyLib.c ****     * Function Name: CySysClkPllConfigChangeAllowed
1811:Generated_Source\PSoC4/CyLib.c ****     ****************************************************************************//**
1812:Generated_Source\PSoC4/CyLib.c ****     *
1813:Generated_Source\PSoC4/CyLib.c ****     *  The function returns non-zero value if the specified PLL sources the System
1814:Generated_Source\PSoC4/CyLib.c ****     *  clock and the PLL is not in the bypass mode.
1815:Generated_Source\PSoC4/CyLib.c ****     *
1816:Generated_Source\PSoC4/CyLib.c ****     *  This API is available only for PSoC 4200L devices.
1817:Generated_Source\PSoC4/CyLib.c ****     *
1818:Generated_Source\PSoC4/CyLib.c ****     *  \param PLL:
1819:Generated_Source\PSoC4/CyLib.c ****     *   0   PLL#0
1820:Generated_Source\PSoC4/CyLib.c ****     *   1   PLL#1
1821:Generated_Source\PSoC4/CyLib.c ****     *
1822:Generated_Source\PSoC4/CyLib.c ****     * \return Non-zero value when the specified PLL sources the System clock and
1823:Generated_Source\PSoC4/CyLib.c ****     * the PLL is not in the bypass mode.
1824:Generated_Source\PSoC4/CyLib.c ****     *
1825:Generated_Source\PSoC4/CyLib.c ****     *******************************************************************************/
1826:Generated_Source\PSoC4/CyLib.c ****     static cystatus CySysClkPllConfigChangeAllowed(uint32 pll)
1827:Generated_Source\PSoC4/CyLib.c ****     {
 2542              		.loc 1 1827 0
 2543              		.cfi_startproc
 2544 0000 80B5     		push	{r7, lr}
 2545              		.cfi_def_cfa_offset 8
 2546              		.cfi_offset 7, -8
 2547              		.cfi_offset 14, -4
ARM GAS  C:\Users\GREG~1.PHI\AppData\Local\Temp\cc70RmjF.s 			page 78


 2548 0002 86B0     		sub	sp, sp, #24
 2549              		.cfi_def_cfa_offset 32
 2550 0004 00AF     		add	r7, sp, #0
 2551              		.cfi_def_cfa_register 7
 2552 0006 7860     		str	r0, [r7, #4]
1828:Generated_Source\PSoC4/CyLib.c ****         uint32   pllBypassMode;
1829:Generated_Source\PSoC4/CyLib.c ****         uint32   sysclkSource;
1830:Generated_Source\PSoC4/CyLib.c ****         cystatus returnValue = CYRET_LOCKED;
 2553              		.loc 1 1830 0
 2554 0008 0423     		mov	r3, #4
