ARM GAS  C:\Users\GREG~1.PHI\AppData\Local\Temp\cclhR0o2.s 			page 1


   1              		.cpu cortex-m0
   2              		.fpu softvfp
   3              		.eabi_attribute 20, 1
   4              		.eabi_attribute 21, 1
   5              		.eabi_attribute 23, 3
   6              		.eabi_attribute 24, 1
   7              		.eabi_attribute 25, 1
   8              		.eabi_attribute 26, 1
   9              		.eabi_attribute 30, 6
  10              		.eabi_attribute 34, 0
  11              		.eabi_attribute 18, 4
  12              		.code	16
  13              		.file	"RxDmaS.c"
  14              		.text
  15              	.Ltext0:
  16              		.cfi_sections	.debug_frame
  17              		.section	.text.RxDmaS_ChEnable,"ax",%progbits
  18              		.align	2
  19              		.code	16
  20              		.thumb_func
  21              		.type	RxDmaS_ChEnable, %function
  22              	RxDmaS_ChEnable:
  23              	.LFB0:
  24              		.file 1 "Generated_Source\\PSoC4\\RxDmaS.h"
   1:Generated_Source\PSoC4/RxDmaS.h **** /*******************************************************************************
   2:Generated_Source\PSoC4/RxDmaS.h **** * File Name: RxDmaS.h
   3:Generated_Source\PSoC4/RxDmaS.h **** * Version 1.0
   4:Generated_Source\PSoC4/RxDmaS.h **** *
   5:Generated_Source\PSoC4/RxDmaS.h **** * Description:
   6:Generated_Source\PSoC4/RxDmaS.h **** *  This file provides DMA channel defines and API function definitions.
   7:Generated_Source\PSoC4/RxDmaS.h **** *
   8:Generated_Source\PSoC4/RxDmaS.h **** ********************************************************************************
   9:Generated_Source\PSoC4/RxDmaS.h **** * Copyright 2015, Cypress Semiconductor Corporation. All rights reserved.
  10:Generated_Source\PSoC4/RxDmaS.h **** * You may use this file only in accordance with the license, terms, conditions,
  11:Generated_Source\PSoC4/RxDmaS.h **** * disclaimers, and limitations in the end user license agreement accompanying
  12:Generated_Source\PSoC4/RxDmaS.h **** * the software package with which this file was provided.
  13:Generated_Source\PSoC4/RxDmaS.h **** *******************************************************************************/
  14:Generated_Source\PSoC4/RxDmaS.h **** 
  15:Generated_Source\PSoC4/RxDmaS.h **** #ifndef CY_DMA_CHANNEL_RxDmaS_H
  16:Generated_Source\PSoC4/RxDmaS.h **** #define CY_DMA_CHANNEL_RxDmaS_H
  17:Generated_Source\PSoC4/RxDmaS.h **** 
  18:Generated_Source\PSoC4/RxDmaS.h **** #include "CyDMA.h"
  19:Generated_Source\PSoC4/RxDmaS.h **** 
  20:Generated_Source\PSoC4/RxDmaS.h ****     
  21:Generated_Source\PSoC4/RxDmaS.h **** /***************************************
  22:Generated_Source\PSoC4/RxDmaS.h **** *   Conditional Compilation Parameters
  23:Generated_Source\PSoC4/RxDmaS.h **** ***************************************/
  24:Generated_Source\PSoC4/RxDmaS.h **** 
  25:Generated_Source\PSoC4/RxDmaS.h **** #define RxDmaS_CHANNEL           (RxDmaS__CHANNEL_NUMBER)
  26:Generated_Source\PSoC4/RxDmaS.h **** #define RxDmaS_CHANNEL_MASK      ((uint32)(1UL << RxDmaS_CHANNEL))
  27:Generated_Source\PSoC4/RxDmaS.h **** 
  28:Generated_Source\PSoC4/RxDmaS.h **** 
  29:Generated_Source\PSoC4/RxDmaS.h **** /***************************************
  30:Generated_Source\PSoC4/RxDmaS.h **** *        Function Prototypes
  31:Generated_Source\PSoC4/RxDmaS.h **** ***************************************/
  32:Generated_Source\PSoC4/RxDmaS.h **** 
  33:Generated_Source\PSoC4/RxDmaS.h **** /* Functions specific to this DMA channel */
ARM GAS  C:\Users\GREG~1.PHI\AppData\Local\Temp\cclhR0o2.s 			page 2


  34:Generated_Source\PSoC4/RxDmaS.h **** void RxDmaS_Init(void);
  35:Generated_Source\PSoC4/RxDmaS.h **** void RxDmaS_Start(void * srcAddress, void * dstAddress);
  36:Generated_Source\PSoC4/RxDmaS.h **** 
  37:Generated_Source\PSoC4/RxDmaS.h **** /* Inline functions that call global API functions */
  38:Generated_Source\PSoC4/RxDmaS.h **** static void   RxDmaS_ChEnable(void);
  39:Generated_Source\PSoC4/RxDmaS.h **** static void   RxDmaS_ChDisable(void);
  40:Generated_Source\PSoC4/RxDmaS.h **** static void   RxDmaS_Trigger(void);
  41:Generated_Source\PSoC4/RxDmaS.h **** static void   RxDmaS_SetPriority(int32 priority);
  42:Generated_Source\PSoC4/RxDmaS.h **** static int32  RxDmaS_GetPriority(void);
  43:Generated_Source\PSoC4/RxDmaS.h **** static void   RxDmaS_SetNextDescriptor(int32 descriptor);
  44:Generated_Source\PSoC4/RxDmaS.h **** static int32  RxDmaS_GetNextDescriptor(void);
  45:Generated_Source\PSoC4/RxDmaS.h **** static void   RxDmaS_SetConfiguration(int32 descriptor, const cydma_init_struct * config);
  46:Generated_Source\PSoC4/RxDmaS.h **** static void   RxDmaS_ValidateDescriptor(int32 descriptor);
  47:Generated_Source\PSoC4/RxDmaS.h **** static uint32 RxDmaS_GetDescriptorStatus(int32 descriptor);
  48:Generated_Source\PSoC4/RxDmaS.h **** static void   RxDmaS_SetSrcAddress(int32 descriptor, void * srcAddress);
  49:Generated_Source\PSoC4/RxDmaS.h **** static void * RxDmaS_GetSrcAddress(int32 descriptor);
  50:Generated_Source\PSoC4/RxDmaS.h **** static void   RxDmaS_SetDstAddress(int32 descriptor, void * dstAddress);
  51:Generated_Source\PSoC4/RxDmaS.h **** static void * RxDmaS_GetDstAddress(int32 descriptor);
  52:Generated_Source\PSoC4/RxDmaS.h **** static void   RxDmaS_SetDataElementSize(int32 descriptor, uint32 dataElementSize);
  53:Generated_Source\PSoC4/RxDmaS.h **** static uint32 RxDmaS_GetDataElementSize(int32 descriptor);
  54:Generated_Source\PSoC4/RxDmaS.h **** static void   RxDmaS_SetNumDataElements(int32 descriptor, int32 numDataElements);
  55:Generated_Source\PSoC4/RxDmaS.h **** static int32  RxDmaS_GetNumDataElements(int32 descriptor);
  56:Generated_Source\PSoC4/RxDmaS.h **** static void   RxDmaS_SetSrcDstTransferWidth(int32 descriptor, uint32 transferWidth);
  57:Generated_Source\PSoC4/RxDmaS.h **** static uint32 RxDmaS_GetSrcDstTransferWidth(int32 descriptor);
  58:Generated_Source\PSoC4/RxDmaS.h **** static void   RxDmaS_SetAddressIncrement(int32 descriptor, uint32 addressIncrement);
  59:Generated_Source\PSoC4/RxDmaS.h **** static uint32 RxDmaS_GetAddressIncrement(int32 descriptor);
  60:Generated_Source\PSoC4/RxDmaS.h **** static void   RxDmaS_SetTriggerType(int32 descriptor, uint32 triggerType);
  61:Generated_Source\PSoC4/RxDmaS.h **** static uint32 RxDmaS_GetTriggerType(int32 descriptor);
  62:Generated_Source\PSoC4/RxDmaS.h **** static void   RxDmaS_SetTransferMode(int32 descriptor, uint32 transferMode);
  63:Generated_Source\PSoC4/RxDmaS.h **** static uint32 RxDmaS_GetTransferMode(int32 descriptor);
  64:Generated_Source\PSoC4/RxDmaS.h **** static void   RxDmaS_SetPreemptable(int32 descriptor, uint32 preemptable);
  65:Generated_Source\PSoC4/RxDmaS.h **** static uint32 RxDmaS_GetPreemptable(int32 descriptor);
  66:Generated_Source\PSoC4/RxDmaS.h **** static void   RxDmaS_SetPostCompletionActions(int32 descriptor, uint32 actions);
  67:Generated_Source\PSoC4/RxDmaS.h **** static uint32 RxDmaS_GetPostCompletionAction(int32 descriptor);
  68:Generated_Source\PSoC4/RxDmaS.h **** static cydma_callback_t RxDmaS_SetInterruptCallback(cydma_callback_t callback);
  69:Generated_Source\PSoC4/RxDmaS.h **** static cydma_callback_t RxDmaS_GetInterruptCallback(void);
  70:Generated_Source\PSoC4/RxDmaS.h **** 
  71:Generated_Source\PSoC4/RxDmaS.h **** 
  72:Generated_Source\PSoC4/RxDmaS.h **** /*******************************************************************************
  73:Generated_Source\PSoC4/RxDmaS.h **** * Function Name: RxDmaS_ChEnable
  74:Generated_Source\PSoC4/RxDmaS.h **** ********************************************************************************
  75:Generated_Source\PSoC4/RxDmaS.h **** *
  76:Generated_Source\PSoC4/RxDmaS.h **** * Summary:
  77:Generated_Source\PSoC4/RxDmaS.h **** *  Enables the DMA channel. It is not necessary to call RxDmaS_ChEnable()
  78:Generated_Source\PSoC4/RxDmaS.h **** *  because the RxDmaS_Start() API calls this function, which is the
  79:Generated_Source\PSoC4/RxDmaS.h **** *  preferred method to begin the component operation.
  80:Generated_Source\PSoC4/RxDmaS.h **** *
  81:Generated_Source\PSoC4/RxDmaS.h **** * Parameters:
  82:Generated_Source\PSoC4/RxDmaS.h **** *  None.
  83:Generated_Source\PSoC4/RxDmaS.h **** *                   
  84:Generated_Source\PSoC4/RxDmaS.h **** * Return:
  85:Generated_Source\PSoC4/RxDmaS.h **** *  None.
  86:Generated_Source\PSoC4/RxDmaS.h **** *
  87:Generated_Source\PSoC4/RxDmaS.h **** * Side effect:
  88:Generated_Source\PSoC4/RxDmaS.h **** *  If this function is called before RxDmaS_Start(), or RxDmaS_Init()
  89:Generated_Source\PSoC4/RxDmaS.h **** *  or RxDmaS_SetConfiguration(), and RxDmaS_SetSrcAddress()
  90:Generated_Source\PSoC4/RxDmaS.h **** *  and RxDmaS_SetDstAddress the operation of the DMA is 
ARM GAS  C:\Users\GREG~1.PHI\AppData\Local\Temp\cclhR0o2.s 			page 3


  91:Generated_Source\PSoC4/RxDmaS.h **** *  undefined and could result in system data corruption. 
  92:Generated_Source\PSoC4/RxDmaS.h **** *
  93:Generated_Source\PSoC4/RxDmaS.h **** *******************************************************************************/
  94:Generated_Source\PSoC4/RxDmaS.h **** static CY_INLINE void RxDmaS_ChEnable(void)
  95:Generated_Source\PSoC4/RxDmaS.h **** {
  25              		.loc 1 95 0
  26              		.cfi_startproc
  27 0000 80B5     		push	{r7, lr}
  28              		.cfi_def_cfa_offset 8
  29              		.cfi_offset 7, -8
  30              		.cfi_offset 14, -4
  31 0002 00AF     		add	r7, sp, #0
  32              		.cfi_def_cfa_register 7
  96:Generated_Source\PSoC4/RxDmaS.h ****     CyDmaChEnable(RxDmaS_CHANNEL);
  33              		.loc 1 96 0
  34 0004 0320     		mov	r0, #3
  35 0006 FFF7FEFF 		bl	CyDmaChEnable
  97:Generated_Source\PSoC4/RxDmaS.h **** }
  36              		.loc 1 97 0
  37 000a BD46     		mov	sp, r7
  38              		@ sp needed
  39 000c 80BD     		pop	{r7, pc}
  40              		.cfi_endproc
  41              	.LFE0:
  42              		.size	RxDmaS_ChEnable, .-RxDmaS_ChEnable
  43 000e C046     		.section	.text.RxDmaS_ValidateDescriptor,"ax",%progbits
  44              		.align	2
  45              		.code	16
  46              		.thumb_func
  47              		.type	RxDmaS_ValidateDescriptor, %function
  48              	RxDmaS_ValidateDescriptor:
  49              	.LFB8:
  98:Generated_Source\PSoC4/RxDmaS.h **** 
  99:Generated_Source\PSoC4/RxDmaS.h **** 
 100:Generated_Source\PSoC4/RxDmaS.h **** /*******************************************************************************
 101:Generated_Source\PSoC4/RxDmaS.h **** * Function Name: RxDmaS_ChDisable
 102:Generated_Source\PSoC4/RxDmaS.h **** ********************************************************************************
 103:Generated_Source\PSoC4/RxDmaS.h **** *
 104:Generated_Source\PSoC4/RxDmaS.h **** * Summary:
 105:Generated_Source\PSoC4/RxDmaS.h **** *  Disables the DMA channel.
 106:Generated_Source\PSoC4/RxDmaS.h **** *
 107:Generated_Source\PSoC4/RxDmaS.h **** * Parameters:
 108:Generated_Source\PSoC4/RxDmaS.h **** *  None.
 109:Generated_Source\PSoC4/RxDmaS.h **** *                   
 110:Generated_Source\PSoC4/RxDmaS.h **** * Return:
 111:Generated_Source\PSoC4/RxDmaS.h **** *  None.
 112:Generated_Source\PSoC4/RxDmaS.h **** *
 113:Generated_Source\PSoC4/RxDmaS.h **** * Side effect:
 114:Generated_Source\PSoC4/RxDmaS.h **** *  If this function is called during a DMA transfer the transfer is aborted. 
 115:Generated_Source\PSoC4/RxDmaS.h **** *
 116:Generated_Source\PSoC4/RxDmaS.h **** *******************************************************************************/
 117:Generated_Source\PSoC4/RxDmaS.h **** static CY_INLINE void RxDmaS_ChDisable(void)
 118:Generated_Source\PSoC4/RxDmaS.h **** {
 119:Generated_Source\PSoC4/RxDmaS.h ****     CyDmaChDisable(RxDmaS_CHANNEL);
 120:Generated_Source\PSoC4/RxDmaS.h **** }
 121:Generated_Source\PSoC4/RxDmaS.h **** 
 122:Generated_Source\PSoC4/RxDmaS.h **** 
ARM GAS  C:\Users\GREG~1.PHI\AppData\Local\Temp\cclhR0o2.s 			page 4


 123:Generated_Source\PSoC4/RxDmaS.h **** /*******************************************************************************
 124:Generated_Source\PSoC4/RxDmaS.h **** * Function Name: RxDmaS_Trigger
 125:Generated_Source\PSoC4/RxDmaS.h **** ********************************************************************************
 126:Generated_Source\PSoC4/RxDmaS.h **** *
 127:Generated_Source\PSoC4/RxDmaS.h **** * Summary:
 128:Generated_Source\PSoC4/RxDmaS.h **** *  Triggers the DMA channel, this is useful only for software triggers. This is
 129:Generated_Source\PSoC4/RxDmaS.h **** *  not needed when hardware triggers are used.
 130:Generated_Source\PSoC4/RxDmaS.h **** *
 131:Generated_Source\PSoC4/RxDmaS.h **** * Parameters:
 132:Generated_Source\PSoC4/RxDmaS.h **** *  None.
 133:Generated_Source\PSoC4/RxDmaS.h **** *                   
 134:Generated_Source\PSoC4/RxDmaS.h **** * Return:
 135:Generated_Source\PSoC4/RxDmaS.h **** *  None. 
 136:Generated_Source\PSoC4/RxDmaS.h **** *
 137:Generated_Source\PSoC4/RxDmaS.h **** *******************************************************************************/
 138:Generated_Source\PSoC4/RxDmaS.h **** static CY_INLINE void RxDmaS_Trigger(void)
 139:Generated_Source\PSoC4/RxDmaS.h **** {
 140:Generated_Source\PSoC4/RxDmaS.h ****     CyDmaTrigger(RxDmaS_CHANNEL);
 141:Generated_Source\PSoC4/RxDmaS.h **** }
 142:Generated_Source\PSoC4/RxDmaS.h **** 
 143:Generated_Source\PSoC4/RxDmaS.h **** 
 144:Generated_Source\PSoC4/RxDmaS.h **** /*******************************************************************************
 145:Generated_Source\PSoC4/RxDmaS.h **** * Function Name: RxDmaS_SetPriority
 146:Generated_Source\PSoC4/RxDmaS.h **** ********************************************************************************
 147:Generated_Source\PSoC4/RxDmaS.h **** *
 148:Generated_Source\PSoC4/RxDmaS.h **** * Summary:
 149:Generated_Source\PSoC4/RxDmaS.h **** *  Sets the priority for the channel.
 150:Generated_Source\PSoC4/RxDmaS.h **** *
 151:Generated_Source\PSoC4/RxDmaS.h **** * Parameters:
 152:Generated_Source\PSoC4/RxDmaS.h **** *  priority: Priority for channel. Priority can be 0,1,2, or 3.
 153:Generated_Source\PSoC4/RxDmaS.h **** *            0 is the highest priority.
 154:Generated_Source\PSoC4/RxDmaS.h **** *                   
 155:Generated_Source\PSoC4/RxDmaS.h **** * Return:
 156:Generated_Source\PSoC4/RxDmaS.h **** *  None.
 157:Generated_Source\PSoC4/RxDmaS.h **** *
 158:Generated_Source\PSoC4/RxDmaS.h **** * Side effect:
 159:Generated_Source\PSoC4/RxDmaS.h **** *  This function should not be called while the channel is enabled.
 160:Generated_Source\PSoC4/RxDmaS.h **** *
 161:Generated_Source\PSoC4/RxDmaS.h **** *******************************************************************************/
 162:Generated_Source\PSoC4/RxDmaS.h **** static CY_INLINE void RxDmaS_SetPriority(int32 priority)
 163:Generated_Source\PSoC4/RxDmaS.h **** {
 164:Generated_Source\PSoC4/RxDmaS.h ****     CyDmaSetPriority(RxDmaS_CHANNEL, priority);
 165:Generated_Source\PSoC4/RxDmaS.h **** }
 166:Generated_Source\PSoC4/RxDmaS.h **** 
 167:Generated_Source\PSoC4/RxDmaS.h **** 
 168:Generated_Source\PSoC4/RxDmaS.h **** /*******************************************************************************
 169:Generated_Source\PSoC4/RxDmaS.h **** * Function Name: RxDmaS_GetPriority
 170:Generated_Source\PSoC4/RxDmaS.h **** ********************************************************************************
 171:Generated_Source\PSoC4/RxDmaS.h **** *
 172:Generated_Source\PSoC4/RxDmaS.h **** * Summary:
 173:Generated_Source\PSoC4/RxDmaS.h **** *  Gets the priority for the channel.
 174:Generated_Source\PSoC4/RxDmaS.h **** *
 175:Generated_Source\PSoC4/RxDmaS.h **** * Parameters:
 176:Generated_Source\PSoC4/RxDmaS.h **** *  None.
 177:Generated_Source\PSoC4/RxDmaS.h **** *                   
 178:Generated_Source\PSoC4/RxDmaS.h **** * Return:
 179:Generated_Source\PSoC4/RxDmaS.h **** *  Priority for channel. Priority can be 0,1,2, or 3. 0 is the highest priority.
ARM GAS  C:\Users\GREG~1.PHI\AppData\Local\Temp\cclhR0o2.s 			page 5


 180:Generated_Source\PSoC4/RxDmaS.h **** *
 181:Generated_Source\PSoC4/RxDmaS.h **** *******************************************************************************/
 182:Generated_Source\PSoC4/RxDmaS.h **** static CY_INLINE int32 RxDmaS_GetPriority(void)
 183:Generated_Source\PSoC4/RxDmaS.h **** {
 184:Generated_Source\PSoC4/RxDmaS.h ****     return (CyDmaGetPriority(RxDmaS_CHANNEL));
 185:Generated_Source\PSoC4/RxDmaS.h **** }
 186:Generated_Source\PSoC4/RxDmaS.h **** 
 187:Generated_Source\PSoC4/RxDmaS.h **** 
 188:Generated_Source\PSoC4/RxDmaS.h **** /*******************************************************************************
 189:Generated_Source\PSoC4/RxDmaS.h **** * Function Name: RxDmaS_SetNextDescriptor
 190:Generated_Source\PSoC4/RxDmaS.h **** ********************************************************************************
 191:Generated_Source\PSoC4/RxDmaS.h **** *
 192:Generated_Source\PSoC4/RxDmaS.h **** * Summary:
 193:Generated_Source\PSoC4/RxDmaS.h **** *  Sets the descriptor that should be run the next time the channel is
 194:Generated_Source\PSoC4/RxDmaS.h **** *  triggered.
 195:Generated_Source\PSoC4/RxDmaS.h **** *
 196:Generated_Source\PSoC4/RxDmaS.h **** * Parameters:
 197:Generated_Source\PSoC4/RxDmaS.h **** *  descriptor: Next Descriptor to run (0 or 1).
 198:Generated_Source\PSoC4/RxDmaS.h **** *                   
 199:Generated_Source\PSoC4/RxDmaS.h **** * Side effect:
 200:Generated_Source\PSoC4/RxDmaS.h **** *  This function should not be called while the channel is enabled.
 201:Generated_Source\PSoC4/RxDmaS.h **** *
 202:Generated_Source\PSoC4/RxDmaS.h **** *******************************************************************************/
 203:Generated_Source\PSoC4/RxDmaS.h **** static CY_INLINE void RxDmaS_SetNextDescriptor(int32 descriptor)
 204:Generated_Source\PSoC4/RxDmaS.h **** {
 205:Generated_Source\PSoC4/RxDmaS.h ****     CyDmaSetNextDescriptor(RxDmaS_CHANNEL, descriptor);
 206:Generated_Source\PSoC4/RxDmaS.h **** }
 207:Generated_Source\PSoC4/RxDmaS.h **** 
 208:Generated_Source\PSoC4/RxDmaS.h **** 
 209:Generated_Source\PSoC4/RxDmaS.h **** /*******************************************************************************
 210:Generated_Source\PSoC4/RxDmaS.h **** * Function Name: RxDmaS_GetNextDescriptor
 211:Generated_Source\PSoC4/RxDmaS.h **** ********************************************************************************
 212:Generated_Source\PSoC4/RxDmaS.h **** *
 213:Generated_Source\PSoC4/RxDmaS.h **** * Summary:
 214:Generated_Source\PSoC4/RxDmaS.h **** *  Returns the next descriptor that should be run, as set by 
 215:Generated_Source\PSoC4/RxDmaS.h **** *  RxDmaS_SetNextDescriptor().
 216:Generated_Source\PSoC4/RxDmaS.h **** *
 217:Generated_Source\PSoC4/RxDmaS.h **** * Parameters:
 218:Generated_Source\PSoC4/RxDmaS.h **** *  None.
 219:Generated_Source\PSoC4/RxDmaS.h **** *                   
 220:Generated_Source\PSoC4/RxDmaS.h **** * Return:
 221:Generated_Source\PSoC4/RxDmaS.h **** *  Next Descriptor to run (0 or 1).
 222:Generated_Source\PSoC4/RxDmaS.h **** *
 223:Generated_Source\PSoC4/RxDmaS.h **** *******************************************************************************/
 224:Generated_Source\PSoC4/RxDmaS.h **** static CY_INLINE int32 RxDmaS_GetNextDescriptor(void)
 225:Generated_Source\PSoC4/RxDmaS.h **** {
 226:Generated_Source\PSoC4/RxDmaS.h ****     return (CyDmaGetNextDescriptor(RxDmaS_CHANNEL));
 227:Generated_Source\PSoC4/RxDmaS.h **** }
 228:Generated_Source\PSoC4/RxDmaS.h **** 
 229:Generated_Source\PSoC4/RxDmaS.h **** 
 230:Generated_Source\PSoC4/RxDmaS.h **** /*******************************************************************************
 231:Generated_Source\PSoC4/RxDmaS.h **** * Function Name: RxDmaS_SetConfiguration
 232:Generated_Source\PSoC4/RxDmaS.h **** ********************************************************************************
 233:Generated_Source\PSoC4/RxDmaS.h **** *
 234:Generated_Source\PSoC4/RxDmaS.h **** * Summary:
 235:Generated_Source\PSoC4/RxDmaS.h **** *  Sets configuration information for the specified descriptor.
 236:Generated_Source\PSoC4/RxDmaS.h **** *
ARM GAS  C:\Users\GREG~1.PHI\AppData\Local\Temp\cclhR0o2.s 			page 6


 237:Generated_Source\PSoC4/RxDmaS.h **** * Parameters:
 238:Generated_Source\PSoC4/RxDmaS.h **** *  descriptor: Descriptor (0 or 1) modified by this function.
 239:Generated_Source\PSoC4/RxDmaS.h **** *  config: Pointer to a configuration structure. Refer to cydma_init_struct
 240:Generated_Source\PSoC4/RxDmaS.h **** *          structure definition in CyDMA_P4.h or the component datasheet.
 241:Generated_Source\PSoC4/RxDmaS.h **** *                   
 242:Generated_Source\PSoC4/RxDmaS.h **** * Return:
 243:Generated_Source\PSoC4/RxDmaS.h **** *  None.
 244:Generated_Source\PSoC4/RxDmaS.h **** *
 245:Generated_Source\PSoC4/RxDmaS.h **** * Side effect:
 246:Generated_Source\PSoC4/RxDmaS.h **** *  The status register associated with the specified descriptor is reset to
 247:Generated_Source\PSoC4/RxDmaS.h **** *  zero after this function call. This function also validates the descriptor.
 248:Generated_Source\PSoC4/RxDmaS.h **** *  This function should not be called while the descriptor is active.
 249:Generated_Source\PSoC4/RxDmaS.h **** *  This can be checked by calling CyDmaGetStatus().
 250:Generated_Source\PSoC4/RxDmaS.h **** *
 251:Generated_Source\PSoC4/RxDmaS.h **** *******************************************************************************/
 252:Generated_Source\PSoC4/RxDmaS.h **** static CY_INLINE void RxDmaS_SetConfiguration(int32 descriptor, const cydma_init_struct * config)
 253:Generated_Source\PSoC4/RxDmaS.h **** {
 254:Generated_Source\PSoC4/RxDmaS.h ****     CyDmaSetConfiguration(RxDmaS_CHANNEL, descriptor, config);
 255:Generated_Source\PSoC4/RxDmaS.h **** }
 256:Generated_Source\PSoC4/RxDmaS.h **** 
 257:Generated_Source\PSoC4/RxDmaS.h **** 
 258:Generated_Source\PSoC4/RxDmaS.h **** /*******************************************************************************
 259:Generated_Source\PSoC4/RxDmaS.h **** * Function Name: RxDmaS_ValidateDescriptor
 260:Generated_Source\PSoC4/RxDmaS.h **** ********************************************************************************
 261:Generated_Source\PSoC4/RxDmaS.h **** *
 262:Generated_Source\PSoC4/RxDmaS.h **** * Summary:
 263:Generated_Source\PSoC4/RxDmaS.h **** *  Validates the specified descriptor after it has been invalidated.
 264:Generated_Source\PSoC4/RxDmaS.h **** *
 265:Generated_Source\PSoC4/RxDmaS.h **** * Parameters:
 266:Generated_Source\PSoC4/RxDmaS.h **** *  descriptor: Descriptor (0 or 1) modified by this function.
 267:Generated_Source\PSoC4/RxDmaS.h **** *                   
 268:Generated_Source\PSoC4/RxDmaS.h **** * Return:
 269:Generated_Source\PSoC4/RxDmaS.h **** *  None. 
 270:Generated_Source\PSoC4/RxDmaS.h **** *
 271:Generated_Source\PSoC4/RxDmaS.h **** * Side effect:
 272:Generated_Source\PSoC4/RxDmaS.h **** *  The status register associated with the specified descriptor is reset to
 273:Generated_Source\PSoC4/RxDmaS.h **** *  zero after this function call. This function should not be called while the
 274:Generated_Source\PSoC4/RxDmaS.h **** *  descriptor is active. This can be checked by calling CyDmaGetStatus().
 275:Generated_Source\PSoC4/RxDmaS.h **** *
 276:Generated_Source\PSoC4/RxDmaS.h **** *******************************************************************************/
 277:Generated_Source\PSoC4/RxDmaS.h **** static CY_INLINE void RxDmaS_ValidateDescriptor(int32 descriptor)
 278:Generated_Source\PSoC4/RxDmaS.h **** {
  50              		.loc 1 278 0
  51              		.cfi_startproc
  52 0000 80B5     		push	{r7, lr}
  53              		.cfi_def_cfa_offset 8
  54              		.cfi_offset 7, -8
  55              		.cfi_offset 14, -4
  56 0002 82B0     		sub	sp, sp, #8
  57              		.cfi_def_cfa_offset 16
  58 0004 00AF     		add	r7, sp, #0
  59              		.cfi_def_cfa_register 7
  60 0006 7860     		str	r0, [r7, #4]
 279:Generated_Source\PSoC4/RxDmaS.h ****     CyDmaValidateDescriptor(RxDmaS_CHANNEL, descriptor);
  61              		.loc 1 279 0
  62 0008 7B68     		ldr	r3, [r7, #4]
  63 000a 0320     		mov	r0, #3
ARM GAS  C:\Users\GREG~1.PHI\AppData\Local\Temp\cclhR0o2.s 			page 7


  64 000c 191C     		mov	r1, r3
  65 000e FFF7FEFF 		bl	CyDmaValidateDescriptor
 280:Generated_Source\PSoC4/RxDmaS.h **** }
  66              		.loc 1 280 0
  67 0012 BD46     		mov	sp, r7
  68 0014 02B0     		add	sp, sp, #8
  69              		@ sp needed
  70 0016 80BD     		pop	{r7, pc}
  71              		.cfi_endproc
  72              	.LFE8:
  73              		.size	RxDmaS_ValidateDescriptor, .-RxDmaS_ValidateDescriptor
  74              		.section	.text.RxDmaS_SetSrcAddress,"ax",%progbits
  75              		.align	2
  76              		.code	16
  77              		.thumb_func
  78              		.type	RxDmaS_SetSrcAddress, %function
  79              	RxDmaS_SetSrcAddress:
  80              	.LFB10:
 281:Generated_Source\PSoC4/RxDmaS.h **** 
 282:Generated_Source\PSoC4/RxDmaS.h **** 
 283:Generated_Source\PSoC4/RxDmaS.h **** /*******************************************************************************
 284:Generated_Source\PSoC4/RxDmaS.h **** * Function Name: RxDmaS_GetDescriptorStatus
 285:Generated_Source\PSoC4/RxDmaS.h **** ********************************************************************************
 286:Generated_Source\PSoC4/RxDmaS.h **** *
 287:Generated_Source\PSoC4/RxDmaS.h **** * Summary:
 288:Generated_Source\PSoC4/RxDmaS.h **** *  Returns the status of the specified descriptor.
 289:Generated_Source\PSoC4/RxDmaS.h **** *
 290:Generated_Source\PSoC4/RxDmaS.h **** * Parameters:
 291:Generated_Source\PSoC4/RxDmaS.h **** *  descriptor: Descriptor (0 or 1) modified by this function.
 292:Generated_Source\PSoC4/RxDmaS.h **** *                   
 293:Generated_Source\PSoC4/RxDmaS.h **** * Return:
 294:Generated_Source\PSoC4/RxDmaS.h **** *  Returns the contents of the specified descriptors status register. Refer to 
 295:Generated_Source\PSoC4/RxDmaS.h **** *  descriptor status register bit definitions in CyDMA_P4.h or the API
 296:Generated_Source\PSoC4/RxDmaS.h **** *  description in the DMA channel datasheet for more information.
 297:Generated_Source\PSoC4/RxDmaS.h **** *
 298:Generated_Source\PSoC4/RxDmaS.h **** *******************************************************************************/
 299:Generated_Source\PSoC4/RxDmaS.h **** static CY_INLINE uint32 RxDmaS_GetDescriptorStatus(int32 descriptor)
 300:Generated_Source\PSoC4/RxDmaS.h **** {
 301:Generated_Source\PSoC4/RxDmaS.h ****     return (CyDmaGetDescriptorStatus(RxDmaS_CHANNEL, descriptor));
 302:Generated_Source\PSoC4/RxDmaS.h **** }
 303:Generated_Source\PSoC4/RxDmaS.h **** 
 304:Generated_Source\PSoC4/RxDmaS.h **** 
 305:Generated_Source\PSoC4/RxDmaS.h **** /*******************************************************************************
 306:Generated_Source\PSoC4/RxDmaS.h **** * Function Name: RxDmaS_SetSrcAddress
 307:Generated_Source\PSoC4/RxDmaS.h **** ********************************************************************************
 308:Generated_Source\PSoC4/RxDmaS.h **** *
 309:Generated_Source\PSoC4/RxDmaS.h **** * Summary:
 310:Generated_Source\PSoC4/RxDmaS.h **** *  Configures the source address for the specified descriptor.
 311:Generated_Source\PSoC4/RxDmaS.h **** *
 312:Generated_Source\PSoC4/RxDmaS.h **** * Parameters:
 313:Generated_Source\PSoC4/RxDmaS.h **** *  descriptor: Descriptor (0 or 1) modified by this function.
 314:Generated_Source\PSoC4/RxDmaS.h **** *  srcAddress: Address of DMA transfer source.
 315:Generated_Source\PSoC4/RxDmaS.h **** *                   
 316:Generated_Source\PSoC4/RxDmaS.h **** * Return:
 317:Generated_Source\PSoC4/RxDmaS.h **** *  None.
 318:Generated_Source\PSoC4/RxDmaS.h **** *
 319:Generated_Source\PSoC4/RxDmaS.h **** * Side effect:
ARM GAS  C:\Users\GREG~1.PHI\AppData\Local\Temp\cclhR0o2.s 			page 8


 320:Generated_Source\PSoC4/RxDmaS.h **** *  This function should not be called when the specified descriptor is active
 321:Generated_Source\PSoC4/RxDmaS.h **** *  in the DMA transfer engine. This can be checked by calling CyDmaGetStatus(). 
 322:Generated_Source\PSoC4/RxDmaS.h **** *
 323:Generated_Source\PSoC4/RxDmaS.h **** *******************************************************************************/
 324:Generated_Source\PSoC4/RxDmaS.h **** static CY_INLINE void RxDmaS_SetSrcAddress(int32 descriptor, void * srcAddress)
 325:Generated_Source\PSoC4/RxDmaS.h **** {
  81              		.loc 1 325 0
  82              		.cfi_startproc
  83 0000 80B5     		push	{r7, lr}
  84              		.cfi_def_cfa_offset 8
  85              		.cfi_offset 7, -8
  86              		.cfi_offset 14, -4
  87 0002 82B0     		sub	sp, sp, #8
  88              		.cfi_def_cfa_offset 16
  89 0004 00AF     		add	r7, sp, #0
  90              		.cfi_def_cfa_register 7
  91 0006 7860     		str	r0, [r7, #4]
  92 0008 3960     		str	r1, [r7]
 326:Generated_Source\PSoC4/RxDmaS.h ****     CyDmaSetSrcAddress(RxDmaS_CHANNEL, descriptor, srcAddress);
  93              		.loc 1 326 0
  94 000a 7A68     		ldr	r2, [r7, #4]
  95 000c 3B68     		ldr	r3, [r7]
  96 000e 0320     		mov	r0, #3
  97 0010 111C     		mov	r1, r2
  98 0012 1A1C     		mov	r2, r3
  99 0014 FFF7FEFF 		bl	CyDmaSetSrcAddress
 327:Generated_Source\PSoC4/RxDmaS.h **** }
 100              		.loc 1 327 0
 101 0018 BD46     		mov	sp, r7
 102 001a 02B0     		add	sp, sp, #8
 103              		@ sp needed
 104 001c 80BD     		pop	{r7, pc}
 105              		.cfi_endproc
 106              	.LFE10:
 107              		.size	RxDmaS_SetSrcAddress, .-RxDmaS_SetSrcAddress
 108 001e C046     		.section	.text.RxDmaS_SetDstAddress,"ax",%progbits
 109              		.align	2
 110              		.code	16
 111              		.thumb_func
 112              		.type	RxDmaS_SetDstAddress, %function
 113              	RxDmaS_SetDstAddress:
 114              	.LFB12:
 328:Generated_Source\PSoC4/RxDmaS.h **** 
 329:Generated_Source\PSoC4/RxDmaS.h **** 
 330:Generated_Source\PSoC4/RxDmaS.h **** /*******************************************************************************
 331:Generated_Source\PSoC4/RxDmaS.h **** * Function Name: RxDmaS_GetSrcAddress
 332:Generated_Source\PSoC4/RxDmaS.h **** ********************************************************************************
 333:Generated_Source\PSoC4/RxDmaS.h **** *
 334:Generated_Source\PSoC4/RxDmaS.h **** * Summary:
 335:Generated_Source\PSoC4/RxDmaS.h **** *  Returns the source address for the specified descriptor, set by either 
 336:Generated_Source\PSoC4/RxDmaS.h **** *  RxDmaS_Start() or RxDmaS_SetSrcAddress().
 337:Generated_Source\PSoC4/RxDmaS.h **** *
 338:Generated_Source\PSoC4/RxDmaS.h **** * Parameters:
 339:Generated_Source\PSoC4/RxDmaS.h **** *  descriptor: Specifies descriptor (0 or 1) used by this function.
 340:Generated_Source\PSoC4/RxDmaS.h **** *                   
 341:Generated_Source\PSoC4/RxDmaS.h **** * Return:
 342:Generated_Source\PSoC4/RxDmaS.h **** *  Source address written to specified descriptor.
ARM GAS  C:\Users\GREG~1.PHI\AppData\Local\Temp\cclhR0o2.s 			page 9


 343:Generated_Source\PSoC4/RxDmaS.h **** *
 344:Generated_Source\PSoC4/RxDmaS.h **** *******************************************************************************/
 345:Generated_Source\PSoC4/RxDmaS.h **** static CY_INLINE void * RxDmaS_GetSrcAddress(int32 descriptor)
 346:Generated_Source\PSoC4/RxDmaS.h **** {
 347:Generated_Source\PSoC4/RxDmaS.h ****     return (CyDmaGetSrcAddress(RxDmaS_CHANNEL, descriptor));
 348:Generated_Source\PSoC4/RxDmaS.h **** }
 349:Generated_Source\PSoC4/RxDmaS.h **** 
 350:Generated_Source\PSoC4/RxDmaS.h **** 
 351:Generated_Source\PSoC4/RxDmaS.h **** /*******************************************************************************
 352:Generated_Source\PSoC4/RxDmaS.h **** * Function Name: RxDmaS_SetDstAddress
 353:Generated_Source\PSoC4/RxDmaS.h **** ********************************************************************************
 354:Generated_Source\PSoC4/RxDmaS.h **** *
 355:Generated_Source\PSoC4/RxDmaS.h **** * Summary:
 356:Generated_Source\PSoC4/RxDmaS.h **** *  Configures the destination address for the specified descriptor.
 357:Generated_Source\PSoC4/RxDmaS.h **** *
 358:Generated_Source\PSoC4/RxDmaS.h **** * Parameters:
 359:Generated_Source\PSoC4/RxDmaS.h **** *  descriptor: Descriptor (0 or 1) modified by this function.
 360:Generated_Source\PSoC4/RxDmaS.h **** *  dstAddress: Address of DMA transfer destination.
 361:Generated_Source\PSoC4/RxDmaS.h **** *                   
 362:Generated_Source\PSoC4/RxDmaS.h **** * Return:
 363:Generated_Source\PSoC4/RxDmaS.h **** *  None.
 364:Generated_Source\PSoC4/RxDmaS.h **** *
 365:Generated_Source\PSoC4/RxDmaS.h **** * Side effect:
 366:Generated_Source\PSoC4/RxDmaS.h **** *  This function should not be called when the specified descriptor is active
 367:Generated_Source\PSoC4/RxDmaS.h **** *  in the DMA transfer engine. This can be checked by calling CyDmaGetStatus(). 
 368:Generated_Source\PSoC4/RxDmaS.h **** *
 369:Generated_Source\PSoC4/RxDmaS.h **** *******************************************************************************/
 370:Generated_Source\PSoC4/RxDmaS.h **** static CY_INLINE void RxDmaS_SetDstAddress(int32 descriptor, void * dstAddress)
 371:Generated_Source\PSoC4/RxDmaS.h **** {
 115              		.loc 1 371 0
 116              		.cfi_startproc
 117 0000 80B5     		push	{r7, lr}
 118              		.cfi_def_cfa_offset 8
 119              		.cfi_offset 7, -8
 120              		.cfi_offset 14, -4
 121 0002 82B0     		sub	sp, sp, #8
 122              		.cfi_def_cfa_offset 16
 123 0004 00AF     		add	r7, sp, #0
 124              		.cfi_def_cfa_register 7
 125 0006 7860     		str	r0, [r7, #4]
 126 0008 3960     		str	r1, [r7]
 372:Generated_Source\PSoC4/RxDmaS.h ****     CyDmaSetDstAddress(RxDmaS_CHANNEL, descriptor, dstAddress);
 127              		.loc 1 372 0
 128 000a 7A68     		ldr	r2, [r7, #4]
 129 000c 3B68     		ldr	r3, [r7]
 130 000e 0320     		mov	r0, #3
 131 0010 111C     		mov	r1, r2
 132 0012 1A1C     		mov	r2, r3
 133 0014 FFF7FEFF 		bl	CyDmaSetDstAddress
 373:Generated_Source\PSoC4/RxDmaS.h **** }
 134              		.loc 1 373 0
 135 0018 BD46     		mov	sp, r7
 136 001a 02B0     		add	sp, sp, #8
 137              		@ sp needed
 138 001c 80BD     		pop	{r7, pc}
 139              		.cfi_endproc
 140              	.LFE12:
ARM GAS  C:\Users\GREG~1.PHI\AppData\Local\Temp\cclhR0o2.s 			page 10


 141              		.size	RxDmaS_SetDstAddress, .-RxDmaS_SetDstAddress
 142              		.global	RxDmaS_initVar
 143 001e C046     		.bss
 144              		.type	RxDmaS_initVar, %object
 145              		.size	RxDmaS_initVar, 1
 146              	RxDmaS_initVar:
 147 0000 00       		.space	1
 148              		.section	.text.RxDmaS_Start,"ax",%progbits
 149              		.align	2
 150              		.global	RxDmaS_Start
 151              		.code	16
 152              		.thumb_func
 153              		.type	RxDmaS_Start, %function
 154              	RxDmaS_Start:
 155              	.LFB32:
 156              		.file 2 "Generated_Source\\PSoC4\\RxDmaS.c"
   1:Generated_Source\PSoC4/RxDmaS.c **** /*******************************************************************************
   2:Generated_Source\PSoC4/RxDmaS.c **** * File Name: RxDmaS.h
   3:Generated_Source\PSoC4/RxDmaS.c **** * Version 1.0
   4:Generated_Source\PSoC4/RxDmaS.c **** *
   5:Generated_Source\PSoC4/RxDmaS.c **** * Description:
   6:Generated_Source\PSoC4/RxDmaS.c **** *  This file contains all of the channel DMA API functions.
   7:Generated_Source\PSoC4/RxDmaS.c **** *
   8:Generated_Source\PSoC4/RxDmaS.c **** ********************************************************************************
   9:Generated_Source\PSoC4/RxDmaS.c **** * Copyright 2015, Cypress Semiconductor Corporation. All rights reserved.
  10:Generated_Source\PSoC4/RxDmaS.c **** * You may use this file only in accordance with the license, terms, conditions,
  11:Generated_Source\PSoC4/RxDmaS.c **** * disclaimers, and limitations in the end user license agreement accompanying
  12:Generated_Source\PSoC4/RxDmaS.c **** * the software package with which this file was provided.
  13:Generated_Source\PSoC4/RxDmaS.c **** *******************************************************************************/
  14:Generated_Source\PSoC4/RxDmaS.c **** 
  15:Generated_Source\PSoC4/RxDmaS.c **** #include "RxDmaS.h"
  16:Generated_Source\PSoC4/RxDmaS.c **** 
  17:Generated_Source\PSoC4/RxDmaS.c **** uint8 RxDmaS_initVar = 0u;
  18:Generated_Source\PSoC4/RxDmaS.c **** 
  19:Generated_Source\PSoC4/RxDmaS.c **** 
  20:Generated_Source\PSoC4/RxDmaS.c **** /*******************************************************************************
  21:Generated_Source\PSoC4/RxDmaS.c **** * Function Name: RxDmaS_Start
  22:Generated_Source\PSoC4/RxDmaS.c **** ********************************************************************************
  23:Generated_Source\PSoC4/RxDmaS.c **** *
  24:Generated_Source\PSoC4/RxDmaS.c **** * Summary:
  25:Generated_Source\PSoC4/RxDmaS.c **** *  Calls Init() to configure the DMA channel based on the customizer settings if
  26:Generated_Source\PSoC4/RxDmaS.c **** *  the channel has not been initialized before.
  27:Generated_Source\PSoC4/RxDmaS.c **** *  Sets source and destination address, validates descriptor 0 and enables the
  28:Generated_Source\PSoC4/RxDmaS.c **** *  channel. After calling this function the DMA channel is active and waiting
  29:Generated_Source\PSoC4/RxDmaS.c **** *  for a trigger.
  30:Generated_Source\PSoC4/RxDmaS.c **** *
  31:Generated_Source\PSoC4/RxDmaS.c **** * Parameters:
  32:Generated_Source\PSoC4/RxDmaS.c **** *  srcAddress: Address of DMA transfer source for descriptor 0.
  33:Generated_Source\PSoC4/RxDmaS.c **** *  dstAddress: Address of DMA transfer destination for descriptor 0.
  34:Generated_Source\PSoC4/RxDmaS.c **** *                   
  35:Generated_Source\PSoC4/RxDmaS.c **** * Return:
  36:Generated_Source\PSoC4/RxDmaS.c **** *  None.
  37:Generated_Source\PSoC4/RxDmaS.c **** *
  38:Generated_Source\PSoC4/RxDmaS.c **** *******************************************************************************/
  39:Generated_Source\PSoC4/RxDmaS.c **** void RxDmaS_Start(void * srcAddress, void * dstAddress)
  40:Generated_Source\PSoC4/RxDmaS.c **** {
 157              		.loc 2 40 0
ARM GAS  C:\Users\GREG~1.PHI\AppData\Local\Temp\cclhR0o2.s 			page 11


 158              		.cfi_startproc
 159 0000 80B5     		push	{r7, lr}
 160              		.cfi_def_cfa_offset 8
 161              		.cfi_offset 7, -8
 162              		.cfi_offset 14, -4
 163 0002 82B0     		sub	sp, sp, #8
 164              		.cfi_def_cfa_offset 16
 165 0004 00AF     		add	r7, sp, #0
 166              		.cfi_def_cfa_register 7
 167 0006 7860     		str	r0, [r7, #4]
 168 0008 3960     		str	r1, [r7]
  41:Generated_Source\PSoC4/RxDmaS.c ****     if(0u == RxDmaS_initVar)
 169              		.loc 2 41 0
 170 000a 0E4B     		ldr	r3, .L7
 171 000c 1B78     		ldrb	r3, [r3]
 172 000e 002B     		cmp	r3, #0
 173 0010 04D1     		bne	.L6
  42:Generated_Source\PSoC4/RxDmaS.c ****     {
  43:Generated_Source\PSoC4/RxDmaS.c ****         RxDmaS_Init();
 174              		.loc 2 43 0
 175 0012 FFF7FEFF 		bl	RxDmaS_Init
  44:Generated_Source\PSoC4/RxDmaS.c ****         RxDmaS_initVar = 1u;
 176              		.loc 2 44 0
 177 0016 0B4B     		ldr	r3, .L7
 178 0018 0122     		mov	r2, #1
 179 001a 1A70     		strb	r2, [r3]
 180              	.L6:
  45:Generated_Source\PSoC4/RxDmaS.c ****     }
  46:Generated_Source\PSoC4/RxDmaS.c ****     CyDmaEnable();
 181              		.loc 2 46 0
 182 001c FFF7FEFF 		bl	CyDmaEnable
  47:Generated_Source\PSoC4/RxDmaS.c ****     RxDmaS_SetSrcAddress(0, srcAddress);
 183              		.loc 2 47 0
 184 0020 7B68     		ldr	r3, [r7, #4]
 185 0022 0020     		mov	r0, #0
 186 0024 191C     		mov	r1, r3
 187 0026 FFF7FEFF 		bl	RxDmaS_SetSrcAddress
  48:Generated_Source\PSoC4/RxDmaS.c ****     RxDmaS_SetDstAddress(0, dstAddress);
 188              		.loc 2 48 0
 189 002a 3B68     		ldr	r3, [r7]
 190 002c 0020     		mov	r0, #0
 191 002e 191C     		mov	r1, r3
 192 0030 FFF7FEFF 		bl	RxDmaS_SetDstAddress
  49:Generated_Source\PSoC4/RxDmaS.c ****     RxDmaS_ValidateDescriptor(0);
 193              		.loc 2 49 0
 194 0034 0020     		mov	r0, #0
 195 0036 FFF7FEFF 		bl	RxDmaS_ValidateDescriptor
  50:Generated_Source\PSoC4/RxDmaS.c ****     RxDmaS_ChEnable();
 196              		.loc 2 50 0
 197 003a FFF7FEFF 		bl	RxDmaS_ChEnable
  51:Generated_Source\PSoC4/RxDmaS.c **** }
 198              		.loc 2 51 0
 199 003e BD46     		mov	sp, r7
 200 0040 02B0     		add	sp, sp, #8
 201              		@ sp needed
 202 0042 80BD     		pop	{r7, pc}
 203              	.L8:
ARM GAS  C:\Users\GREG~1.PHI\AppData\Local\Temp\cclhR0o2.s 			page 12


 204              		.align	2
 205              	.L7:
 206 0044 00000000 		.word	RxDmaS_initVar
 207              		.cfi_endproc
 208              	.LFE32:
 209              		.size	RxDmaS_Start, .-RxDmaS_Start
 210              		.section	.text.RxDmaS_Init,"ax",%progbits
 211              		.align	2
 212              		.global	RxDmaS_Init
 213              		.code	16
 214              		.thumb_func
 215              		.type	RxDmaS_Init, %function
 216              	RxDmaS_Init:
 217              	.LFB33:
  52:Generated_Source\PSoC4/RxDmaS.c **** 
  53:Generated_Source\PSoC4/RxDmaS.c **** 
  54:Generated_Source\PSoC4/RxDmaS.c **** /*******************************************************************************
  55:Generated_Source\PSoC4/RxDmaS.c **** * Function Name: RxDmaS_Init
  56:Generated_Source\PSoC4/RxDmaS.c **** ********************************************************************************
  57:Generated_Source\PSoC4/RxDmaS.c **** *
  58:Generated_Source\PSoC4/RxDmaS.c **** * Summary:
  59:Generated_Source\PSoC4/RxDmaS.c **** *  Initializes the DMA channel based on the parameters set in the component
  60:Generated_Source\PSoC4/RxDmaS.c **** *  customizer. It is not necessary to call RxDmaS_Init() because the
  61:Generated_Source\PSoC4/RxDmaS.c **** *  RxDmaS_Start() API calls this function, which is the preferred method
  62:Generated_Source\PSoC4/RxDmaS.c **** *  to begin component operation.
  63:Generated_Source\PSoC4/RxDmaS.c **** *
  64:Generated_Source\PSoC4/RxDmaS.c **** * Parameters:
  65:Generated_Source\PSoC4/RxDmaS.c **** *  None.
  66:Generated_Source\PSoC4/RxDmaS.c **** *                   
  67:Generated_Source\PSoC4/RxDmaS.c **** * Return:
  68:Generated_Source\PSoC4/RxDmaS.c **** *  None.
  69:Generated_Source\PSoC4/RxDmaS.c **** *
  70:Generated_Source\PSoC4/RxDmaS.c **** * Side effect:
  71:Generated_Source\PSoC4/RxDmaS.c **** *  The first descriptor is set to descriptor 0. This function should not be
  72:Generated_Source\PSoC4/RxDmaS.c **** *  called while the channel is enabled. All settings will be reset to their
  73:Generated_Source\PSoC4/RxDmaS.c **** *  initial values.
  74:Generated_Source\PSoC4/RxDmaS.c **** *
  75:Generated_Source\PSoC4/RxDmaS.c **** *******************************************************************************/
  76:Generated_Source\PSoC4/RxDmaS.c **** void RxDmaS_Init(void)
  77:Generated_Source\PSoC4/RxDmaS.c **** {
 218              		.loc 2 77 0
 219              		.cfi_startproc
 220 0000 80B5     		push	{r7, lr}
 221              		.cfi_def_cfa_offset 8
 222              		.cfi_offset 7, -8
 223              		.cfi_offset 14, -4
 224 0002 00AF     		add	r7, sp, #0
 225              		.cfi_def_cfa_register 7
  78:Generated_Source\PSoC4/RxDmaS.c ****     CYDMA_CH_CTL_BASE.ctl[RxDmaS_CHANNEL] = RxDmaS_CHANNEL_CFG;
 226              		.loc 2 78 0
 227 0004 084B     		ldr	r3, .L10
 228 0006 C022     		mov	r2, #192
 229 0008 9205     		lsl	r2, r2, #22
 230 000a DA60     		str	r2, [r3, #12]
  79:Generated_Source\PSoC4/RxDmaS.c ****     CYDMA_DESCR_BASE.descriptor[RxDmaS_CHANNEL][0].ctl = RxDmaS_DESCR0_CFG;
 231              		.loc 2 79 0
 232 000c 074B     		ldr	r3, .L10+4
ARM GAS  C:\Users\GREG~1.PHI\AppData\Local\Temp\cclhR0o2.s 			page 13


 233 000e 084A     		ldr	r2, .L10+8
 234 0010 9A66     		str	r2, [r3, #104]
  80:Generated_Source\PSoC4/RxDmaS.c ****     CYDMA_DESCR_BASE.descriptor[RxDmaS_CHANNEL][1].ctl = RxDmaS_DESCR1_CFG;
 235              		.loc 2 80 0
 236 0012 064B     		ldr	r3, .L10+4
 237 0014 0022     		mov	r2, #0
 238 0016 9A67     		str	r2, [r3, #120]
  81:Generated_Source\PSoC4/RxDmaS.c **** 
  82:Generated_Source\PSoC4/RxDmaS.c ****     /* If the Generate IRQ option is selected for descriptor 0 or 1, set the
  83:Generated_Source\PSoC4/RxDmaS.c ****     * channel bit field in the DMA interrupt mask register.
  84:Generated_Source\PSoC4/RxDmaS.c ****     */
  85:Generated_Source\PSoC4/RxDmaS.c ****     #if (0u != ((RxDmaS_DESCR0_CFG | RxDmaS_DESCR1_CFG) & CYDMA_GENERATE_IRQ))
  86:Generated_Source\PSoC4/RxDmaS.c ****         CYDMA_INTR_MASK_REG |= RxDmaS_CHANNEL_MASK;
 239              		.loc 2 86 0
 240 0018 064B     		ldr	r3, .L10+12
 241 001a 064A     		ldr	r2, .L10+12
 242 001c 1268     		ldr	r2, [r2]
 243 001e 0821     		mov	r1, #8
 244 0020 0A43     		orr	r2, r1
 245 0022 1A60     		str	r2, [r3]
  87:Generated_Source\PSoC4/RxDmaS.c ****     #endif /* (0u != ((RxDmaS_DESCR0_CFG | RxDmaS_DESCR1_CFG) & CYDMA_GENERATE_IRQ)) */
  88:Generated_Source\PSoC4/RxDmaS.c **** }
 246              		.loc 2 88 0
 247 0024 BD46     		mov	sp, r7
 248              		@ sp needed
 249 0026 80BD     		pop	{r7, pc}
 250              	.L11:
 251              		.align	2
 252              	.L10:
 253 0028 80101040 		.word	1074794624
 254 002c 00181040 		.word	1074796544
 255 0030 0200204D 		.word	1293942786
 256 0034 F8171040 		.word	1074796536
 257              		.cfi_endproc
 258              	.LFE33:
 259              		.size	RxDmaS_Init, .-RxDmaS_Init
 260              		.text
 261              	.Letext0:
 262              		.file 3 "Generated_Source\\PSoC4\\cytypes.h"
 263              		.file 4 "Generated_Source\\PSoC4\\CyDMA.h"