ARM GAS  C:\Users\GREG~1.PHI\AppData\Local\Temp\ccaCDQUZ.s 			page 1


   1              		.cpu cortex-m0
   2              		.fpu softvfp
   3              		.eabi_attribute 20, 1
   4              		.eabi_attribute 21, 1
   5              		.eabi_attribute 23, 3
   6              		.eabi_attribute 24, 1
   7              		.eabi_attribute 25, 1
   8              		.eabi_attribute 26, 1
   9              		.eabi_attribute 30, 6
  10              		.eabi_attribute 34, 0
  11              		.eabi_attribute 18, 4
  12              		.code	16
  13              		.file	"sensors.c"
  14              		.text
  15              	.Ltext0:
  16              		.cfi_sections	.debug_frame
  17              		.global _printf_float
  18              		.code	16
  19              		.section	.text.init_sensors,"ax",%progbits
  20              		.align	2
  21              		.global	init_sensors
  22              		.code	16
  23              		.thumb_func
  24              		.type	init_sensors, %function
  25              	init_sensors:
  26              	.LFB36:
  27              		.file 1 "sensors.c"
   1:sensors.c     **** /*
   2:sensors.c     ****  * Copyright 2017, Sierra Telecom. All Rights Reserved.
   3:sensors.c     ****  *
   4:sensors.c     ****  * This software, associated documentation and materials ("Software"),
   5:sensors.c     ****  * is owned by Sierra Telecom ("Sierra") and is protected by and subject to
   6:sensors.c     ****  * worldwide patent protection (United States and foreign),
   7:sensors.c     ****  * United States copyright laws and international treaty provisions.
   8:sensors.c     ****  * Therefore, you may use this Software only as provided in the license
   9:sensors.c     ****  * agreement accompanying the software package from which you
  10:sensors.c     ****  * obtained this Software ("EULA").
  11:sensors.c     ****  * If no EULA applies, Sierra hereby grants you a personal, non-exclusive,
  12:sensors.c     ****  * non-transferable license to copy, modify, and compile the Software
  13:sensors.c     ****  * source code solely for use in connection with Sierra's
  14:sensors.c     ****  * integrated circuit products. Any reproduction, modification, translation,
  15:sensors.c     ****  * compilation, or representation of this Software except as specified
  16:sensors.c     ****  * above is prohibited without the express written permission of Sierra.
  17:sensors.c     ****  *
  18:sensors.c     ****  * Disclaimer: THIS SOFTWARE IS PROVIDED AS-IS, WITH NO WARRANTY OF ANY KIND,
  19:sensors.c     ****  * EXPRESS OR IMPLIED, INCLUDING, BUT NOT LIMITED TO, NONINFRINGEMENT, IMPLIED
  20:sensors.c     ****  * WARRANTIES OF MERCHANTABILITY AND FITNESS FOR A PARTICULAR PURPOSE. Sierra
  21:sensors.c     ****  * reserves the right to make changes to the Software without notice. Sierra
  22:sensors.c     ****  * does not assume any liability arising out of the application or use of the
  23:sensors.c     ****  * Software or any product or circuit described in the Software. Sierra does
  24:sensors.c     ****  * not authorize its products for use in any products where a malfunction or
  25:sensors.c     ****  * failure of the Sierra product may reasonably be expected to result in
  26:sensors.c     ****  * significant property damage, injury or death ("High Risk Product"). By
  27:sensors.c     ****  * including Sierra's product in a High Risk Product, the manufacturer
  28:sensors.c     ****  * of such system or application assumes all risk of such use and in doing
  29:sensors.c     ****  * so agrees to indemnify Sierra against all liability.
  30:sensors.c     ****  */
ARM GAS  C:\Users\GREG~1.PHI\AppData\Local\Temp\ccaCDQUZ.s 			page 2


  31:sensors.c     **** /** @file cypress_slave_spi.c
  32:sensors.c     ****  *
  33:sensors.c     ****  *  Created on: April 26, 2017
  34:sensors.c     ****  *      Author: greg.phillips
  35:sensors.c     ****  */
  36:sensors.c     **** 
  37:sensors.c     **** #if defined (__GNUC__)
  38:sensors.c     ****     /* Add an explicit reference to the floating point printf library */
  39:sensors.c     ****     /* to allow the usage of floating point conversion specifiers. */
  40:sensors.c     ****     /* This is not linked in by default with the newlib-nano library. */
  41:sensors.c     ****     asm (".global _printf_float");
  42:sensors.c     **** #endif
  43:sensors.c     **** 
  44:sensors.c     **** 
  45:sensors.c     **** #include <project.h>
  46:sensors.c     **** #include <stdint.h>
  47:sensors.c     **** #include <stdbool.h>
  48:sensors.c     **** #include <stdlib.h>
  49:sensors.c     **** 
  50:sensors.c     **** #include "arduino.h"
  51:sensors.c     **** #include "cypress_arduino.h"
  52:sensors.c     **** #include "RTD_sensor.h"
  53:sensors.c     **** #include "switch_sensor.h"
  54:sensors.c     **** /******************************************************
  55:sensors.c     ****  *                      Macros
  56:sensors.c     ****  ******************************************************/
  57:sensors.c     **** 
  58:sensors.c     **** /******************************************************
  59:sensors.c     ****  *                    Constants
  60:sensors.c     ****  ******************************************************/
  61:sensors.c     **** 
  62:sensors.c     **** /******************************************************
  63:sensors.c     ****  *                   Enumerations
  64:sensors.c     ****  ******************************************************/
  65:sensors.c     **** 
  66:sensors.c     **** /******************************************************
  67:sensors.c     ****  *                 Type Definitions
  68:sensors.c     ****  ******************************************************/
  69:sensors.c     **** 
  70:sensors.c     **** /******************************************************
  71:sensors.c     ****  *                    Structures
  72:sensors.c     ****  ******************************************************/
  73:sensors.c     **** 
  74:sensors.c     **** /******************************************************
  75:sensors.c     ****  *               Function Declarations
  76:sensors.c     ****  ******************************************************/
  77:sensors.c     **** 
  78:sensors.c     **** /******************************************************
  79:sensors.c     ****  *               Variable Definitions
  80:sensors.c     ****  ******************************************************/
  81:sensors.c     **** 
  82:sensors.c     **** /******************************************************
  83:sensors.c     ****  *               Function Definitions
  84:sensors.c     ****  ******************************************************/
  85:sensors.c     **** /**
  86:sensors.c     ****   * @brief Initialize any sensors
  87:sensors.c     ****   * @param  None
ARM GAS  C:\Users\GREG~1.PHI\AppData\Local\Temp\ccaCDQUZ.s 			page 3


  88:sensors.c     ****   * @retval : None
  89:sensors.c     ****   */
  90:sensors.c     **** void init_sensors(void)
  91:sensors.c     **** {
  28              		.loc 1 91 0
  29              		.cfi_startproc
  30 0000 80B5     		push	{r7, lr}
  31              		.cfi_def_cfa_offset 8
  32              		.cfi_offset 7, -8
  33              		.cfi_offset 14, -4
  34 0002 00AF     		add	r7, sp, #0
  35              		.cfi_def_cfa_register 7
  92:sensors.c     ****     init_RTD();
  36              		.loc 1 92 0
  37 0004 FFF7FEFF 		bl	init_RTD
  93:sensors.c     ****     init_switch();
  38              		.loc 1 93 0
  39 0008 FFF7FEFF 		bl	init_switch
  94:sensors.c     **** }
  40              		.loc 1 94 0
  41 000c BD46     		mov	sp, r7
  42              		@ sp needed
  43 000e 80BD     		pop	{r7, pc}
  44              		.cfi_endproc
  45              	.LFE36:
  46              		.size	init_sensors, .-init_sensors
  47              		.section	.text.process_sensors,"ax",%progbits
  48              		.align	2
  49              		.global	process_sensors
  50              		.code	16
  51              		.thumb_func
  52              		.type	process_sensors, %function
  53              	process_sensors:
  54              	.LFB37:
  95:sensors.c     **** 
  96:sensors.c     **** /**
  97:sensors.c     ****   * @brief Process sensors
  98:sensors.c     ****   * @param  None
  99:sensors.c     ****   * @retval : None
 100:sensors.c     ****   */
 101:sensors.c     **** 
 102:sensors.c     **** void process_sensors(void)
 103:sensors.c     **** {
  55              		.loc 1 103 0
  56              		.cfi_startproc
  57 0000 80B5     		push	{r7, lr}
  58              		.cfi_def_cfa_offset 8
  59              		.cfi_offset 7, -8
  60              		.cfi_offset 14, -4
  61 0002 00AF     		add	r7, sp, #0
  62              		.cfi_def_cfa_register 7
 104:sensors.c     ****     process_RTD();
  63              		.loc 1 104 0
  64 0004 FFF7FEFF 		bl	process_RTD
 105:sensors.c     ****     process_switch();
  65              		.loc 1 105 0
  66 0008 FFF7FEFF 		bl	process_switch
ARM GAS  C:\Users\GREG~1.PHI\AppData\Local\Temp\ccaCDQUZ.s 			page 4


 106:sensors.c     **** }
  67              		.loc 1 106 0
  68 000c BD46     		mov	sp, r7
  69              		@ sp needed
  70 000e 80BD     		pop	{r7, pc}
  71              		.cfi_endproc
  72              	.LFE37:
  73              		.size	process_sensors, .-process_sensors
  74              		.text
  75              	.Letext0: