ARM GAS  C:\Users\GREG~1.PHI\AppData\Local\Temp\cc7vpJ8g.s 			page 1


   1              		.cpu cortex-m0
   2              		.fpu softvfp
   3              		.eabi_attribute 20, 1
   4              		.eabi_attribute 21, 1
   5              		.eabi_attribute 23, 3
   6              		.eabi_attribute 24, 1
   7              		.eabi_attribute 25, 1
   8              		.eabi_attribute 26, 1
   9              		.eabi_attribute 30, 6
  10              		.eabi_attribute 34, 0
  11              		.eabi_attribute 18, 4
  12              		.code	16
  13              		.file	"switch_sensor.c"
  14              		.text
  15              	.Ltext0:
  16              		.cfi_sections	.debug_frame
  17              		.global _printf_float
  18              		.code	16
  19              		.comm	switch_state,4,4
  20              		.section	.text.init_switch,"ax",%progbits
  21              		.align	2
  22              		.global	init_switch
  23              		.code	16
  24              		.thumb_func
  25              		.type	init_switch, %function
  26              	init_switch:
  27              	.LFB36:
  28              		.file 1 "switch_sensor.c"
   1:switch_sensor.c **** /*
   2:switch_sensor.c ****  * Copyright 2017, Sierra Telecom. All Rights Reserved.
   3:switch_sensor.c ****  *
   4:switch_sensor.c ****  * This software, associated documentation and materials ("Software"),
   5:switch_sensor.c ****  * is owned by Sierra Telecom ("Sierra") and is protected by and subject to
   6:switch_sensor.c ****  * worldwide patent protection (United States and foreign),
   7:switch_sensor.c ****  * United States copyright laws and international treaty provisions.
   8:switch_sensor.c ****  * Therefore, you may use this Software only as provided in the license
   9:switch_sensor.c ****  * agreement accompanying the software package from which you
  10:switch_sensor.c ****  * obtained this Software ("EULA").
  11:switch_sensor.c ****  * If no EULA applies, Sierra hereby grants you a personal, non-exclusive,
  12:switch_sensor.c ****  * non-transferable license to copy, modify, and compile the Software
  13:switch_sensor.c ****  * source code solely for use in connection with Sierra's
  14:switch_sensor.c ****  * integrated circuit products. Any reproduction, modification, translation,
  15:switch_sensor.c ****  * compilation, or representation of this Software except as specified
  16:switch_sensor.c ****  * above is prohibited without the express written permission of Sierra.
  17:switch_sensor.c ****  *
  18:switch_sensor.c ****  * Disclaimer: THIS SOFTWARE IS PROVIDED AS-IS, WITH NO WARRANTY OF ANY KIND,
  19:switch_sensor.c ****  * EXPRESS OR IMPLIED, INCLUDING, BUT NOT LIMITED TO, NONINFRINGEMENT, IMPLIED
  20:switch_sensor.c ****  * WARRANTIES OF MERCHANTABILITY AND FITNESS FOR A PARTICULAR PURPOSE. Sierra
  21:switch_sensor.c ****  * reserves the right to make changes to the Software without notice. Sierra
  22:switch_sensor.c ****  * does not assume any liability arising out of the application or use of the
  23:switch_sensor.c ****  * Software or any product or circuit described in the Software. Sierra does
  24:switch_sensor.c ****  * not authorize its products for use in any products where a malfunction or
  25:switch_sensor.c ****  * failure of the Sierra product may reasonably be expected to result in
  26:switch_sensor.c ****  * significant property damage, injury or death ("High Risk Product"). By
  27:switch_sensor.c ****  * including Sierra's product in a High Risk Product, the manufacturer
  28:switch_sensor.c ****  * of such system or application assumes all risk of such use and in doing
  29:switch_sensor.c ****  * so agrees to indemnify Sierra against all liability.
ARM GAS  C:\Users\GREG~1.PHI\AppData\Local\Temp\cc7vpJ8g.s 			page 2


  30:switch_sensor.c ****  */
  31:switch_sensor.c **** /** @file switch_sensor.c
  32:switch_sensor.c ****  *
  33:switch_sensor.c ****  *  Created on: April 26, 2017
  34:switch_sensor.c ****  *      Author: greg.phillips
  35:switch_sensor.c ****  */
  36:switch_sensor.c **** 
  37:switch_sensor.c **** #if defined (__GNUC__)
  38:switch_sensor.c ****     /* Add an explicit reference to the floating point printf library */
  39:switch_sensor.c ****     /* to allow the usage of floating point conversion specifiers. */
  40:switch_sensor.c ****     /* This is not linked in by default with the newlib-nano library. */
  41:switch_sensor.c ****     asm (".global _printf_float");
  42:switch_sensor.c **** #endif
  43:switch_sensor.c **** 
  44:switch_sensor.c **** 
  45:switch_sensor.c **** #include <project.h>
  46:switch_sensor.c **** #include <stdint.h>
  47:switch_sensor.c **** #include <stdbool.h>
  48:switch_sensor.c **** #include <stdlib.h>
  49:switch_sensor.c **** 
  50:switch_sensor.c **** #include "arduino.h"
  51:switch_sensor.c **** #include "cypress_arduino.h"
  52:switch_sensor.c **** #include "leds.h"
  53:switch_sensor.c **** /******************************************************
  54:switch_sensor.c ****  *                      Macros
  55:switch_sensor.c ****  ******************************************************/
  56:switch_sensor.c **** 
  57:switch_sensor.c **** /******************************************************
  58:switch_sensor.c ****  *                    Constants
  59:switch_sensor.c ****  ******************************************************/
  60:switch_sensor.c **** 
  61:switch_sensor.c **** /******************************************************
  62:switch_sensor.c ****  *                   Enumerations
  63:switch_sensor.c ****  ******************************************************/
  64:switch_sensor.c **** enum {
  65:switch_sensor.c ****     SWITCH_INIT,
  66:switch_sensor.c ****     MONITOR_SWITCH,
  67:switch_sensor.c ****     WAIT_TILL_OFF,
  68:switch_sensor.c **** };
  69:switch_sensor.c **** /******************************************************
  70:switch_sensor.c ****  *                 Type Definitions
  71:switch_sensor.c ****  ******************************************************/
  72:switch_sensor.c **** 
  73:switch_sensor.c **** /******************************************************
  74:switch_sensor.c ****  *                    Structures
  75:switch_sensor.c ****  ******************************************************/
  76:switch_sensor.c **** 
  77:switch_sensor.c **** /******************************************************
  78:switch_sensor.c ****  *               Function Declarations
  79:switch_sensor.c ****  ******************************************************/
  80:switch_sensor.c **** 
  81:switch_sensor.c **** /******************************************************
  82:switch_sensor.c ****  *               Variable Definitions
  83:switch_sensor.c ****  ******************************************************/
  84:switch_sensor.c **** 
  85:switch_sensor.c **** /*
  86:switch_sensor.c ****  * State variable for switch monitor
ARM GAS  C:\Users\GREG~1.PHI\AppData\Local\Temp\cc7vpJ8g.s 			page 3


  87:switch_sensor.c ****  */
  88:switch_sensor.c **** uint32_t switch_state;
  89:switch_sensor.c **** /******************************************************
  90:switch_sensor.c ****  *               Function Definitions
  91:switch_sensor.c ****  ******************************************************/
  92:switch_sensor.c **** 
  93:switch_sensor.c **** /**
  94:switch_sensor.c ****   * @brief Initialize switch
  95:switch_sensor.c ****   * @param  None
  96:switch_sensor.c ****   * @retval : None
  97:switch_sensor.c ****   */
  98:switch_sensor.c **** void init_switch(void)
  99:switch_sensor.c **** {
  29              		.loc 1 99 0
  30              		.cfi_startproc
  31 0000 80B5     		push	{r7, lr}
  32              		.cfi_def_cfa_offset 8
  33              		.cfi_offset 7, -8
  34              		.cfi_offset 14, -4
  35 0002 00AF     		add	r7, sp, #0
  36              		.cfi_def_cfa_register 7
 100:switch_sensor.c ****     switch_state = SWITCH_INIT;
  37              		.loc 1 100 0
  38 0004 024B     		ldr	r3, .L2
  39 0006 0022     		mov	r2, #0
  40 0008 1A60     		str	r2, [r3]
 101:switch_sensor.c **** }
  41              		.loc 1 101 0
  42 000a BD46     		mov	sp, r7
  43              		@ sp needed
  44 000c 80BD     		pop	{r7, pc}
  45              	.L3:
  46 000e C046     		.align	2
  47              	.L2:
  48 0010 00000000 		.word	switch_state
  49              		.cfi_endproc
  50              	.LFE36:
  51              		.size	init_switch, .-init_switch
  52              		.comm	count,4,4
  53              		.section	.text.process_switch,"ax",%progbits
  54              		.align	2
  55              		.global	process_switch
  56              		.code	16
  57              		.thumb_func
  58              		.type	process_switch, %function
  59              	process_switch:
  60              	.LFB37:
 102:switch_sensor.c **** 
 103:switch_sensor.c **** /**
 104:switch_sensor.c ****   * @brief process the switch
 105:switch_sensor.c ****   * @param  None
 106:switch_sensor.c ****   * @retval : None
 107:switch_sensor.c ****   */
 108:switch_sensor.c **** uint32_t count;
 109:switch_sensor.c **** void process_switch(void)
 110:switch_sensor.c **** {
  61              		.loc 1 110 0
ARM GAS  C:\Users\GREG~1.PHI\AppData\Local\Temp\cc7vpJ8g.s 			page 4


  62              		.cfi_startproc
  63 0000 80B5     		push	{r7, lr}
  64              		.cfi_def_cfa_offset 8
  65              		.cfi_offset 7, -8
  66              		.cfi_offset 14, -4
  67 0002 00AF     		add	r7, sp, #0
  68              		.cfi_def_cfa_register 7
 111:switch_sensor.c ****    
 112:switch_sensor.c ****     switch( switch_state ) {
  69              		.loc 1 112 0
  70 0004 234B     		ldr	r3, .L12
  71 0006 1B68     		ldr	r3, [r3]
  72 0008 012B     		cmp	r3, #1
  73 000a 0AD0     		beq	.L6
  74 000c 02D3     		bcc	.L7
  75 000e 022B     		cmp	r3, #2
  76 0010 2AD0     		beq	.L8
  77 0012 39E0     		b	.L5
  78              	.L7:
 113:switch_sensor.c ****         case SWITCH_INIT :
 114:switch_sensor.c ****             /* 
 115:switch_sensor.c ****              * Initialize Switch
 116:switch_sensor.c ****              */
 117:switch_sensor.c ****             switch_state = MONITOR_SWITCH;
  79              		.loc 1 117 0
  80 0014 1F4B     		ldr	r3, .L12
  81 0016 0122     		mov	r2, #1
  82 0018 1A60     		str	r2, [r3]
 118:switch_sensor.c ****             count = 0;
  83              		.loc 1 118 0
  84 001a 1F4B     		ldr	r3, .L12+4
  85 001c 0022     		mov	r2, #0
  86 001e 1A60     		str	r2, [r3]
 119:switch_sensor.c ****             break;
  87              		.loc 1 119 0
  88 0020 36E0     		b	.L4
  89              	.L6:
 120:switch_sensor.c ****         case MONITOR_SWITCH :
 121:switch_sensor.c ****             count += 1;
  90              		.loc 1 121 0
  91 0022 1D4B     		ldr	r3, .L12+4
  92 0024 1B68     		ldr	r3, [r3]
  93 0026 5A1C     		add	r2, r3, #1
  94 0028 1B4B     		ldr	r3, .L12+4
  95 002a 1A60     		str	r2, [r3]
 122:switch_sensor.c ****             if( ( switch_1_Read() == 0 ) || (count > 100000 ) ) {
  96              		.loc 1 122 0
  97 002c FFF7FEFF 		bl	switch_1_Read
  98 0030 031E     		sub	r3, r0, #0
  99 0032 04D0     		beq	.L10
 100              		.loc 1 122 0 is_stmt 0 discriminator 1
 101 0034 184B     		ldr	r3, .L12+4
 102 0036 1B68     		ldr	r3, [r3]
 103 0038 184A     		ldr	r2, .L12+8
 104 003a 9342     		cmp	r3, r2
 105 003c 13D9     		bls	.L11
 106              	.L10:
ARM GAS  C:\Users\GREG~1.PHI\AppData\Local\Temp\cc7vpJ8g.s 			page 5


 123:switch_sensor.c ****                 count = 0;
 107              		.loc 1 123 0 is_stmt 1
 108 003e 164B     		ldr	r3, .L12+4
 109 0040 0022     		mov	r2, #0
 110 0042 1A60     		str	r2, [r3]
 124:switch_sensor.c ****                 /*
 125:switch_sensor.c ****                  * Switch Pressed - Send Notification, Turn on Blue LED - Wait till off again
 126:switch_sensor.c ****                  */
 127:switch_sensor.c ****                 RGB_LED_ON_BLUE;
 111              		.loc 1 127 0
 112 0044 0120     		mov	r0, #1
 113 0046 FFF7FEFF 		bl	LED_RED_Write
 114 004a 0120     		mov	r0, #1
 115 004c FFF7FEFF 		bl	LED_GREEN_Write
 116 0050 0020     		mov	r0, #0
 117 0052 FFF7FEFF 		bl	LED_BLUE_Write
 128:switch_sensor.c ****                 set_uint32_sensor_data( ASCB_SENSOR_SWITCH, 1 );
 118              		.loc 1 128 0
 119 0056 0420     		mov	r0, #4
 120 0058 0121     		mov	r1, #1
 121 005a FFF7FEFF 		bl	set_uint32_sensor_data
 129:switch_sensor.c ****                 switch_state = WAIT_TILL_OFF;
 122              		.loc 1 129 0
 123 005e 0D4B     		ldr	r3, .L12
 124 0060 0222     		mov	r2, #2
 125 0062 1A60     		str	r2, [r3]
 130:switch_sensor.c ****             }
 131:switch_sensor.c ****             break;
 126              		.loc 1 131 0
 127 0064 14E0     		b	.L4
 128              	.L11:
 129 0066 13E0     		b	.L4
 130              	.L8:
 132:switch_sensor.c ****         case WAIT_TILL_OFF :
 133:switch_sensor.c ****             if( switch_1_Read() != 0 ) {
 131              		.loc 1 133 0
 132 0068 FFF7FEFF 		bl	switch_1_Read
 133 006c 031E     		sub	r3, r0, #0
 134 006e 0BD0     		beq	.L5
 134:switch_sensor.c ****                 /*
 135:switch_sensor.c ****                  * Switch Off got back to monitoring - turn off LED
 136:switch_sensor.c ****                  */
 137:switch_sensor.c ****                 RGB_LED_OFF;
 135              		.loc 1 137 0
 136 0070 0120     		mov	r0, #1
 137 0072 FFF7FEFF 		bl	LED_RED_Write
 138 0076 0120     		mov	r0, #1
 139 0078 FFF7FEFF 		bl	LED_GREEN_Write
 140 007c 0120     		mov	r0, #1
 141 007e FFF7FEFF 		bl	LED_BLUE_Write
 138:switch_sensor.c ****                 switch_state = MONITOR_SWITCH;
 142              		.loc 1 138 0
 143 0082 044B     		ldr	r3, .L12
 144 0084 0122     		mov	r2, #1
 145 0086 1A60     		str	r2, [r3]
 146              	.L5:
 139:switch_sensor.c ****             }
ARM GAS  C:\Users\GREG~1.PHI\AppData\Local\Temp\cc7vpJ8g.s 			page 6


 140:switch_sensor.c ****         default :
 141:switch_sensor.c ****             switch_state = SWITCH_INIT;
 147              		.loc 1 141 0
 148 0088 024B     		ldr	r3, .L12
 149 008a 0022     		mov	r2, #0
 150 008c 1A60     		str	r2, [r3]
 142:switch_sensor.c ****             break;
 151              		.loc 1 142 0
 152 008e C046     		mov	r8, r8
 153              	.L4:
 143:switch_sensor.c ****     }
 144:switch_sensor.c **** 
 145:switch_sensor.c **** }
 154              		.loc 1 145 0
 155 0090 BD46     		mov	sp, r7
 156              		@ sp needed
 157 0092 80BD     		pop	{r7, pc}
 158              	.L13:
 159              		.align	2
 160              	.L12:
 161 0094 00000000 		.word	switch_state
 162 0098 00000000 		.word	count
 163 009c A0860100 		.word	100000
 164              		.cfi_endproc
 165              	.LFE37:
 166              		.size	process_switch, .-process_switch
 167              		.text
 168              	.Letext0:
 169              		.file 2 "c:\\program files (x86)\\cypress\\psoc creator\\4.0\\psoc creator\\import\\gnu\\arm\\4.9.
 170              		.file 3 "c:\\program files (x86)\\cypress\\psoc creator\\4.0\\psoc creator\\import\\gnu\\arm\\4.9.